
suppercharge.elf:     file format elf32-littlearm

Sections:
Idx Name          Size      VMA       LMA       File off  Algn
  0 .isr_vector   00000298  08000000  08000000  00001000  2**0
                  CONTENTS, ALLOC, LOAD, READONLY, DATA
  1 .text         00007948  08000298  08000298  00001298  2**3
                  CONTENTS, ALLOC, LOAD, READONLY, CODE
  2 .rodata       00000240  08007be0  08007be0  00008be0  2**1
                  CONTENTS, ALLOC, LOAD, READONLY, DATA
  3 .ARM          00000008  08007e20  08007e20  00008e20  2**2
                  CONTENTS, ALLOC, LOAD, READONLY, DATA
  4 .init_array   00000004  08007e28  08007e28  00008e28  2**2
                  CONTENTS, ALLOC, LOAD, READONLY, DATA
  5 .fini_array   00000004  08007e2c  08007e2c  00008e2c  2**2
                  CONTENTS, ALLOC, LOAD, READONLY, DATA
  6 .data         00000010  24000000  08007e30  00009000  2**2
                  CONTENTS, ALLOC, LOAD, DATA
  7 .bss          000007d0  24000010  08007e40  00009010  2**3
                  ALLOC
  8 ._user_heap_stack 00000600  240007e0  08007e40  000097e0  2**0
                  ALLOC
  9 .ARM.attributes 0000002e  00000000  00000000  00009010  2**0
                  CONTENTS, READONLY
 10 .comment      00000043  00000000  00000000  0000903e  2**0
                  CONTENTS, READONLY
 11 .debug_frame  000000ac  00000000  00000000  00009084  2**2
                  CONTENTS, READONLY, DEBUGGING, OCTETS

Disassembly of section .text:

08000298 <__do_global_dtors_aux>:
 8000298:	b510      	push	{r4, lr}
 800029a:	4c05      	ldr	r4, [pc, #20]	@ (80002b0 <__do_global_dtors_aux+0x18>)
 800029c:	7823      	ldrb	r3, [r4, #0]
 800029e:	b933      	cbnz	r3, 80002ae <__do_global_dtors_aux+0x16>
 80002a0:	4b04      	ldr	r3, [pc, #16]	@ (80002b4 <__do_global_dtors_aux+0x1c>)
 80002a2:	b113      	cbz	r3, 80002aa <__do_global_dtors_aux+0x12>
 80002a4:	4804      	ldr	r0, [pc, #16]	@ (80002b8 <__do_global_dtors_aux+0x20>)
 80002a6:	f3af 8000 	nop.w
 80002aa:	2301      	movs	r3, #1
 80002ac:	7023      	strb	r3, [r4, #0]
 80002ae:	bd10      	pop	{r4, pc}
 80002b0:	24000010 	.word	0x24000010
 80002b4:	00000000 	.word	0x00000000
 80002b8:	08007bc8 	.word	0x08007bc8

080002bc <frame_dummy>:
 80002bc:	b508      	push	{r3, lr}
 80002be:	4b03      	ldr	r3, [pc, #12]	@ (80002cc <frame_dummy+0x10>)
 80002c0:	b11b      	cbz	r3, 80002ca <frame_dummy+0xe>
 80002c2:	4903      	ldr	r1, [pc, #12]	@ (80002d0 <frame_dummy+0x14>)
 80002c4:	4803      	ldr	r0, [pc, #12]	@ (80002d4 <frame_dummy+0x18>)
 80002c6:	f3af 8000 	nop.w
 80002ca:	bd08      	pop	{r3, pc}
 80002cc:	00000000 	.word	0x00000000
 80002d0:	24000014 	.word	0x24000014
 80002d4:	08007bc8 	.word	0x08007bc8

080002d8 <__aeabi_uldivmod>:
 80002d8:	b953      	cbnz	r3, 80002f0 <__aeabi_uldivmod+0x18>
 80002da:	b94a      	cbnz	r2, 80002f0 <__aeabi_uldivmod+0x18>
 80002dc:	2900      	cmp	r1, #0
 80002de:	bf08      	it	eq
 80002e0:	2800      	cmpeq	r0, #0
 80002e2:	bf1c      	itt	ne
 80002e4:	f04f 31ff 	movne.w	r1, #4294967295
 80002e8:	f04f 30ff 	movne.w	r0, #4294967295
 80002ec:	f000 b96a 	b.w	80005c4 <__aeabi_idiv0>
 80002f0:	f1ad 0c08 	sub.w	ip, sp, #8
 80002f4:	e96d ce04 	strd	ip, lr, [sp, #-16]!
 80002f8:	f000 f806 	bl	8000308 <__udivmoddi4>
 80002fc:	f8dd e004 	ldr.w	lr, [sp, #4]
 8000300:	e9dd 2302 	ldrd	r2, r3, [sp, #8]
 8000304:	b004      	add	sp, #16
 8000306:	4770      	bx	lr

08000308 <__udivmoddi4>:
 8000308:	e92d 47f0 	stmdb	sp!, {r4, r5, r6, r7, r8, r9, sl, lr}
 800030c:	9d08      	ldr	r5, [sp, #32]
 800030e:	460c      	mov	r4, r1
 8000310:	2b00      	cmp	r3, #0
 8000312:	d14e      	bne.n	80003b2 <__udivmoddi4+0xaa>
 8000314:	4694      	mov	ip, r2
 8000316:	458c      	cmp	ip, r1
 8000318:	4686      	mov	lr, r0
 800031a:	fab2 f282 	clz	r2, r2
 800031e:	d962      	bls.n	80003e6 <__udivmoddi4+0xde>
 8000320:	b14a      	cbz	r2, 8000336 <__udivmoddi4+0x2e>
 8000322:	f1c2 0320 	rsb	r3, r2, #32
 8000326:	4091      	lsls	r1, r2
 8000328:	fa20 f303 	lsr.w	r3, r0, r3
 800032c:	fa0c fc02 	lsl.w	ip, ip, r2
 8000330:	4319      	orrs	r1, r3
 8000332:	fa00 fe02 	lsl.w	lr, r0, r2
 8000336:	ea4f 471c 	mov.w	r7, ip, lsr #16
 800033a:	fa1f f68c 	uxth.w	r6, ip
 800033e:	fbb1 f4f7 	udiv	r4, r1, r7
 8000342:	ea4f 431e 	mov.w	r3, lr, lsr #16
 8000346:	fb07 1114 	mls	r1, r7, r4, r1
 800034a:	ea43 4301 	orr.w	r3, r3, r1, lsl #16
 800034e:	fb04 f106 	mul.w	r1, r4, r6
 8000352:	4299      	cmp	r1, r3
 8000354:	d90a      	bls.n	800036c <__udivmoddi4+0x64>
 8000356:	eb1c 0303 	adds.w	r3, ip, r3
 800035a:	f104 30ff 	add.w	r0, r4, #4294967295
 800035e:	f080 8112 	bcs.w	8000586 <__udivmoddi4+0x27e>
 8000362:	4299      	cmp	r1, r3
 8000364:	f240 810f 	bls.w	8000586 <__udivmoddi4+0x27e>
 8000368:	3c02      	subs	r4, #2
 800036a:	4463      	add	r3, ip
 800036c:	1a59      	subs	r1, r3, r1
 800036e:	fa1f f38e 	uxth.w	r3, lr
 8000372:	fbb1 f0f7 	udiv	r0, r1, r7
 8000376:	fb07 1110 	mls	r1, r7, r0, r1
 800037a:	ea43 4301 	orr.w	r3, r3, r1, lsl #16
 800037e:	fb00 f606 	mul.w	r6, r0, r6
 8000382:	429e      	cmp	r6, r3
 8000384:	d90a      	bls.n	800039c <__udivmoddi4+0x94>
 8000386:	eb1c 0303 	adds.w	r3, ip, r3
 800038a:	f100 31ff 	add.w	r1, r0, #4294967295
 800038e:	f080 80fc 	bcs.w	800058a <__udivmoddi4+0x282>
 8000392:	429e      	cmp	r6, r3
 8000394:	f240 80f9 	bls.w	800058a <__udivmoddi4+0x282>
 8000398:	4463      	add	r3, ip
 800039a:	3802      	subs	r0, #2
 800039c:	1b9b      	subs	r3, r3, r6
 800039e:	ea40 4004 	orr.w	r0, r0, r4, lsl #16
 80003a2:	2100      	movs	r1, #0
 80003a4:	b11d      	cbz	r5, 80003ae <__udivmoddi4+0xa6>
 80003a6:	40d3      	lsrs	r3, r2
 80003a8:	2200      	movs	r2, #0
 80003aa:	e9c5 3200 	strd	r3, r2, [r5]
 80003ae:	e8bd 87f0 	ldmia.w	sp!, {r4, r5, r6, r7, r8, r9, sl, pc}
 80003b2:	428b      	cmp	r3, r1
 80003b4:	d905      	bls.n	80003c2 <__udivmoddi4+0xba>
 80003b6:	b10d      	cbz	r5, 80003bc <__udivmoddi4+0xb4>
 80003b8:	e9c5 0100 	strd	r0, r1, [r5]
 80003bc:	2100      	movs	r1, #0
 80003be:	4608      	mov	r0, r1
 80003c0:	e7f5      	b.n	80003ae <__udivmoddi4+0xa6>
 80003c2:	fab3 f183 	clz	r1, r3
 80003c6:	2900      	cmp	r1, #0
 80003c8:	d146      	bne.n	8000458 <__udivmoddi4+0x150>
 80003ca:	42a3      	cmp	r3, r4
 80003cc:	d302      	bcc.n	80003d4 <__udivmoddi4+0xcc>
 80003ce:	4290      	cmp	r0, r2
 80003d0:	f0c0 80f0 	bcc.w	80005b4 <__udivmoddi4+0x2ac>
 80003d4:	1a86      	subs	r6, r0, r2
 80003d6:	eb64 0303 	sbc.w	r3, r4, r3
 80003da:	2001      	movs	r0, #1
 80003dc:	2d00      	cmp	r5, #0
 80003de:	d0e6      	beq.n	80003ae <__udivmoddi4+0xa6>
 80003e0:	e9c5 6300 	strd	r6, r3, [r5]
 80003e4:	e7e3      	b.n	80003ae <__udivmoddi4+0xa6>
 80003e6:	2a00      	cmp	r2, #0
 80003e8:	f040 8090 	bne.w	800050c <__udivmoddi4+0x204>
 80003ec:	eba1 040c 	sub.w	r4, r1, ip
 80003f0:	ea4f 481c 	mov.w	r8, ip, lsr #16
 80003f4:	fa1f f78c 	uxth.w	r7, ip
 80003f8:	2101      	movs	r1, #1
 80003fa:	fbb4 f6f8 	udiv	r6, r4, r8
 80003fe:	ea4f 431e 	mov.w	r3, lr, lsr #16
 8000402:	fb08 4416 	mls	r4, r8, r6, r4
 8000406:	ea43 4304 	orr.w	r3, r3, r4, lsl #16
 800040a:	fb07 f006 	mul.w	r0, r7, r6
 800040e:	4298      	cmp	r0, r3
 8000410:	d908      	bls.n	8000424 <__udivmoddi4+0x11c>
 8000412:	eb1c 0303 	adds.w	r3, ip, r3
 8000416:	f106 34ff 	add.w	r4, r6, #4294967295
 800041a:	d202      	bcs.n	8000422 <__udivmoddi4+0x11a>
 800041c:	4298      	cmp	r0, r3
 800041e:	f200 80cd 	bhi.w	80005bc <__udivmoddi4+0x2b4>
 8000422:	4626      	mov	r6, r4
 8000424:	1a1c      	subs	r4, r3, r0
 8000426:	fa1f f38e 	uxth.w	r3, lr
 800042a:	fbb4 f0f8 	udiv	r0, r4, r8
 800042e:	fb08 4410 	mls	r4, r8, r0, r4
 8000432:	ea43 4304 	orr.w	r3, r3, r4, lsl #16
 8000436:	fb00 f707 	mul.w	r7, r0, r7
 800043a:	429f      	cmp	r7, r3
 800043c:	d908      	bls.n	8000450 <__udivmoddi4+0x148>
 800043e:	eb1c 0303 	adds.w	r3, ip, r3
 8000442:	f100 34ff 	add.w	r4, r0, #4294967295
 8000446:	d202      	bcs.n	800044e <__udivmoddi4+0x146>
 8000448:	429f      	cmp	r7, r3
 800044a:	f200 80b0 	bhi.w	80005ae <__udivmoddi4+0x2a6>
 800044e:	4620      	mov	r0, r4
 8000450:	1bdb      	subs	r3, r3, r7
 8000452:	ea40 4006 	orr.w	r0, r0, r6, lsl #16
 8000456:	e7a5      	b.n	80003a4 <__udivmoddi4+0x9c>
 8000458:	f1c1 0620 	rsb	r6, r1, #32
 800045c:	408b      	lsls	r3, r1
 800045e:	fa22 f706 	lsr.w	r7, r2, r6
 8000462:	431f      	orrs	r7, r3
 8000464:	fa20 fc06 	lsr.w	ip, r0, r6
 8000468:	fa04 f301 	lsl.w	r3, r4, r1
 800046c:	ea43 030c 	orr.w	r3, r3, ip
 8000470:	40f4      	lsrs	r4, r6
 8000472:	fa00 f801 	lsl.w	r8, r0, r1
 8000476:	0c38      	lsrs	r0, r7, #16
 8000478:	ea4f 4913 	mov.w	r9, r3, lsr #16
 800047c:	fbb4 fef0 	udiv	lr, r4, r0
 8000480:	fa1f fc87 	uxth.w	ip, r7
 8000484:	fb00 441e 	mls	r4, r0, lr, r4
 8000488:	ea49 4404 	orr.w	r4, r9, r4, lsl #16
 800048c:	fb0e f90c 	mul.w	r9, lr, ip
 8000490:	45a1      	cmp	r9, r4
 8000492:	fa02 f201 	lsl.w	r2, r2, r1
 8000496:	d90a      	bls.n	80004ae <__udivmoddi4+0x1a6>
 8000498:	193c      	adds	r4, r7, r4
 800049a:	f10e 3aff 	add.w	sl, lr, #4294967295
 800049e:	f080 8084 	bcs.w	80005aa <__udivmoddi4+0x2a2>
 80004a2:	45a1      	cmp	r9, r4
 80004a4:	f240 8081 	bls.w	80005aa <__udivmoddi4+0x2a2>
 80004a8:	f1ae 0e02 	sub.w	lr, lr, #2
 80004ac:	443c      	add	r4, r7
 80004ae:	eba4 0409 	sub.w	r4, r4, r9
 80004b2:	fa1f f983 	uxth.w	r9, r3
 80004b6:	fbb4 f3f0 	udiv	r3, r4, r0
 80004ba:	fb00 4413 	mls	r4, r0, r3, r4
 80004be:	ea49 4404 	orr.w	r4, r9, r4, lsl #16
 80004c2:	fb03 fc0c 	mul.w	ip, r3, ip
 80004c6:	45a4      	cmp	ip, r4
 80004c8:	d907      	bls.n	80004da <__udivmoddi4+0x1d2>
 80004ca:	193c      	adds	r4, r7, r4
 80004cc:	f103 30ff 	add.w	r0, r3, #4294967295
 80004d0:	d267      	bcs.n	80005a2 <__udivmoddi4+0x29a>
 80004d2:	45a4      	cmp	ip, r4
 80004d4:	d965      	bls.n	80005a2 <__udivmoddi4+0x29a>
 80004d6:	3b02      	subs	r3, #2
 80004d8:	443c      	add	r4, r7
 80004da:	ea43 400e 	orr.w	r0, r3, lr, lsl #16
 80004de:	fba0 9302 	umull	r9, r3, r0, r2
 80004e2:	eba4 040c 	sub.w	r4, r4, ip
 80004e6:	429c      	cmp	r4, r3
 80004e8:	46ce      	mov	lr, r9
 80004ea:	469c      	mov	ip, r3
 80004ec:	d351      	bcc.n	8000592 <__udivmoddi4+0x28a>
 80004ee:	d04e      	beq.n	800058e <__udivmoddi4+0x286>
 80004f0:	b155      	cbz	r5, 8000508 <__udivmoddi4+0x200>
 80004f2:	ebb8 030e 	subs.w	r3, r8, lr
 80004f6:	eb64 040c 	sbc.w	r4, r4, ip
 80004fa:	fa04 f606 	lsl.w	r6, r4, r6
 80004fe:	40cb      	lsrs	r3, r1
 8000500:	431e      	orrs	r6, r3
 8000502:	40cc      	lsrs	r4, r1
 8000504:	e9c5 6400 	strd	r6, r4, [r5]
 8000508:	2100      	movs	r1, #0
 800050a:	e750      	b.n	80003ae <__udivmoddi4+0xa6>
 800050c:	f1c2 0320 	rsb	r3, r2, #32
 8000510:	fa20 f103 	lsr.w	r1, r0, r3
 8000514:	fa0c fc02 	lsl.w	ip, ip, r2
 8000518:	fa24 f303 	lsr.w	r3, r4, r3
 800051c:	4094      	lsls	r4, r2
 800051e:	430c      	orrs	r4, r1
 8000520:	ea4f 481c 	mov.w	r8, ip, lsr #16
 8000524:	fa00 fe02 	lsl.w	lr, r0, r2
 8000528:	fa1f f78c 	uxth.w	r7, ip
 800052c:	fbb3 f0f8 	udiv	r0, r3, r8
 8000530:	fb08 3110 	mls	r1, r8, r0, r3
 8000534:	0c23      	lsrs	r3, r4, #16
 8000536:	ea43 4301 	orr.w	r3, r3, r1, lsl #16
 800053a:	fb00 f107 	mul.w	r1, r0, r7
 800053e:	4299      	cmp	r1, r3
 8000540:	d908      	bls.n	8000554 <__udivmoddi4+0x24c>
 8000542:	eb1c 0303 	adds.w	r3, ip, r3
 8000546:	f100 36ff 	add.w	r6, r0, #4294967295
 800054a:	d22c      	bcs.n	80005a6 <__udivmoddi4+0x29e>
 800054c:	4299      	cmp	r1, r3
 800054e:	d92a      	bls.n	80005a6 <__udivmoddi4+0x29e>
 8000550:	3802      	subs	r0, #2
 8000552:	4463      	add	r3, ip
 8000554:	1a5b      	subs	r3, r3, r1
 8000556:	b2a4      	uxth	r4, r4
 8000558:	fbb3 f1f8 	udiv	r1, r3, r8
 800055c:	fb08 3311 	mls	r3, r8, r1, r3
 8000560:	ea44 4403 	orr.w	r4, r4, r3, lsl #16
 8000564:	fb01 f307 	mul.w	r3, r1, r7
 8000568:	42a3      	cmp	r3, r4
 800056a:	d908      	bls.n	800057e <__udivmoddi4+0x276>
 800056c:	eb1c 0404 	adds.w	r4, ip, r4
 8000570:	f101 36ff 	add.w	r6, r1, #4294967295
 8000574:	d213      	bcs.n	800059e <__udivmoddi4+0x296>
 8000576:	42a3      	cmp	r3, r4
 8000578:	d911      	bls.n	800059e <__udivmoddi4+0x296>
 800057a:	3902      	subs	r1, #2
 800057c:	4464      	add	r4, ip
 800057e:	1ae4      	subs	r4, r4, r3
 8000580:	ea41 4100 	orr.w	r1, r1, r0, lsl #16
 8000584:	e739      	b.n	80003fa <__udivmoddi4+0xf2>
 8000586:	4604      	mov	r4, r0
 8000588:	e6f0      	b.n	800036c <__udivmoddi4+0x64>
 800058a:	4608      	mov	r0, r1
 800058c:	e706      	b.n	800039c <__udivmoddi4+0x94>
 800058e:	45c8      	cmp	r8, r9
 8000590:	d2ae      	bcs.n	80004f0 <__udivmoddi4+0x1e8>
 8000592:	ebb9 0e02 	subs.w	lr, r9, r2
 8000596:	eb63 0c07 	sbc.w	ip, r3, r7
 800059a:	3801      	subs	r0, #1
 800059c:	e7a8      	b.n	80004f0 <__udivmoddi4+0x1e8>
 800059e:	4631      	mov	r1, r6
 80005a0:	e7ed      	b.n	800057e <__udivmoddi4+0x276>
 80005a2:	4603      	mov	r3, r0
 80005a4:	e799      	b.n	80004da <__udivmoddi4+0x1d2>
 80005a6:	4630      	mov	r0, r6
 80005a8:	e7d4      	b.n	8000554 <__udivmoddi4+0x24c>
 80005aa:	46d6      	mov	lr, sl
 80005ac:	e77f      	b.n	80004ae <__udivmoddi4+0x1a6>
 80005ae:	4463      	add	r3, ip
 80005b0:	3802      	subs	r0, #2
 80005b2:	e74d      	b.n	8000450 <__udivmoddi4+0x148>
 80005b4:	4606      	mov	r6, r0
 80005b6:	4623      	mov	r3, r4
 80005b8:	4608      	mov	r0, r1
 80005ba:	e70f      	b.n	80003dc <__udivmoddi4+0xd4>
 80005bc:	3e02      	subs	r6, #2
 80005be:	4463      	add	r3, ip
 80005c0:	e730      	b.n	8000424 <__udivmoddi4+0x11c>
 80005c2:	bf00      	nop

080005c4 <__aeabi_idiv0>:
 80005c4:	4770      	bx	lr
 80005c6:	bf00      	nop

080005c8 <HAL_ADC_ConvCpltCallback>:
 80005c8:	4b35      	ldr	r3, [pc, #212]	@ (80006a0 <HAL_ADC_ConvCpltCallback+0xd8>)
 80005ca:	885a      	ldrh	r2, [r3, #2]
 80005cc:	ee04 2a10 	vmov	s8, r2
 80005d0:	889a      	ldrh	r2, [r3, #4]
 80005d2:	ee05 2a10 	vmov	s10, r2
 80005d6:	88da      	ldrh	r2, [r3, #6]
 80005d8:	881b      	ldrh	r3, [r3, #0]
 80005da:	eeb8 4b44 	vcvt.f64.u32	d4, s8
 80005de:	ee06 2a10 	vmov	s12, r2
 80005e2:	eeb8 5b45 	vcvt.f64.u32	d5, s10
 80005e6:	ee02 3a10 	vmov	s4, r3
 80005ea:	4b2e      	ldr	r3, [pc, #184]	@ (80006a4 <HAL_ADC_ConvCpltCallback+0xdc>)
 80005ec:	eeb8 6b46 	vcvt.f64.u32	d6, s12
 80005f0:	eeb8 2b42 	vcvt.f64.u32	d2, s4
 80005f4:	ed9f 7b1e 	vldr	d7, [pc, #120]	@ 8000670 <HAL_ADC_ConvCpltCallback+0xa8>
 80005f8:	ed9f 3b1f 	vldr	d3, [pc, #124]	@ 8000678 <HAL_ADC_ConvCpltCallback+0xb0>
 80005fc:	ee24 4b07 	vmul.f64	d4, d4, d7
 8000600:	ee25 5b07 	vmul.f64	d5, d5, d7
 8000604:	ee26 6b07 	vmul.f64	d6, d6, d7
 8000608:	ee27 7b42 	vnmul.f64	d7, d7, d2
 800060c:	ee24 4b03 	vmul.f64	d4, d4, d3
 8000610:	ee25 5b03 	vmul.f64	d5, d5, d3
 8000614:	ee26 6b03 	vmul.f64	d6, d6, d3
 8000618:	ed9f 2b19 	vldr	d2, [pc, #100]	@ 8000680 <HAL_ADC_ConvCpltCallback+0xb8>
 800061c:	eeb0 1b42 	vmov.f64	d1, d2
 8000620:	eea7 1b03 	vfma.f64	d1, d7, d3
 8000624:	ed9f 3b18 	vldr	d3, [pc, #96]	@ 8000688 <HAL_ADC_ConvCpltCallback+0xc0>
 8000628:	ee81 7b03 	vdiv.f64	d7, d1, d3
 800062c:	ed9f 3b18 	vldr	d3, [pc, #96]	@ 8000690 <HAL_ADC_ConvCpltCallback+0xc8>
 8000630:	ee37 7b02 	vadd.f64	d7, d7, d2
 8000634:	ee87 2b03 	vdiv.f64	d2, d7, d3
 8000638:	eeb8 7b04 	vmov.f64	d7, #132	@ 0xc0200000 -2.5
 800063c:	ed9f 3b16 	vldr	d3, [pc, #88]	@ 8000698 <HAL_ADC_ConvCpltCallback+0xd0>
 8000640:	eea2 7b03 	vfma.f64	d7, d2, d3
 8000644:	eeb2 3b04 	vmov.f64	d3, #36	@ 0x41200000  10.0
 8000648:	ee24 4b03 	vmul.f64	d4, d4, d3
 800064c:	ee27 7b03 	vmul.f64	d7, d7, d3
 8000650:	ee25 5b03 	vmul.f64	d5, d5, d3
 8000654:	ee26 6b03 	vmul.f64	d6, d6, d3
 8000658:	ed83 7b00 	vstr	d7, [r3]
 800065c:	4b12      	ldr	r3, [pc, #72]	@ (80006a8 <HAL_ADC_ConvCpltCallback+0xe0>)
 800065e:	ed83 4b00 	vstr	d4, [r3]
 8000662:	4b12      	ldr	r3, [pc, #72]	@ (80006ac <HAL_ADC_ConvCpltCallback+0xe4>)
 8000664:	ed83 5b00 	vstr	d5, [r3]
 8000668:	4b11      	ldr	r3, [pc, #68]	@ (80006b0 <HAL_ADC_ConvCpltCallback+0xe8>)
 800066a:	ed83 6b00 	vstr	d6, [r3]
 800066e:	4770      	bx	lr
 8000670:	00000000 	.word	0x00000000
 8000674:	3ef00000 	.word	0x3ef00000
 8000678:	60000000 	.word	0x60000000
 800067c:	400a6666 	.word	0x400a6666
 8000680:	e147ae14 	.word	0xe147ae14
 8000684:	3ff6147a 	.word	0x3ff6147a
 8000688:	66666666 	.word	0x66666666
 800068c:	3fe66666 	.word	0x3fe66666
 8000690:	66666666 	.word	0x66666666
 8000694:	400a6666 	.word	0x400a6666
 8000698:	33333333 	.word	0x33333333
 800069c:	40113333 	.word	0x40113333
 80006a0:	24000508 	.word	0x24000508
 80006a4:	24000500 	.word	0x24000500
 80006a8:	240004f8 	.word	0x240004f8
 80006ac:	240004f0 	.word	0x240004f0
 80006b0:	240004e8 	.word	0x240004e8

080006b4 <adc_get_value>:
 80006b4:	2204      	movs	r2, #4
 80006b6:	4902      	ldr	r1, [pc, #8]	@ (80006c0 <adc_get_value+0xc>)
 80006b8:	4802      	ldr	r0, [pc, #8]	@ (80006c4 <adc_get_value+0x10>)
 80006ba:	f001 bc55 	b.w	8001f68 <HAL_ADC_Start_DMA>
 80006be:	bf00      	nop
 80006c0:	24000508 	.word	0x24000508
 80006c4:	2400047c 	.word	0x2400047c

080006c8 <EEPROM_WriteByte>:
 80006c8:	283f      	cmp	r0, #63	@ 0x3f
 80006ca:	b513      	push	{r0, r1, r4, lr}
 80006cc:	d817      	bhi.n	80006fe <EEPROM_WriteByte+0x36>
 80006ce:	290f      	cmp	r1, #15
 80006d0:	d815      	bhi.n	80006fe <EEPROM_WriteByte+0x36>
 80006d2:	b1a3      	cbz	r3, 80006fe <EEPROM_WriteByte+0x36>
 80006d4:	18cc      	adds	r4, r1, r3
 80006d6:	eb01 1000 	add.w	r0, r1, r0, lsl #4
 80006da:	2c10      	cmp	r4, #16
 80006dc:	bfc8      	it	gt
 80006de:	f1c1 0310 	rsbgt	r3, r1, #16
 80006e2:	f3c0 2107 	ubfx	r1, r0, #8, #8
 80006e6:	bfc8      	it	gt
 80006e8:	b29b      	uxthgt	r3, r3
 80006ea:	f041 0150 	orr.w	r1, r1, #80	@ 0x50
 80006ee:	e9cd 2300 	strd	r2, r3, [sp]
 80006f2:	2301      	movs	r3, #1
 80006f4:	b2c2      	uxtb	r2, r0
 80006f6:	4803      	ldr	r0, [pc, #12]	@ (8000704 <EEPROM_WriteByte+0x3c>)
 80006f8:	4099      	lsls	r1, r3
 80006fa:	f003 fa9f 	bl	8003c3c <HAL_I2C_Mem_Write_DMA>
 80006fe:	b002      	add	sp, #8
 8000700:	bd10      	pop	{r4, pc}
 8000702:	bf00      	nop
 8000704:	240003b0 	.word	0x240003b0

08000708 <enable_bypass>:
 8000708:	2201      	movs	r2, #1
 800070a:	2140      	movs	r1, #64	@ 0x40
 800070c:	4801      	ldr	r0, [pc, #4]	@ (8000714 <enable_bypass+0xc>)
 800070e:	f003 b9a9 	b.w	8003a64 <HAL_GPIO_WritePin>
 8000712:	bf00      	nop
 8000714:	58020000 	.word	0x58020000

08000718 <SystemClock_Config>:
 8000718:	b530      	push	{r4, r5, lr}
 800071a:	b09d      	sub	sp, #116	@ 0x74
 800071c:	224c      	movs	r2, #76	@ 0x4c
 800071e:	2100      	movs	r1, #0
 8000720:	a809      	add	r0, sp, #36	@ 0x24
 8000722:	f007 fa25 	bl	8007b70 <memset>
 8000726:	2220      	movs	r2, #32
 8000728:	2100      	movs	r1, #0
 800072a:	a801      	add	r0, sp, #4
 800072c:	f007 fa20 	bl	8007b70 <memset>
 8000730:	2002      	movs	r0, #2
 8000732:	f004 f991 	bl	8004a58 <HAL_PWREx_ConfigSupply>
 8000736:	2300      	movs	r3, #0
 8000738:	9300      	str	r3, [sp, #0]
 800073a:	4b24      	ldr	r3, [pc, #144]	@ (80007cc <SystemClock_Config+0xb4>)
 800073c:	6ada      	ldr	r2, [r3, #44]	@ 0x2c
 800073e:	f022 0201 	bic.w	r2, r2, #1
 8000742:	62da      	str	r2, [r3, #44]	@ 0x2c
 8000744:	6adb      	ldr	r3, [r3, #44]	@ 0x2c
 8000746:	4a22      	ldr	r2, [pc, #136]	@ (80007d0 <SystemClock_Config+0xb8>)
 8000748:	f003 0301 	and.w	r3, r3, #1
 800074c:	9300      	str	r3, [sp, #0]
 800074e:	6993      	ldr	r3, [r2, #24]
 8000750:	f423 4340 	bic.w	r3, r3, #49152	@ 0xc000
 8000754:	f443 4380 	orr.w	r3, r3, #16384	@ 0x4000
 8000758:	6193      	str	r3, [r2, #24]
 800075a:	6993      	ldr	r3, [r2, #24]
 800075c:	f403 4340 	and.w	r3, r3, #49152	@ 0xc000
 8000760:	9300      	str	r3, [sp, #0]
 8000762:	9b00      	ldr	r3, [sp, #0]
 8000764:	6993      	ldr	r3, [r2, #24]
 8000766:	0499      	lsls	r1, r3, #18
 8000768:	d5fc      	bpl.n	8000764 <SystemClock_Config+0x4c>
 800076a:	2201      	movs	r2, #1
 800076c:	2540      	movs	r5, #64	@ 0x40
 800076e:	2104      	movs	r1, #4
 8000770:	2302      	movs	r3, #2
 8000772:	2403      	movs	r4, #3
 8000774:	a809      	add	r0, sp, #36	@ 0x24
 8000776:	9309      	str	r3, [sp, #36]	@ 0x24
 8000778:	9312      	str	r3, [sp, #72]	@ 0x48
 800077a:	e9cd 250c 	strd	r2, r5, [sp, #48]	@ 0x30
 800077e:	2200      	movs	r2, #0
 8000780:	e9cd 2113 	strd	r2, r1, [sp, #76]	@ 0x4c
 8000784:	2112      	movs	r1, #18
 8000786:	921b      	str	r2, [sp, #108]	@ 0x6c
 8000788:	e9cd 1315 	strd	r1, r3, [sp, #84]	@ 0x54
 800078c:	e9cd 4317 	strd	r4, r3, [sp, #92]	@ 0x5c
 8000790:	230c      	movs	r3, #12
 8000792:	e9cd 3219 	strd	r3, r2, [sp, #100]	@ 0x64
 8000796:	f004 f983 	bl	8004aa0 <HAL_RCC_OscConfig>
 800079a:	b108      	cbz	r0, 80007a0 <SystemClock_Config+0x88>
 800079c:	b672      	cpsid	i
 800079e:	e7fe      	b.n	800079e <SystemClock_Config+0x86>
 80007a0:	233f      	movs	r3, #63	@ 0x3f
 80007a2:	2250      	movs	r2, #80	@ 0x50
 80007a4:	4621      	mov	r1, r4
 80007a6:	9505      	str	r5, [sp, #20]
 80007a8:	9508      	str	r5, [sp, #32]
 80007aa:	e9cd 3401 	strd	r3, r4, [sp, #4]
 80007ae:	f44f 63c0 	mov.w	r3, #1536	@ 0x600
 80007b2:	e9cd 0003 	strd	r0, r0, [sp, #12]
 80007b6:	a801      	add	r0, sp, #4
 80007b8:	e9cd 2306 	strd	r2, r3, [sp, #24]
 80007bc:	f004 fcbe 	bl	800513c <HAL_RCC_ClockConfig>
 80007c0:	b108      	cbz	r0, 80007c6 <SystemClock_Config+0xae>
 80007c2:	b672      	cpsid	i
 80007c4:	e7fe      	b.n	80007c4 <SystemClock_Config+0xac>
 80007c6:	b01d      	add	sp, #116	@ 0x74
 80007c8:	bd30      	pop	{r4, r5, pc}
 80007ca:	bf00      	nop
 80007cc:	58000400 	.word	0x58000400
 80007d0:	58024800 	.word	0x58024800
 80007d4:	00000000 	.word	0x00000000

080007d8 <main>:
 80007d8:	b570      	push	{r4, r5, r6, lr}
 80007da:	ed2d 8b02 	vpush	{d8}
 80007de:	b09e      	sub	sp, #120	@ 0x78
 80007e0:	2210      	movs	r2, #16
 80007e2:	2100      	movs	r1, #0
 80007e4:	2400      	movs	r4, #0
 80007e6:	a816      	add	r0, sp, #88	@ 0x58
 80007e8:	2601      	movs	r6, #1
 80007ea:	f007 f9c1 	bl	8007b70 <memset>
 80007ee:	4db3      	ldr	r5, [pc, #716]	@ (8000abc <main+0x2e4>)
 80007f0:	f001 feb8 	bl	8002564 <HAL_MPU_Disable>
 80007f4:	f248 731f 	movw	r3, #34591	@ 0x871f
 80007f8:	a816      	add	r0, sp, #88	@ 0x58
 80007fa:	f8ad 6058 	strh.w	r6, [sp, #88]	@ 0x58
 80007fe:	e9cd 4317 	strd	r4, r3, [sp, #92]	@ 0x5c
 8000802:	f240 1301 	movw	r3, #257	@ 0x101
 8000806:	9319      	str	r3, [sp, #100]	@ 0x64
 8000808:	f001 feca 	bl	80025a0 <HAL_MPU_ConfigRegion>
 800080c:	2004      	movs	r0, #4
 800080e:	f001 feb7 	bl	8002580 <HAL_MPU_Enable>
 8000812:	f001 f8cb 	bl	80019ac <HAL_Init>
 8000816:	f7ff ff7f 	bl	8000718 <SystemClock_Config>
 800081a:	2214      	movs	r2, #20
 800081c:	4621      	mov	r1, r4
 800081e:	a816      	add	r0, sp, #88	@ 0x58
 8000820:	f007 f9a6 	bl	8007b70 <memset>
 8000824:	f8d5 30e0 	ldr.w	r3, [r5, #224]	@ 0xe0
 8000828:	4622      	mov	r2, r4
 800082a:	f248 0140 	movw	r1, #32832	@ 0x8040
 800082e:	f043 0304 	orr.w	r3, r3, #4
 8000832:	48a3      	ldr	r0, [pc, #652]	@ (8000ac0 <main+0x2e8>)
 8000834:	f8c5 30e0 	str.w	r3, [r5, #224]	@ 0xe0
 8000838:	f8d5 30e0 	ldr.w	r3, [r5, #224]	@ 0xe0
 800083c:	f003 0304 	and.w	r3, r3, #4
 8000840:	930a      	str	r3, [sp, #40]	@ 0x28
 8000842:	9b0a      	ldr	r3, [sp, #40]	@ 0x28
 8000844:	f8d5 30e0 	ldr.w	r3, [r5, #224]	@ 0xe0
 8000848:	f043 0380 	orr.w	r3, r3, #128	@ 0x80
 800084c:	f8c5 30e0 	str.w	r3, [r5, #224]	@ 0xe0
 8000850:	f8d5 30e0 	ldr.w	r3, [r5, #224]	@ 0xe0
 8000854:	f003 0380 	and.w	r3, r3, #128	@ 0x80
 8000858:	930b      	str	r3, [sp, #44]	@ 0x2c
 800085a:	9b0b      	ldr	r3, [sp, #44]	@ 0x2c
 800085c:	f8d5 30e0 	ldr.w	r3, [r5, #224]	@ 0xe0
 8000860:	4333      	orrs	r3, r6
 8000862:	f8c5 30e0 	str.w	r3, [r5, #224]	@ 0xe0
 8000866:	f8d5 30e0 	ldr.w	r3, [r5, #224]	@ 0xe0
 800086a:	4033      	ands	r3, r6
 800086c:	930c      	str	r3, [sp, #48]	@ 0x30
 800086e:	9b0c      	ldr	r3, [sp, #48]	@ 0x30
 8000870:	f8d5 30e0 	ldr.w	r3, [r5, #224]	@ 0xe0
 8000874:	f043 0308 	orr.w	r3, r3, #8
 8000878:	f8c5 30e0 	str.w	r3, [r5, #224]	@ 0xe0
 800087c:	f8d5 30e0 	ldr.w	r3, [r5, #224]	@ 0xe0
 8000880:	f003 0308 	and.w	r3, r3, #8
 8000884:	930d      	str	r3, [sp, #52]	@ 0x34
 8000886:	9b0d      	ldr	r3, [sp, #52]	@ 0x34
 8000888:	f8d5 30e0 	ldr.w	r3, [r5, #224]	@ 0xe0
 800088c:	f043 0302 	orr.w	r3, r3, #2
 8000890:	f8c5 30e0 	str.w	r3, [r5, #224]	@ 0xe0
 8000894:	f8d5 30e0 	ldr.w	r3, [r5, #224]	@ 0xe0
 8000898:	f003 0302 	and.w	r3, r3, #2
 800089c:	930e      	str	r3, [sp, #56]	@ 0x38
 800089e:	9b0e      	ldr	r3, [sp, #56]	@ 0x38
 80008a0:	f8d5 30e0 	ldr.w	r3, [r5, #224]	@ 0xe0
 80008a4:	f043 0310 	orr.w	r3, r3, #16
 80008a8:	f8c5 30e0 	str.w	r3, [r5, #224]	@ 0xe0
 80008ac:	f8d5 30e0 	ldr.w	r3, [r5, #224]	@ 0xe0
 80008b0:	f003 0310 	and.w	r3, r3, #16
 80008b4:	930f      	str	r3, [sp, #60]	@ 0x3c
 80008b6:	9b0f      	ldr	r3, [sp, #60]	@ 0x3c
 80008b8:	f003 f8d4 	bl	8003a64 <HAL_GPIO_WritePin>
 80008bc:	4622      	mov	r2, r4
 80008be:	f24f 0111 	movw	r1, #61457	@ 0xf011
 80008c2:	4880      	ldr	r0, [pc, #512]	@ (8000ac4 <main+0x2ec>)
 80008c4:	f003 f8ce 	bl	8003a64 <HAL_GPIO_WritePin>
 80008c8:	4622      	mov	r2, r4
 80008ca:	f44f 7100 	mov.w	r1, #512	@ 0x200
 80008ce:	487e      	ldr	r0, [pc, #504]	@ (8000ac8 <main+0x2f0>)
 80008d0:	f003 f8c8 	bl	8003a64 <HAL_GPIO_WritePin>
 80008d4:	4622      	mov	r2, r4
 80008d6:	4631      	mov	r1, r6
 80008d8:	487c      	ldr	r0, [pc, #496]	@ (8000acc <main+0x2f4>)
 80008da:	f003 f8c3 	bl	8003a64 <HAL_GPIO_WritePin>
 80008de:	f248 0340 	movw	r3, #32832	@ 0x8040
 80008e2:	a916      	add	r1, sp, #88	@ 0x58
 80008e4:	4876      	ldr	r0, [pc, #472]	@ (8000ac0 <main+0x2e8>)
 80008e6:	e9cd 3616 	strd	r3, r6, [sp, #88]	@ 0x58
 80008ea:	e9cd 4418 	strd	r4, r4, [sp, #96]	@ 0x60
 80008ee:	f002 ffd1 	bl	8003894 <HAL_GPIO_Init>
 80008f2:	f24f 0311 	movw	r3, #61457	@ 0xf011
 80008f6:	a916      	add	r1, sp, #88	@ 0x58
 80008f8:	4872      	ldr	r0, [pc, #456]	@ (8000ac4 <main+0x2ec>)
 80008fa:	e9cd 3616 	strd	r3, r6, [sp, #88]	@ 0x58
 80008fe:	e9cd 4418 	strd	r4, r4, [sp, #96]	@ 0x60
 8000902:	f002 ffc7 	bl	8003894 <HAL_GPIO_Init>
 8000906:	f44f 5cc0 	mov.w	ip, #6144	@ 0x1800
 800090a:	2302      	movs	r3, #2
 800090c:	a916      	add	r1, sp, #88	@ 0x58
 800090e:	486c      	ldr	r0, [pc, #432]	@ (8000ac0 <main+0x2e8>)
 8000910:	e9cd c316 	strd	ip, r3, [sp, #88]	@ 0x58
 8000914:	2309      	movs	r3, #9
 8000916:	e9cd 4418 	strd	r4, r4, [sp, #96]	@ 0x60
 800091a:	931a      	str	r3, [sp, #104]	@ 0x68
 800091c:	f002 ffba 	bl	8003894 <HAL_GPIO_Init>
 8000920:	f44f 7300 	mov.w	r3, #512	@ 0x200
 8000924:	a916      	add	r1, sp, #88	@ 0x58
 8000926:	4868      	ldr	r0, [pc, #416]	@ (8000ac8 <main+0x2f0>)
 8000928:	e9cd 3616 	strd	r3, r6, [sp, #88]	@ 0x58
 800092c:	e9cd 4418 	strd	r4, r4, [sp, #96]	@ 0x60
 8000930:	f002 ffb0 	bl	8003894 <HAL_GPIO_Init>
 8000934:	a916      	add	r1, sp, #88	@ 0x58
 8000936:	4865      	ldr	r0, [pc, #404]	@ (8000acc <main+0x2f4>)
 8000938:	e9cd 6616 	strd	r6, r6, [sp, #88]	@ 0x58
 800093c:	e9cd 4418 	strd	r4, r4, [sp, #96]	@ 0x60
 8000940:	f002 ffa8 	bl	8003894 <HAL_GPIO_Init>
 8000944:	f8d5 30d8 	ldr.w	r3, [r5, #216]	@ 0xd8
 8000948:	4622      	mov	r2, r4
 800094a:	4621      	mov	r1, r4
 800094c:	4333      	orrs	r3, r6
 800094e:	200b      	movs	r0, #11
 8000950:	f8c5 30d8 	str.w	r3, [r5, #216]	@ 0xd8
 8000954:	f8d5 30d8 	ldr.w	r3, [r5, #216]	@ 0xd8
 8000958:	4d5d      	ldr	r5, [pc, #372]	@ (8000ad0 <main+0x2f8>)
 800095a:	4033      	ands	r3, r6
 800095c:	9309      	str	r3, [sp, #36]	@ 0x24
 800095e:	9b09      	ldr	r3, [sp, #36]	@ 0x24
 8000960:	f001 fdac 	bl	80024bc <HAL_NVIC_SetPriority>
 8000964:	200b      	movs	r0, #11
 8000966:	f001 fddb 	bl	8002520 <HAL_NVIC_EnableIRQ>
 800096a:	4622      	mov	r2, r4
 800096c:	4621      	mov	r1, r4
 800096e:	200c      	movs	r0, #12
 8000970:	f001 fda4 	bl	80024bc <HAL_NVIC_SetPriority>
 8000974:	200c      	movs	r0, #12
 8000976:	f001 fdd3 	bl	8002520 <HAL_NVIC_EnableIRQ>
 800097a:	4622      	mov	r2, r4
 800097c:	4621      	mov	r1, r4
 800097e:	200d      	movs	r0, #13
 8000980:	f001 fd9c 	bl	80024bc <HAL_NVIC_SetPriority>
 8000984:	200d      	movs	r0, #13
 8000986:	f001 fdcb 	bl	8002520 <HAL_NVIC_EnableIRQ>
 800098a:	2210      	movs	r2, #16
 800098c:	4621      	mov	r1, r4
 800098e:	a816      	add	r0, sp, #88	@ 0x58
 8000990:	f007 f8ee 	bl	8007b70 <memset>
 8000994:	4b4f      	ldr	r3, [pc, #316]	@ (8000ad4 <main+0x2fc>)
 8000996:	4628      	mov	r0, r5
 8000998:	9414      	str	r4, [sp, #80]	@ 0x50
 800099a:	60ac      	str	r4, [r5, #8]
 800099c:	61ac      	str	r4, [r5, #24]
 800099e:	e9c5 3400 	strd	r3, r4, [r5]
 80009a2:	23b2      	movs	r3, #178	@ 0xb2
 80009a4:	e9cd 4412 	strd	r4, r4, [sp, #72]	@ 0x48
 80009a8:	e9c5 3403 	strd	r3, r4, [r5, #12]
 80009ac:	f006 fa2e 	bl	8006e0c <HAL_TIM_Base_Init>
 80009b0:	b108      	cbz	r0, 80009b6 <main+0x1de>
 80009b2:	b672      	cpsid	i
 80009b4:	e7fe      	b.n	80009b4 <main+0x1dc>
 80009b6:	f44f 5380 	mov.w	r3, #4096	@ 0x1000
 80009ba:	a916      	add	r1, sp, #88	@ 0x58
 80009bc:	4628      	mov	r0, r5
 80009be:	9316      	str	r3, [sp, #88]	@ 0x58
 80009c0:	f006 fa5e 	bl	8006e80 <HAL_TIM_ConfigClockSource>
 80009c4:	b108      	cbz	r0, 80009ca <main+0x1f2>
 80009c6:	b672      	cpsid	i
 80009c8:	e7fe      	b.n	80009c8 <main+0x1f0>
 80009ca:	9012      	str	r0, [sp, #72]	@ 0x48
 80009cc:	a912      	add	r1, sp, #72	@ 0x48
 80009ce:	9014      	str	r0, [sp, #80]	@ 0x50
 80009d0:	4628      	mov	r0, r5
 80009d2:	f006 fb0f 	bl	8006ff4 <HAL_TIMEx_MasterConfigSynchronization>
 80009d6:	b108      	cbz	r0, 80009dc <main+0x204>
 80009d8:	b672      	cpsid	i
 80009da:	e7fe      	b.n	80009da <main+0x202>
 80009dc:	4c3e      	ldr	r4, [pc, #248]	@ (8000ad8 <main+0x300>)
 80009de:	f44f 33e1 	mov.w	r3, #115200	@ 0x1c200
 80009e2:	4d3e      	ldr	r5, [pc, #248]	@ (8000adc <main+0x304>)
 80009e4:	6120      	str	r0, [r4, #16]
 80009e6:	e9c4 5300 	strd	r5, r3, [r4]
 80009ea:	230c      	movs	r3, #12
 80009ec:	e9c4 0002 	strd	r0, r0, [r4, #8]
 80009f0:	e9c4 3005 	strd	r3, r0, [r4, #20]
 80009f4:	e9c4 0007 	strd	r0, r0, [r4, #28]
 80009f8:	e9c4 0009 	strd	r0, r0, [r4, #36]	@ 0x24
 80009fc:	4620      	mov	r0, r4
 80009fe:	f007 f806 	bl	8007a0e <HAL_UART_Init>
 8000a02:	4601      	mov	r1, r0
 8000a04:	b108      	cbz	r0, 8000a0a <main+0x232>
 8000a06:	b672      	cpsid	i
 8000a08:	e7fe      	b.n	8000a08 <main+0x230>
 8000a0a:	4620      	mov	r0, r4
 8000a0c:	f007 f870 	bl	8007af0 <HAL_UARTEx_SetTxFifoThreshold>
 8000a10:	4601      	mov	r1, r0
 8000a12:	b108      	cbz	r0, 8000a18 <main+0x240>
 8000a14:	b672      	cpsid	i
 8000a16:	e7fe      	b.n	8000a16 <main+0x23e>
 8000a18:	4620      	mov	r0, r4
 8000a1a:	f007 f889 	bl	8007b30 <HAL_UARTEx_SetRxFifoThreshold>
 8000a1e:	b108      	cbz	r0, 8000a24 <main+0x24c>
 8000a20:	b672      	cpsid	i
 8000a22:	e7fe      	b.n	8000a22 <main+0x24a>
 8000a24:	4620      	mov	r0, r4
 8000a26:	f007 f848 	bl	8007aba <HAL_UARTEx_DisableFifoMode>
 8000a2a:	b108      	cbz	r0, 8000a30 <main+0x258>
 8000a2c:	b672      	cpsid	i
 8000a2e:	e7fe      	b.n	8000a2e <main+0x256>
 8000a30:	4c2b      	ldr	r4, [pc, #172]	@ (8000ae0 <main+0x308>)
 8000a32:	492c      	ldr	r1, [pc, #176]	@ (8000ae4 <main+0x30c>)
 8000a34:	4b2c      	ldr	r3, [pc, #176]	@ (8000ae8 <main+0x310>)
 8000a36:	6220      	str	r0, [r4, #32]
 8000a38:	e9c4 0602 	strd	r0, r6, [r4, #8]
 8000a3c:	e9c4 0004 	strd	r0, r0, [r4, #16]
 8000a40:	e9c4 0006 	strd	r0, r0, [r4, #24]
 8000a44:	4620      	mov	r0, r4
 8000a46:	e9c4 1300 	strd	r1, r3, [r4]
 8000a4a:	f003 f8a2 	bl	8003b92 <HAL_I2C_Init>
 8000a4e:	4601      	mov	r1, r0
 8000a50:	b108      	cbz	r0, 8000a56 <main+0x27e>
 8000a52:	b672      	cpsid	i
 8000a54:	e7fe      	b.n	8000a54 <main+0x27c>
 8000a56:	4620      	mov	r0, r4
 8000a58:	f003 ffb2 	bl	80049c0 <HAL_I2CEx_ConfigAnalogFilter>
 8000a5c:	4601      	mov	r1, r0
 8000a5e:	b108      	cbz	r0, 8000a64 <main+0x28c>
 8000a60:	b672      	cpsid	i
 8000a62:	e7fe      	b.n	8000a62 <main+0x28a>
 8000a64:	4620      	mov	r0, r4
 8000a66:	f003 ffd1 	bl	8004a0c <HAL_I2CEx_ConfigDigitalFilter>
 8000a6a:	b108      	cbz	r0, 8000a70 <main+0x298>
 8000a6c:	b672      	cpsid	i
 8000a6e:	e7fe      	b.n	8000a6e <main+0x296>
 8000a70:	481e      	ldr	r0, [pc, #120]	@ (8000aec <main+0x314>)
 8000a72:	f44f 0380 	mov.w	r3, #4194304	@ 0x400000
 8000a76:	4a1e      	ldr	r2, [pc, #120]	@ (8000af0 <main+0x318>)
 8000a78:	e9c0 2300 	strd	r2, r3, [r0]
 8000a7c:	2300      	movs	r3, #0
 8000a7e:	2203      	movs	r2, #3
 8000a80:	e9c0 3202 	strd	r3, r2, [r0, #8]
 8000a84:	f04f 6280 	mov.w	r2, #67108864	@ 0x4000000
 8000a88:	e9c0 2306 	strd	r2, r3, [r0, #24]
 8000a8c:	f04f 4280 	mov.w	r2, #1073741824	@ 0x40000000
 8000a90:	e9c0 3304 	strd	r3, r3, [r0, #16]
 8000a94:	e9c0 3308 	strd	r3, r3, [r0, #32]
 8000a98:	e9c0 330a 	strd	r3, r3, [r0, #40]	@ 0x28
 8000a9c:	e9c0 230d 	strd	r2, r3, [r0, #52]	@ 0x34
 8000aa0:	e9c0 330f 	strd	r3, r3, [r0, #60]	@ 0x3c
 8000aa4:	e9c0 3311 	strd	r3, r3, [r0, #68]	@ 0x44
 8000aa8:	e9c0 3313 	strd	r3, r3, [r0, #76]	@ 0x4c
 8000aac:	e9c0 3315 	strd	r3, r3, [r0, #84]	@ 0x54
 8000ab0:	f005 fe6a 	bl	8006788 <HAL_SPI_Init>
 8000ab4:	4605      	mov	r5, r0
 8000ab6:	b1e8      	cbz	r0, 8000af4 <main+0x31c>
 8000ab8:	b672      	cpsid	i
 8000aba:	e7fe      	b.n	8000aba <main+0x2e2>
 8000abc:	58024400 	.word	0x58024400
 8000ac0:	58020000 	.word	0x58020000
 8000ac4:	58020c00 	.word	0x58020c00
 8000ac8:	58020400 	.word	0x58020400
 8000acc:	58021000 	.word	0x58021000
 8000ad0:	24000154 	.word	0x24000154
 8000ad4:	40000800 	.word	0x40000800
 8000ad8:	2400002c 	.word	0x2400002c
 8000adc:	40004400 	.word	0x40004400
 8000ae0:	240003b0 	.word	0x240003b0
 8000ae4:	40005400 	.word	0x40005400
 8000ae8:	00305fff 	.word	0x00305fff
 8000aec:	24000238 	.word	0x24000238
 8000af0:	40003c00 	.word	0x40003c00
 8000af4:	221c      	movs	r2, #28
 8000af6:	4601      	mov	r1, r0
 8000af8:	9014      	str	r0, [sp, #80]	@ 0x50
 8000afa:	2604      	movs	r6, #4
 8000afc:	4c90      	ldr	r4, [pc, #576]	@ (8000d40 <main+0x568>)
 8000afe:	e9cd 0012 	strd	r0, r0, [sp, #72]	@ 0x48
 8000b02:	a816      	add	r0, sp, #88	@ 0x58
 8000b04:	f007 f834 	bl	8007b70 <memset>
 8000b08:	4b8e      	ldr	r3, [pc, #568]	@ (8000d44 <main+0x56c>)
 8000b0a:	2208      	movs	r2, #8
 8000b0c:	4620      	mov	r0, r4
 8000b0e:	6023      	str	r3, [r4, #0]
 8000b10:	2301      	movs	r3, #1
 8000b12:	82a5      	strh	r5, [r4, #20]
 8000b14:	61a6      	str	r6, [r4, #24]
 8000b16:	7725      	strb	r5, [r4, #28]
 8000b18:	6365      	str	r5, [r4, #52]	@ 0x34
 8000b1a:	f884 5038 	strb.w	r5, [r4, #56]	@ 0x38
 8000b1e:	63e3      	str	r3, [r4, #60]	@ 0x3c
 8000b20:	e9c4 3203 	strd	r3, r2, [r4, #12]
 8000b24:	e9c4 5509 	strd	r5, r5, [r4, #36]	@ 0x24
 8000b28:	e9c4 350b 	strd	r3, r5, [r4, #44]	@ 0x2c
 8000b2c:	f001 fb3a 	bl	80021a4 <HAL_ADC_Init>
 8000b30:	b108      	cbz	r0, 8000b36 <main+0x35e>
 8000b32:	b672      	cpsid	i
 8000b34:	e7fe      	b.n	8000b34 <main+0x35c>
 8000b36:	f44f 2380 	mov.w	r3, #262144	@ 0x40000
 8000b3a:	e9c4 3001 	strd	r3, r0, [r4, #4]
 8000b3e:	4620      	mov	r0, r4
 8000b40:	f001 fb30 	bl	80021a4 <HAL_ADC_Init>
 8000b44:	b108      	cbz	r0, 8000b4a <main+0x372>
 8000b46:	b672      	cpsid	i
 8000b48:	e7fe      	b.n	8000b48 <main+0x370>
 8000b4a:	9012      	str	r0, [sp, #72]	@ 0x48
 8000b4c:	a912      	add	r1, sp, #72	@ 0x48
 8000b4e:	4620      	mov	r0, r4
 8000b50:	f001 fc3c 	bl	80023cc <HAL_ADCEx_MultiModeConfigChannel>
 8000b54:	b108      	cbz	r0, 8000b5a <main+0x382>
 8000b56:	b672      	cpsid	i
 8000b58:	e7fe      	b.n	8000b58 <main+0x380>
 8000b5a:	2306      	movs	r3, #6
 8000b5c:	f8df c210 	ldr.w	ip, [pc, #528]	@ 8000d70 <main+0x598>
 8000b60:	9018      	str	r0, [sp, #96]	@ 0x60
 8000b62:	a916      	add	r1, sp, #88	@ 0x58
 8000b64:	901b      	str	r0, [sp, #108]	@ 0x6c
 8000b66:	f88d 0071 	strb.w	r0, [sp, #113]	@ 0x71
 8000b6a:	4620      	mov	r0, r4
 8000b6c:	e9cd c316 	strd	ip, r3, [sp, #88]	@ 0x58
 8000b70:	f240 73ff 	movw	r3, #2047	@ 0x7ff
 8000b74:	e9cd 3619 	strd	r3, r6, [sp, #100]	@ 0x64
 8000b78:	f000 ffd0 	bl	8001b1c <HAL_ADC_ConfigChannel>
 8000b7c:	b108      	cbz	r0, 8000b82 <main+0x3aa>
 8000b7e:	b672      	cpsid	i
 8000b80:	e7fe      	b.n	8000b80 <main+0x3a8>
 8000b82:	4e71      	ldr	r6, [pc, #452]	@ (8000d48 <main+0x570>)
 8000b84:	230c      	movs	r3, #12
 8000b86:	a916      	add	r1, sp, #88	@ 0x58
 8000b88:	4620      	mov	r0, r4
 8000b8a:	e9cd 6316 	strd	r6, r3, [sp, #88]	@ 0x58
 8000b8e:	f000 ffc5 	bl	8001b1c <HAL_ADC_ConfigChannel>
 8000b92:	b108      	cbz	r0, 8000b98 <main+0x3c0>
 8000b94:	b672      	cpsid	i
 8000b96:	e7fe      	b.n	8000b96 <main+0x3be>
 8000b98:	4d6c      	ldr	r5, [pc, #432]	@ (8000d4c <main+0x574>)
 8000b9a:	2312      	movs	r3, #18
 8000b9c:	a916      	add	r1, sp, #88	@ 0x58
 8000b9e:	4620      	mov	r0, r4
 8000ba0:	e9cd 5316 	strd	r5, r3, [sp, #88]	@ 0x58
 8000ba4:	f000 ffba 	bl	8001b1c <HAL_ADC_ConfigChannel>
 8000ba8:	b108      	cbz	r0, 8000bae <main+0x3d6>
 8000baa:	b672      	cpsid	i
 8000bac:	e7fe      	b.n	8000bac <main+0x3d4>
 8000bae:	4868      	ldr	r0, [pc, #416]	@ (8000d50 <main+0x578>)
 8000bb0:	2318      	movs	r3, #24
 8000bb2:	a916      	add	r1, sp, #88	@ 0x58
 8000bb4:	e9cd 0316 	strd	r0, r3, [sp, #88]	@ 0x58
 8000bb8:	4620      	mov	r0, r4
 8000bba:	f000 ffaf 	bl	8001b1c <HAL_ADC_ConfigChannel>
 8000bbe:	4604      	mov	r4, r0
 8000bc0:	b108      	cbz	r0, 8000bc6 <main+0x3ee>
 8000bc2:	b672      	cpsid	i
 8000bc4:	e7fe      	b.n	8000bc4 <main+0x3ec>
 8000bc6:	4601      	mov	r1, r0
 8000bc8:	2210      	movs	r2, #16
 8000bca:	a816      	add	r0, sp, #88	@ 0x58
 8000bcc:	4d61      	ldr	r5, [pc, #388]	@ (8000d54 <main+0x57c>)
 8000bce:	f006 ffcf 	bl	8007b70 <memset>
 8000bd2:	4b61      	ldr	r3, [pc, #388]	@ (8000d58 <main+0x580>)
 8000bd4:	4628      	mov	r0, r5
 8000bd6:	9414      	str	r4, [sp, #80]	@ 0x50
 8000bd8:	60ac      	str	r4, [r5, #8]
 8000bda:	e9c5 3400 	strd	r3, r4, [r5]
 8000bde:	f64f 73ff 	movw	r3, #65535	@ 0xffff
 8000be2:	e9cd 4412 	strd	r4, r4, [sp, #72]	@ 0x48
 8000be6:	e9c5 3403 	strd	r3, r4, [r5, #12]
 8000bea:	e9c5 4405 	strd	r4, r4, [r5, #20]
 8000bee:	f006 f90d 	bl	8006e0c <HAL_TIM_Base_Init>
 8000bf2:	b108      	cbz	r0, 8000bf8 <main+0x420>
 8000bf4:	b672      	cpsid	i
 8000bf6:	e7fe      	b.n	8000bf6 <main+0x41e>
 8000bf8:	f44f 5380 	mov.w	r3, #4096	@ 0x1000
 8000bfc:	a916      	add	r1, sp, #88	@ 0x58
 8000bfe:	4628      	mov	r0, r5
 8000c00:	9316      	str	r3, [sp, #88]	@ 0x58
 8000c02:	f006 f93d 	bl	8006e80 <HAL_TIM_ConfigClockSource>
 8000c06:	b108      	cbz	r0, 8000c0c <main+0x434>
 8000c08:	b672      	cpsid	i
 8000c0a:	e7fe      	b.n	8000c0a <main+0x432>
 8000c0c:	2300      	movs	r3, #0
 8000c0e:	a912      	add	r1, sp, #72	@ 0x48
 8000c10:	4850      	ldr	r0, [pc, #320]	@ (8000d54 <main+0x57c>)
 8000c12:	9314      	str	r3, [sp, #80]	@ 0x50
 8000c14:	e9cd 3312 	strd	r3, r3, [sp, #72]	@ 0x48
 8000c18:	f006 f9ec 	bl	8006ff4 <HAL_TIMEx_MasterConfigSynchronization>
 8000c1c:	b108      	cbz	r0, 8000c22 <main+0x44a>
 8000c1e:	b672      	cpsid	i
 8000c20:	e7fe      	b.n	8000c20 <main+0x448>
 8000c22:	4c4e      	ldr	r4, [pc, #312]	@ (8000d5c <main+0x584>)
 8000c24:	f44f 33e1 	mov.w	r3, #115200	@ 0x1c200
 8000c28:	494d      	ldr	r1, [pc, #308]	@ (8000d60 <main+0x588>)
 8000c2a:	6120      	str	r0, [r4, #16]
 8000c2c:	e9c4 1300 	strd	r1, r3, [r4]
 8000c30:	230c      	movs	r3, #12
 8000c32:	e9c4 0002 	strd	r0, r0, [r4, #8]
 8000c36:	e9c4 3005 	strd	r3, r0, [r4, #20]
 8000c3a:	e9c4 0007 	strd	r0, r0, [r4, #28]
 8000c3e:	e9c4 0009 	strd	r0, r0, [r4, #36]	@ 0x24
 8000c42:	4620      	mov	r0, r4
 8000c44:	f006 fee3 	bl	8007a0e <HAL_UART_Init>
 8000c48:	4601      	mov	r1, r0
 8000c4a:	b108      	cbz	r0, 8000c50 <main+0x478>
 8000c4c:	b672      	cpsid	i
 8000c4e:	e7fe      	b.n	8000c4e <main+0x476>
 8000c50:	4620      	mov	r0, r4
 8000c52:	f006 ff4d 	bl	8007af0 <HAL_UARTEx_SetTxFifoThreshold>
 8000c56:	4601      	mov	r1, r0
 8000c58:	b108      	cbz	r0, 8000c5e <main+0x486>
 8000c5a:	b672      	cpsid	i
 8000c5c:	e7fe      	b.n	8000c5c <main+0x484>
 8000c5e:	4620      	mov	r0, r4
 8000c60:	f006 ff66 	bl	8007b30 <HAL_UARTEx_SetRxFifoThreshold>
 8000c64:	b108      	cbz	r0, 8000c6a <main+0x492>
 8000c66:	b672      	cpsid	i
 8000c68:	e7fe      	b.n	8000c68 <main+0x490>
 8000c6a:	4620      	mov	r0, r4
 8000c6c:	f006 ff25 	bl	8007aba <HAL_UARTEx_DisableFifoMode>
 8000c70:	4605      	mov	r5, r0
 8000c72:	b108      	cbz	r0, 8000c78 <main+0x4a0>
 8000c74:	b672      	cpsid	i
 8000c76:	e7fe      	b.n	8000c76 <main+0x49e>
 8000c78:	2210      	movs	r2, #16
 8000c7a:	4601      	mov	r1, r0
 8000c7c:	a816      	add	r0, sp, #88	@ 0x58
 8000c7e:	4c39      	ldr	r4, [pc, #228]	@ (8000d64 <main+0x58c>)
 8000c80:	f006 ff76 	bl	8007b70 <memset>
 8000c84:	f641 431f 	movw	r3, #7199	@ 0x1c1f
 8000c88:	f04f 4280 	mov.w	r2, #1073741824	@ 0x40000000
 8000c8c:	4620      	mov	r0, r4
 8000c8e:	9514      	str	r5, [sp, #80]	@ 0x50
 8000c90:	60a5      	str	r5, [r4, #8]
 8000c92:	61a5      	str	r5, [r4, #24]
 8000c94:	e9c4 2300 	strd	r2, r3, [r4]
 8000c98:	f240 33e7 	movw	r3, #999	@ 0x3e7
 8000c9c:	e9cd 5512 	strd	r5, r5, [sp, #72]	@ 0x48
 8000ca0:	e9c4 3503 	strd	r3, r5, [r4, #12]
 8000ca4:	f006 f8b2 	bl	8006e0c <HAL_TIM_Base_Init>
 8000ca8:	b108      	cbz	r0, 8000cae <main+0x4d6>
 8000caa:	b672      	cpsid	i
 8000cac:	e7fe      	b.n	8000cac <main+0x4d4>
 8000cae:	f44f 5380 	mov.w	r3, #4096	@ 0x1000
 8000cb2:	a916      	add	r1, sp, #88	@ 0x58
 8000cb4:	4620      	mov	r0, r4
 8000cb6:	9316      	str	r3, [sp, #88]	@ 0x58
 8000cb8:	f006 f8e2 	bl	8006e80 <HAL_TIM_ConfigClockSource>
 8000cbc:	b108      	cbz	r0, 8000cc2 <main+0x4ea>
 8000cbe:	b672      	cpsid	i
 8000cc0:	e7fe      	b.n	8000cc0 <main+0x4e8>
 8000cc2:	9012      	str	r0, [sp, #72]	@ 0x48
 8000cc4:	a912      	add	r1, sp, #72	@ 0x48
 8000cc6:	9014      	str	r0, [sp, #80]	@ 0x50
 8000cc8:	4620      	mov	r0, r4
 8000cca:	f006 f993 	bl	8006ff4 <HAL_TIMEx_MasterConfigSynchronization>
 8000cce:	b108      	cbz	r0, 8000cd4 <main+0x4fc>
 8000cd0:	b672      	cpsid	i
 8000cd2:	e7fe      	b.n	8000cd2 <main+0x4fa>
 8000cd4:	ed9f 8b18 	vldr	d8, [pc, #96]	@ 8000d38 <main+0x560>
 8000cd8:	f000 f8de 	bl	8000e98 <Control_Init>
 8000cdc:	4d22      	ldr	r5, [pc, #136]	@ (8000d68 <main+0x590>)
 8000cde:	4620      	mov	r0, r4
 8000ce0:	4c22      	ldr	r4, [pc, #136]	@ (8000d6c <main+0x594>)
 8000ce2:	ed8d 8b10 	vstr	d8, [sp, #64]	@ 0x40
 8000ce6:	f005 ff43 	bl	8006b70 <HAL_TIM_Base_Start_IT>
 8000cea:	f7ff fce3 	bl	80006b4 <adc_get_value>
 8000cee:	2100      	movs	r1, #0
 8000cf0:	a810      	add	r0, sp, #64	@ 0x40
 8000cf2:	eeb0 4b48 	vmov.f64	d4, d8
 8000cf6:	9100      	str	r1, [sp, #0]
 8000cf8:	eeb3 2b08 	vmov.f64	d2, #56	@ 0x41c00000  24.0
 8000cfc:	ab16      	add	r3, sp, #88	@ 0x58
 8000cfe:	aa12      	add	r2, sp, #72	@ 0x48
 8000d00:	e9cd 1105 	strd	r1, r1, [sp, #20]
 8000d04:	e9cd 1103 	strd	r1, r1, [sp, #12]
 8000d08:	e9cd 1101 	strd	r1, r1, [sp, #4]
 8000d0c:	ed9f 3b0a 	vldr	d3, [pc, #40]	@ 8000d38 <main+0x560>
 8000d10:	ed95 1b00 	vldr	d1, [r5]
 8000d14:	ed94 0b00 	vldr	d0, [r4]
 8000d18:	f000 fa1e 	bl	8001158 <Control_Update>
 8000d1c:	ed9d 0b10 	vldr	d0, [sp, #64]	@ 0x40
 8000d20:	eeb7 0bc0 	vcvt.f32.f64	s0, d0
 8000d24:	f000 fdc4 	bl	80018b0 <mosfet>
 8000d28:	f44f 70fa 	mov.w	r0, #500	@ 0x1f4
 8000d2c:	f000 fdd0 	bl	80018d0 <delay_ns>
 8000d30:	e7db      	b.n	8000cea <main+0x512>
 8000d32:	bf00      	nop
 8000d34:	f3af 8000 	nop.w
	...
 8000d40:	2400047c 	.word	0x2400047c
 8000d44:	40022000 	.word	0x40022000
 8000d48:	10c00010 	.word	0x10c00010
 8000d4c:	21800100 	.word	0x21800100
 8000d50:	4b840000 	.word	0x4b840000
 8000d54:	240001ec 	.word	0x240001ec
 8000d58:	40010000 	.word	0x40010000
 8000d5c:	240000c0 	.word	0x240000c0
 8000d60:	40007800 	.word	0x40007800
 8000d64:	240001a0 	.word	0x240001a0
 8000d68:	240004f0 	.word	0x240004f0
 8000d6c:	240004f8 	.word	0x240004f8
 8000d70:	1d500080 	.word	0x1d500080

08000d74 <Error_Handler>:
 8000d74:	b672      	cpsid	i
 8000d76:	e7fe      	b.n	8000d76 <Error_Handler+0x2>

08000d78 <modbus_send_data>:
 8000d78:	b570      	push	{r4, r5, r6, lr}
 8000d7a:	4e0a      	ldr	r6, [pc, #40]	@ (8000da4 <modbus_send_data+0x2c>)
 8000d7c:	4604      	mov	r4, r0
 8000d7e:	460d      	mov	r5, r1
 8000d80:	2201      	movs	r2, #1
 8000d82:	4630      	mov	r0, r6
 8000d84:	2110      	movs	r1, #16
 8000d86:	f002 fe6d 	bl	8003a64 <HAL_GPIO_WritePin>
 8000d8a:	462a      	mov	r2, r5
 8000d8c:	4621      	mov	r1, r4
 8000d8e:	2364      	movs	r3, #100	@ 0x64
 8000d90:	4805      	ldr	r0, [pc, #20]	@ (8000da8 <modbus_send_data+0x30>)
 8000d92:	f006 fd8c 	bl	80078ae <HAL_UART_Transmit>
 8000d96:	4630      	mov	r0, r6
 8000d98:	2200      	movs	r2, #0
 8000d9a:	2110      	movs	r1, #16
 8000d9c:	e8bd 4070 	ldmia.w	sp!, {r4, r5, r6, lr}
 8000da0:	f002 be60 	b.w	8003a64 <HAL_GPIO_WritePin>
 8000da4:	58020c00 	.word	0x58020c00
 8000da8:	2400002c 	.word	0x2400002c

08000dac <modbus_respone_data>:
 8000dac:	b5f8      	push	{r3, r4, r5, r6, r7, lr}
 8000dae:	4b17      	ldr	r3, [pc, #92]	@ (8000e0c <modbus_respone_data+0x60>)
 8000db0:	781a      	ldrb	r2, [r3, #0]
 8000db2:	2a01      	cmp	r2, #1
 8000db4:	d129      	bne.n	8000e0a <modbus_respone_data+0x5e>
 8000db6:	889c      	ldrh	r4, [r3, #4]
 8000db8:	8858      	ldrh	r0, [r3, #2]
 8000dba:	ba64      	rev16	r4, r4
 8000dbc:	4b14      	ldr	r3, [pc, #80]	@ (8000e10 <modbus_respone_data+0x64>)
 8000dbe:	ba40      	rev16	r0, r0
 8000dc0:	4f14      	ldr	r7, [pc, #80]	@ (8000e14 <modbus_respone_data+0x68>)
 8000dc2:	b2a4      	uxth	r4, r4
 8000dc4:	701a      	strb	r2, [r3, #0]
 8000dc6:	2203      	movs	r2, #3
 8000dc8:	b280      	uxth	r0, r0
 8000dca:	461d      	mov	r5, r3
 8000dcc:	705a      	strb	r2, [r3, #1]
 8000dce:	0062      	lsls	r2, r4, #1
 8000dd0:	709a      	strb	r2, [r3, #2]
 8000dd2:	2200      	movs	r2, #0
 8000dd4:	4616      	mov	r6, r2
 8000dd6:	1881      	adds	r1, r0, r2
 8000dd8:	42a2      	cmp	r2, r4
 8000dda:	f103 0302 	add.w	r3, r3, #2
 8000dde:	b289      	uxth	r1, r1
 8000de0:	db0e      	blt.n	8000e00 <modbus_respone_data+0x54>
 8000de2:	4621      	mov	r1, r4
 8000de4:	480a      	ldr	r0, [pc, #40]	@ (8000e10 <modbus_respone_data+0x64>)
 8000de6:	f000 f83f 	bl	8000e68 <crc16>
 8000dea:	192b      	adds	r3, r5, r4
 8000dec:	5528      	strb	r0, [r5, r4]
 8000dee:	1ca1      	adds	r1, r4, #2
 8000df0:	0a00      	lsrs	r0, r0, #8
 8000df2:	b2c9      	uxtb	r1, r1
 8000df4:	7058      	strb	r0, [r3, #1]
 8000df6:	4806      	ldr	r0, [pc, #24]	@ (8000e10 <modbus_respone_data+0x64>)
 8000df8:	e8bd 40f8 	ldmia.w	sp!, {r3, r4, r5, r6, r7, lr}
 8000dfc:	f7ff bfbc 	b.w	8000d78 <modbus_send_data>
 8000e00:	5c79      	ldrb	r1, [r7, r1]
 8000e02:	3201      	adds	r2, #1
 8000e04:	705e      	strb	r6, [r3, #1]
 8000e06:	7099      	strb	r1, [r3, #2]
 8000e08:	e7e5      	b.n	8000dd6 <modbus_respone_data+0x2a>
 8000e0a:	bdf8      	pop	{r3, r4, r5, r6, r7, pc}
 8000e0c:	24000558 	.word	0x24000558
 8000e10:	2400056c 	.word	0x2400056c
 8000e14:	24000510 	.word	0x24000510

08000e18 <HAL_UARTEx_RxEventCallback>:
 8000e18:	6802      	ldr	r2, [r0, #0]
 8000e1a:	4b0f      	ldr	r3, [pc, #60]	@ (8000e58 <HAL_UARTEx_RxEventCallback+0x40>)
 8000e1c:	429a      	cmp	r2, r3
 8000e1e:	b470      	push	{r4, r5, r6}
 8000e20:	d10d      	bne.n	8000e3e <HAL_UARTEx_RxEventCallback+0x26>
 8000e22:	4c0e      	ldr	r4, [pc, #56]	@ (8000e5c <HAL_UARTEx_RxEventCallback+0x44>)
 8000e24:	7823      	ldrb	r3, [r4, #0]
 8000e26:	b1a3      	cbz	r3, 8000e52 <HAL_UARTEx_RxEventCallback+0x3a>
 8000e28:	4b0d      	ldr	r3, [pc, #52]	@ (8000e60 <HAL_UARTEx_RxEventCallback+0x48>)
 8000e2a:	2100      	movs	r1, #0
 8000e2c:	4d0d      	ldr	r5, [pc, #52]	@ (8000e64 <HAL_UARTEx_RxEventCallback+0x4c>)
 8000e2e:	789a      	ldrb	r2, [r3, #2]
 8000e30:	0852      	lsrs	r2, r2, #1
 8000e32:	b2c8      	uxtb	r0, r1
 8000e34:	3302      	adds	r3, #2
 8000e36:	4282      	cmp	r2, r0
 8000e38:	d803      	bhi.n	8000e42 <HAL_UARTEx_RxEventCallback+0x2a>
 8000e3a:	2300      	movs	r3, #0
 8000e3c:	7023      	strb	r3, [r4, #0]
 8000e3e:	bc70      	pop	{r4, r5, r6}
 8000e40:	4770      	bx	lr
 8000e42:	785e      	ldrb	r6, [r3, #1]
 8000e44:	3101      	adds	r1, #1
 8000e46:	7898      	ldrb	r0, [r3, #2]
 8000e48:	ea40 2006 	orr.w	r0, r0, r6, lsl #8
 8000e4c:	f825 0b02 	strh.w	r0, [r5], #2
 8000e50:	e7ef      	b.n	8000e32 <HAL_UARTEx_RxEventCallback+0x1a>
 8000e52:	bc70      	pop	{r4, r5, r6}
 8000e54:	f7ff bfaa 	b.w	8000dac <modbus_respone_data>
 8000e58:	40011000 	.word	0x40011000
 8000e5c:	24000542 	.word	0x24000542
 8000e60:	24000558 	.word	0x24000558
 8000e64:	24000544 	.word	0x24000544

08000e68 <crc16>:
 8000e68:	23ff      	movs	r3, #255	@ 0xff
 8000e6a:	4401      	add	r1, r0
 8000e6c:	b570      	push	{r4, r5, r6, lr}
 8000e6e:	461c      	mov	r4, r3
 8000e70:	4d06      	ldr	r5, [pc, #24]	@ (8000e8c <crc16+0x24>)
 8000e72:	4e07      	ldr	r6, [pc, #28]	@ (8000e90 <crc16+0x28>)
 8000e74:	4281      	cmp	r1, r0
 8000e76:	d102      	bne.n	8000e7e <crc16+0x16>
 8000e78:	ea43 2004 	orr.w	r0, r3, r4, lsl #8
 8000e7c:	bd70      	pop	{r4, r5, r6, pc}
 8000e7e:	f810 2b01 	ldrb.w	r2, [r0], #1
 8000e82:	405a      	eors	r2, r3
 8000e84:	5cab      	ldrb	r3, [r5, r2]
 8000e86:	4063      	eors	r3, r4
 8000e88:	5cb4      	ldrb	r4, [r6, r2]
 8000e8a:	e7f3      	b.n	8000e74 <crc16+0xc>
 8000e8c:	08007ce0 	.word	0x08007ce0
 8000e90:	08007be0 	.word	0x08007be0
 8000e94:	00000000 	.word	0x00000000

08000e98 <Control_Init>:
 8000e98:	4ba3      	ldr	r3, [pc, #652]	@ (8001128 <Control_Init+0x290>)
 8000e9a:	a175      	add	r1, pc, #468	@ (adr r1, 8001070 <Control_Init+0x1d8>)
 8000e9c:	e9d1 0100 	ldrd	r0, r1, [r1]
 8000ea0:	e92d 4f70 	stmdb	sp!, {r4, r5, r6, r8, r9, sl, fp, lr}
 8000ea4:	e9c3 0100 	strd	r0, r1, [r3]
 8000ea8:	a173      	add	r1, pc, #460	@ (adr r1, 8001078 <Control_Init+0x1e0>)
 8000eaa:	e9d1 0100 	ldrd	r0, r1, [r1]
 8000eae:	2400      	movs	r4, #0
 8000eb0:	f04f 4580 	mov.w	r5, #1073741824	@ 0x40000000
 8000eb4:	f04f 0a00 	mov.w	sl, #0
 8000eb8:	f8df b290 	ldr.w	fp, [pc, #656]	@ 800114c <Control_Init+0x2b4>
 8000ebc:	2600      	movs	r6, #0
 8000ebe:	e9c3 0104 	strd	r0, r1, [r3, #16]
 8000ec2:	a16f      	add	r1, pc, #444	@ (adr r1, 8001080 <Control_Init+0x1e8>)
 8000ec4:	e9d1 0100 	ldrd	r0, r1, [r1]
 8000ec8:	e9c3 ab10 	strd	sl, fp, [r3, #64]	@ 0x40
 8000ecc:	e9c3 0102 	strd	r0, r1, [r3, #8]
 8000ed0:	a16d      	add	r1, pc, #436	@ (adr r1, 8001088 <Control_Init+0x1f0>)
 8000ed2:	e9d1 0100 	ldrd	r0, r1, [r1]
 8000ed6:	e9c3 450e 	strd	r4, r5, [r3, #56]	@ 0x38
 8000eda:	e9c3 0108 	strd	r0, r1, [r3, #32]
 8000ede:	a16c      	add	r1, pc, #432	@ (adr r1, 8001090 <Control_Init+0x1f8>)
 8000ee0:	e9d1 0100 	ldrd	r0, r1, [r1]
 8000ee4:	671e      	str	r6, [r3, #112]	@ 0x70
 8000ee6:	e9c3 010a 	strd	r0, r1, [r3, #40]	@ 0x28
 8000eea:	a16b      	add	r1, pc, #428	@ (adr r1, 8001098 <Control_Init+0x200>)
 8000eec:	e9d1 0100 	ldrd	r0, r1, [r1]
 8000ef0:	f20f 19ac 	addw	r9, pc, #428	@ 0x1ac
 8000ef4:	e9d9 8900 	ldrd	r8, r9, [r9]
 8000ef8:	e9c3 010c 	strd	r0, r1, [r3, #48]	@ 0x30
 8000efc:	4b8b      	ldr	r3, [pc, #556]	@ (800112c <Control_Init+0x294>)
 8000efe:	a16a      	add	r1, pc, #424	@ (adr r1, 80010a8 <Control_Init+0x210>)
 8000f00:	e9d1 0100 	ldrd	r0, r1, [r1]
 8000f04:	ed9f 7b6a 	vldr	d7, [pc, #424]	@ 80010b0 <Control_Init+0x218>
 8000f08:	e9c3 0100 	strd	r0, r1, [r3]
 8000f0c:	a16a      	add	r1, pc, #424	@ (adr r1, 80010b8 <Control_Init+0x220>)
 8000f0e:	e9d1 0100 	ldrd	r0, r1, [r1]
 8000f12:	e9c3 0102 	strd	r0, r1, [r3, #8]
 8000f16:	a16a      	add	r1, pc, #424	@ (adr r1, 80010c0 <Control_Init+0x228>)
 8000f18:	e9d1 0100 	ldrd	r0, r1, [r1]
 8000f1c:	e9c3 0104 	strd	r0, r1, [r3, #16]
 8000f20:	4983      	ldr	r1, [pc, #524]	@ (8001130 <Control_Init+0x298>)
 8000f22:	4884      	ldr	r0, [pc, #528]	@ (8001134 <Control_Init+0x29c>)
 8000f24:	a368      	add	r3, pc, #416	@ (adr r3, 80010c8 <Control_Init+0x230>)
 8000f26:	e9d3 2300 	ldrd	r2, r3, [r3]
 8000f2a:	e9c1 ab18 	strd	sl, fp, [r1, #96]	@ 0x60
 8000f2e:	e9c1 2300 	strd	r2, r3, [r1]
 8000f32:	a367      	add	r3, pc, #412	@ (adr r3, 80010d0 <Control_Init+0x238>)
 8000f34:	e9d3 2300 	ldrd	r2, r3, [r3]
 8000f38:	f04f 0a00 	mov.w	sl, #0
 8000f3c:	f8df b210 	ldr.w	fp, [pc, #528]	@ 8001150 <Control_Init+0x2b8>
 8000f40:	e9c1 2304 	strd	r2, r3, [r1, #16]
 8000f44:	a364      	add	r3, pc, #400	@ (adr r3, 80010d8 <Control_Init+0x240>)
 8000f46:	e9d3 2300 	ldrd	r2, r3, [r3]
 8000f4a:	e9c1 891c 	strd	r8, r9, [r1, #112]	@ 0x70
 8000f4e:	e9c1 2306 	strd	r2, r3, [r1, #24]
 8000f52:	a363      	add	r3, pc, #396	@ (adr r3, 80010e0 <Control_Init+0x248>)
 8000f54:	e9d3 2300 	ldrd	r2, r3, [r3]
 8000f58:	e9c1 ab1a 	strd	sl, fp, [r1, #104]	@ 0x68
 8000f5c:	e9c1 2308 	strd	r2, r3, [r1, #32]
 8000f60:	2300      	movs	r3, #0
 8000f62:	2200      	movs	r2, #0
 8000f64:	f20f 1b80 	addw	fp, pc, #384	@ 0x180
 8000f68:	e9db ab00 	ldrd	sl, fp, [fp]
 8000f6c:	e9c1 230a 	strd	r2, r3, [r1, #40]	@ 0x28
 8000f70:	e9c1 230c 	strd	r2, r3, [r1, #48]	@ 0x30
 8000f74:	e9c1 230e 	strd	r2, r3, [r1, #56]	@ 0x38
 8000f78:	e9c1 2310 	strd	r2, r3, [r1, #64]	@ 0x40
 8000f7c:	e9c1 2312 	strd	r2, r3, [r1, #72]	@ 0x48
 8000f80:	e9c1 2314 	strd	r2, r3, [r1, #80]	@ 0x50
 8000f84:	e9c1 2316 	strd	r2, r3, [r1, #88]	@ 0x58
 8000f88:	496b      	ldr	r1, [pc, #428]	@ (8001138 <Control_Init+0x2a0>)
 8000f8a:	e9c1 ab00 	strd	sl, fp, [r1]
 8000f8e:	f20f 1b60 	addw	fp, pc, #352	@ 0x160
 8000f92:	e9db ab00 	ldrd	sl, fp, [fp]
 8000f96:	ed81 7b1c 	vstr	d7, [r1, #112]	@ 0x70
 8000f9a:	e9c1 ab04 	strd	sl, fp, [r1, #16]
 8000f9e:	f04f 0a00 	mov.w	sl, #0
 8000fa2:	f8df b1b0 	ldr.w	fp, [pc, #432]	@ 8001154 <Control_Init+0x2bc>
 8000fa6:	e9c1 ab06 	strd	sl, fp, [r1, #24]
 8000faa:	f20f 1b4c 	addw	fp, pc, #332	@ 0x14c
 8000fae:	e9db ab00 	ldrd	sl, fp, [fp]
 8000fb2:	e9c1 ab08 	strd	sl, fp, [r1, #32]
 8000fb6:	f04f 0a00 	mov.w	sl, #0
 8000fba:	f04f 4b40 	mov.w	fp, #3221225472	@ 0xc0000000
 8000fbe:	e9c1 230a 	strd	r2, r3, [r1, #40]	@ 0x28
 8000fc2:	e9c1 230c 	strd	r2, r3, [r1, #48]	@ 0x30
 8000fc6:	e9c1 230e 	strd	r2, r3, [r1, #56]	@ 0x38
 8000fca:	e9c1 2310 	strd	r2, r3, [r1, #64]	@ 0x40
 8000fce:	e9c1 2312 	strd	r2, r3, [r1, #72]	@ 0x48
 8000fd2:	e9c1 2314 	strd	r2, r3, [r1, #80]	@ 0x50
 8000fd6:	e9c1 2316 	strd	r2, r3, [r1, #88]	@ 0x58
 8000fda:	e9c1 4518 	strd	r4, r5, [r1, #96]	@ 0x60
 8000fde:	e9c1 ab1a 	strd	sl, fp, [r1, #104]	@ 0x68
 8000fe2:	4956      	ldr	r1, [pc, #344]	@ (800113c <Control_Init+0x2a4>)
 8000fe4:	ed81 7b1c 	vstr	d7, [r1, #112]	@ 0x70
 8000fe8:	ed9f 7b45 	vldr	d7, [pc, #276]	@ 8001100 <Control_Init+0x268>
 8000fec:	e9c1 230a 	strd	r2, r3, [r1, #40]	@ 0x28
 8000ff0:	e9c1 230c 	strd	r2, r3, [r1, #48]	@ 0x30
 8000ff4:	ed81 7b00 	vstr	d7, [r1]
 8000ff8:	ed9f 7b43 	vldr	d7, [pc, #268]	@ 8001108 <Control_Init+0x270>
 8000ffc:	e9c1 230e 	strd	r2, r3, [r1, #56]	@ 0x38
 8001000:	e9c1 2310 	strd	r2, r3, [r1, #64]	@ 0x40
 8001004:	ed81 7b04 	vstr	d7, [r1, #16]
 8001008:	ed9f 7b41 	vldr	d7, [pc, #260]	@ 8001110 <Control_Init+0x278>
 800100c:	e9c1 2312 	strd	r2, r3, [r1, #72]	@ 0x48
 8001010:	e9c1 2314 	strd	r2, r3, [r1, #80]	@ 0x50
 8001014:	ed81 7b06 	vstr	d7, [r1, #24]
 8001018:	ed9f 7b3f 	vldr	d7, [pc, #252]	@ 8001118 <Control_Init+0x280>
 800101c:	e9c1 2316 	strd	r2, r3, [r1, #88]	@ 0x58
 8001020:	e9c1 4518 	strd	r4, r5, [r1, #96]	@ 0x60
 8001024:	ed81 7b08 	vstr	d7, [r1, #32]
 8001028:	a53d      	add	r5, pc, #244	@ (adr r5, 8001120 <Control_Init+0x288>)
 800102a:	e9d5 4500 	ldrd	r4, r5, [r5]
 800102e:	e9c1 ab1a 	strd	sl, fp, [r1, #104]	@ 0x68
 8001032:	4943      	ldr	r1, [pc, #268]	@ (8001140 <Control_Init+0x2a8>)
 8001034:	e9c0 2300 	strd	r2, r3, [r0]
 8001038:	e9c1 4500 	strd	r4, r5, [r1]
 800103c:	e9c1 2302 	strd	r2, r3, [r1, #8]
 8001040:	e9c1 2304 	strd	r2, r3, [r1, #16]
 8001044:	e9c1 2306 	strd	r2, r3, [r1, #24]
 8001048:	e9c1 2308 	strd	r2, r3, [r1, #32]
 800104c:	e9c0 2302 	strd	r2, r3, [r0, #8]
 8001050:	e9c0 2304 	strd	r2, r3, [r0, #16]
 8001054:	4d3b      	ldr	r5, [pc, #236]	@ (8001144 <Control_Init+0x2ac>)
 8001056:	f644 6420 	movw	r4, #20000	@ 0x4e20
 800105a:	4b3b      	ldr	r3, [pc, #236]	@ (8001148 <Control_Init+0x2b0>)
 800105c:	e9c0 5406 	strd	r5, r4, [r0, #24]
 8001060:	e9c1 890a 	strd	r8, r9, [r1, #40]	@ 0x28
 8001064:	701e      	strb	r6, [r3, #0]
 8001066:	e8bd 8f70 	ldmia.w	sp!, {r4, r5, r6, r8, r9, sl, fp, pc}
 800106a:	bf00      	nop
 800106c:	f3af 8000 	nop.w
 8001070:	9999999a 	.word	0x9999999a
 8001074:	3fb99999 	.word	0x3fb99999
 8001078:	d2f1a9fc 	.word	0xd2f1a9fc
 800107c:	3f50624d 	.word	0x3f50624d
 8001080:	eb1c432d 	.word	0xeb1c432d
 8001084:	3f1a36e2 	.word	0x3f1a36e2
 8001088:	eb851eb8 	.word	0xeb851eb8
 800108c:	3f7eb851 	.word	0x3f7eb851
 8001090:	5f6fd220 	.word	0x5f6fd220
 8001094:	3f79ce07 	.word	0x3f79ce07
 8001098:	66666666 	.word	0x66666666
 800109c:	3fe66666 	.word	0x3fe66666
 80010a0:	a0b5ed8d 	.word	0xa0b5ed8d
 80010a4:	3ea0c6f7 	.word	0x3ea0c6f7
 80010a8:	00000000 	.word	0x00000000
 80010ac:	41086a00 	.word	0x41086a00
 80010b0:	eb1c432d 	.word	0xeb1c432d
 80010b4:	3f0a36e2 	.word	0x3f0a36e2
 80010b8:	88e368f1 	.word	0x88e368f1
 80010bc:	3ed4f8b5 	.word	0x3ed4f8b5
 80010c0:	a0b5ed8d 	.word	0xa0b5ed8d
 80010c4:	3eb0c6f7 	.word	0x3eb0c6f7
 80010c8:	9999999a 	.word	0x9999999a
 80010cc:	3fa99999 	.word	0x3fa99999
 80010d0:	1eb851ec 	.word	0x1eb851ec
 80010d4:	3fc1eb85 	.word	0x3fc1eb85
 80010d8:	24924924 	.word	0x24924924
 80010dc:	401c9249 	.word	0x401c9249
 80010e0:	da6b45f4 	.word	0xda6b45f4
 80010e4:	3fefffff 	.word	0x3fefffff
 80010e8:	47ae147b 	.word	0x47ae147b
 80010ec:	bfa47ae1 	.word	0xbfa47ae1
 80010f0:	9999999a 	.word	0x9999999a
 80010f4:	bfa99999 	.word	0xbfa99999
 80010f8:	9f16b11c 	.word	0x9f16b11c
 80010fc:	3ff00002 	.word	0x3ff00002
 8001100:	147ae148 	.word	0x147ae148
 8001104:	3ff547ae 	.word	0x3ff547ae
 8001108:	00000000 	.word	0x00000000
 800110c:	40c47500 	.word	0x40c47500
 8001110:	9027e374 	.word	0x9027e374
 8001114:	3f19072f 	.word	0x3f19072f
 8001118:	fec56d5c 	.word	0xfec56d5c
 800111c:	3fde7bb2 	.word	0x3fde7bb2
 8001120:	00000000 	.word	0x00000000
 8001124:	40c38800 	.word	0x40c38800
 8001128:	24000758 	.word	0x24000758
 800112c:	24000740 	.word	0x24000740
 8001130:	24000698 	.word	0x24000698
 8001134:	24000588 	.word	0x24000588
 8001138:	24000620 	.word	0x24000620
 800113c:	240005a8 	.word	0x240005a8
 8001140:	24000710 	.word	0x24000710
 8001144:	00030d3f 	.word	0x00030d3f
 8001148:	24000580 	.word	0x24000580
 800114c:	403e0000 	.word	0x403e0000
 8001150:	c03e0000 	.word	0xc03e0000
 8001154:	c0340000 	.word	0xc0340000

08001158 <Control_Update>:
 8001158:	b510      	push	{r4, lr}
 800115a:	4c15      	ldr	r4, [pc, #84]	@ (80011b0 <Control_Update+0x58>)
 800115c:	7822      	ldrb	r2, [r4, #0]
 800115e:	2a01      	cmp	r2, #1
 8001160:	d015      	beq.n	800118e <Control_Update+0x36>
 8001162:	2a02      	cmp	r2, #2
 8001164:	d019      	beq.n	800119a <Control_Update+0x42>
 8001166:	b95a      	cbnz	r2, 8001180 <Control_Update+0x28>
 8001168:	eeb2 7b06 	vmov.f64	d7, #38	@ 0x41300000  11.0
 800116c:	eeb4 0bc7 	vcmpe.f64	d0, d7
 8001170:	eef1 fa10 	vmrs	APSR_nzcv, fpscr
 8001174:	d505      	bpl.n	8001182 <Control_Update+0x2a>
 8001176:	a30c      	add	r3, pc, #48	@ (adr r3, 80011a8 <Control_Update+0x50>)
 8001178:	e9d3 2300 	ldrd	r2, r3, [r3]
 800117c:	e9c0 2300 	strd	r2, r3, [r0]
 8001180:	bd10      	pop	{r4, pc}
 8001182:	2005      	movs	r0, #5
 8001184:	f000 fc52 	bl	8001a2c <HAL_Delay>
 8001188:	2301      	movs	r3, #1
 800118a:	7023      	strb	r3, [r4, #0]
 800118c:	e7f8      	b.n	8001180 <Control_Update+0x28>
 800118e:	4611      	mov	r1, r2
 8001190:	4808      	ldr	r0, [pc, #32]	@ (80011b4 <Control_Update+0x5c>)
 8001192:	e8bd 4010 	ldmia.w	sp!, {r4, lr}
 8001196:	f002 bc65 	b.w	8003a64 <HAL_GPIO_WritePin>
 800119a:	e8bd 4010 	ldmia.w	sp!, {r4, lr}
 800119e:	f7ff bab3 	b.w	8000708 <enable_bypass>
 80011a2:	bf00      	nop
 80011a4:	f3af 8000 	nop.w
 80011a8:	66666666 	.word	0x66666666
 80011ac:	3fee6666 	.word	0x3fee6666
 80011b0:	24000580 	.word	0x24000580
 80011b4:	58021000 	.word	0x58021000

080011b8 <HAL_MspInit>:
 80011b8:	4b07      	ldr	r3, [pc, #28]	@ (80011d8 <HAL_MspInit+0x20>)
 80011ba:	b082      	sub	sp, #8
 80011bc:	f8d3 20f4 	ldr.w	r2, [r3, #244]	@ 0xf4
 80011c0:	f042 0202 	orr.w	r2, r2, #2
 80011c4:	f8c3 20f4 	str.w	r2, [r3, #244]	@ 0xf4
 80011c8:	f8d3 30f4 	ldr.w	r3, [r3, #244]	@ 0xf4
 80011cc:	f003 0302 	and.w	r3, r3, #2
 80011d0:	9301      	str	r3, [sp, #4]
 80011d2:	9b01      	ldr	r3, [sp, #4]
 80011d4:	b002      	add	sp, #8
 80011d6:	4770      	bx	lr
 80011d8:	58024400 	.word	0x58024400

080011dc <HAL_ADC_MspInit>:
 80011dc:	b570      	push	{r4, r5, r6, lr}
 80011de:	b0b8      	sub	sp, #224	@ 0xe0
 80011e0:	24c0      	movs	r4, #192	@ 0xc0
 80011e2:	4606      	mov	r6, r0
 80011e4:	2214      	movs	r2, #20
 80011e6:	2100      	movs	r1, #0
 80011e8:	a803      	add	r0, sp, #12
 80011ea:	f006 fcc1 	bl	8007b70 <memset>
 80011ee:	4622      	mov	r2, r4
 80011f0:	2100      	movs	r1, #0
 80011f2:	a808      	add	r0, sp, #32
 80011f4:	f006 fcbc 	bl	8007b70 <memset>
 80011f8:	6832      	ldr	r2, [r6, #0]
 80011fa:	4b37      	ldr	r3, [pc, #220]	@ (80012d8 <HAL_ADC_MspInit+0xfc>)
 80011fc:	429a      	cmp	r2, r3
 80011fe:	d168      	bne.n	80012d2 <HAL_ADC_MspInit+0xf6>
 8001200:	2300      	movs	r3, #0
 8001202:	f44f 2200 	mov.w	r2, #524288	@ 0x80000
 8001206:	2004      	movs	r0, #4
 8001208:	e9cd 2308 	strd	r2, r3, [sp, #32]
 800120c:	230a      	movs	r3, #10
 800120e:	e9cd 030a 	strd	r0, r3, [sp, #40]	@ 0x28
 8001212:	2302      	movs	r3, #2
 8001214:	e9cd 330c 	strd	r3, r3, [sp, #48]	@ 0x30
 8001218:	e9cd 340e 	strd	r3, r4, [sp, #56]	@ 0x38
 800121c:	2320      	movs	r3, #32
 800121e:	eb0d 0003 	add.w	r0, sp, r3
 8001222:	9310      	str	r3, [sp, #64]	@ 0x40
 8001224:	f004 f9e6 	bl	80055f4 <HAL_RCCEx_PeriphCLKConfig>
 8001228:	b108      	cbz	r0, 800122e <HAL_ADC_MspInit+0x52>
 800122a:	f7ff fda3 	bl	8000d74 <Error_Handler>
 800122e:	4b2b      	ldr	r3, [pc, #172]	@ (80012dc <HAL_ADC_MspInit+0x100>)
 8001230:	2500      	movs	r5, #0
 8001232:	2403      	movs	r4, #3
 8001234:	a903      	add	r1, sp, #12
 8001236:	f8d3 20d8 	ldr.w	r2, [r3, #216]	@ 0xd8
 800123a:	4829      	ldr	r0, [pc, #164]	@ (80012e0 <HAL_ADC_MspInit+0x104>)
 800123c:	f042 0220 	orr.w	r2, r2, #32
 8001240:	f8c3 20d8 	str.w	r2, [r3, #216]	@ 0xd8
 8001244:	f8d3 20d8 	ldr.w	r2, [r3, #216]	@ 0xd8
 8001248:	f002 0220 	and.w	r2, r2, #32
 800124c:	9200      	str	r2, [sp, #0]
 800124e:	9a00      	ldr	r2, [sp, #0]
 8001250:	f8d3 20e0 	ldr.w	r2, [r3, #224]	@ 0xe0
 8001254:	f042 0201 	orr.w	r2, r2, #1
 8001258:	f8c3 20e0 	str.w	r2, [r3, #224]	@ 0xe0
 800125c:	f8d3 20e0 	ldr.w	r2, [r3, #224]	@ 0xe0
 8001260:	f002 0201 	and.w	r2, r2, #1
 8001264:	9201      	str	r2, [sp, #4]
 8001266:	9a01      	ldr	r2, [sp, #4]
 8001268:	f8d3 20e0 	ldr.w	r2, [r3, #224]	@ 0xe0
 800126c:	f042 0204 	orr.w	r2, r2, #4
 8001270:	f8c3 20e0 	str.w	r2, [r3, #224]	@ 0xe0
 8001274:	f8d3 30e0 	ldr.w	r3, [r3, #224]	@ 0xe0
 8001278:	9505      	str	r5, [sp, #20]
 800127a:	f003 0304 	and.w	r3, r3, #4
 800127e:	9302      	str	r3, [sp, #8]
 8001280:	9b02      	ldr	r3, [sp, #8]
 8001282:	2390      	movs	r3, #144	@ 0x90
 8001284:	e9cd 3403 	strd	r3, r4, [sp, #12]
 8001288:	f002 fb04 	bl	8003894 <HAL_GPIO_Init>
 800128c:	2330      	movs	r3, #48	@ 0x30
 800128e:	a903      	add	r1, sp, #12
 8001290:	4814      	ldr	r0, [pc, #80]	@ (80012e4 <HAL_ADC_MspInit+0x108>)
 8001292:	9505      	str	r5, [sp, #20]
 8001294:	e9cd 3403 	strd	r3, r4, [sp, #12]
 8001298:	f002 fafc 	bl	8003894 <HAL_GPIO_Init>
 800129c:	4c12      	ldr	r4, [pc, #72]	@ (80012e8 <HAL_ADC_MspInit+0x10c>)
 800129e:	2309      	movs	r3, #9
 80012a0:	4a12      	ldr	r2, [pc, #72]	@ (80012ec <HAL_ADC_MspInit+0x110>)
 80012a2:	f44f 6180 	mov.w	r1, #1024	@ 0x400
 80012a6:	4620      	mov	r0, r4
 80012a8:	e9c4 2300 	strd	r2, r3, [r4]
 80012ac:	f44f 6300 	mov.w	r3, #2048	@ 0x800
 80012b0:	e9c4 1304 	strd	r1, r3, [r4, #16]
 80012b4:	f44f 5300 	mov.w	r3, #8192	@ 0x2000
 80012b8:	e9c4 5502 	strd	r5, r5, [r4, #8]
 80012bc:	e9c4 3506 	strd	r3, r5, [r4, #24]
 80012c0:	e9c4 5508 	strd	r5, r5, [r4, #32]
 80012c4:	f001 fb2c 	bl	8002920 <HAL_DMA_Init>
 80012c8:	b108      	cbz	r0, 80012ce <HAL_ADC_MspInit+0xf2>
 80012ca:	f7ff fd53 	bl	8000d74 <Error_Handler>
 80012ce:	64f4      	str	r4, [r6, #76]	@ 0x4c
 80012d0:	63a6      	str	r6, [r4, #56]	@ 0x38
 80012d2:	b038      	add	sp, #224	@ 0xe0
 80012d4:	bd70      	pop	{r4, r5, r6, pc}
 80012d6:	bf00      	nop
 80012d8:	40022000 	.word	0x40022000
 80012dc:	58024400 	.word	0x58024400
 80012e0:	58020000 	.word	0x58020000
 80012e4:	58020800 	.word	0x58020800
 80012e8:	24000404 	.word	0x24000404
 80012ec:	40020010 	.word	0x40020010

080012f0 <HAL_I2C_MspInit>:
 80012f0:	b570      	push	{r4, r5, r6, lr}
 80012f2:	b0b8      	sub	sp, #224	@ 0xe0
 80012f4:	4605      	mov	r5, r0
 80012f6:	2214      	movs	r2, #20
 80012f8:	2100      	movs	r1, #0
 80012fa:	a803      	add	r0, sp, #12
 80012fc:	f006 fc38 	bl	8007b70 <memset>
 8001300:	22c0      	movs	r2, #192	@ 0xc0
 8001302:	2100      	movs	r1, #0
 8001304:	a808      	add	r0, sp, #32
 8001306:	f006 fc33 	bl	8007b70 <memset>
 800130a:	682a      	ldr	r2, [r5, #0]
 800130c:	4b3a      	ldr	r3, [pc, #232]	@ (80013f8 <HAL_I2C_MspInit+0x108>)
 800130e:	429a      	cmp	r2, r3
 8001310:	d170      	bne.n	80013f4 <HAL_I2C_MspInit+0x104>
 8001312:	2208      	movs	r2, #8
 8001314:	2300      	movs	r3, #0
 8001316:	a808      	add	r0, sp, #32
 8001318:	e9cd 2308 	strd	r2, r3, [sp, #32]
 800131c:	f004 f96a 	bl	80055f4 <HAL_RCCEx_PeriphCLKConfig>
 8001320:	b108      	cbz	r0, 8001326 <HAL_I2C_MspInit+0x36>
 8001322:	f7ff fd27 	bl	8000d74 <Error_Handler>
 8001326:	4c35      	ldr	r4, [pc, #212]	@ (80013fc <HAL_I2C_MspInit+0x10c>)
 8001328:	21c0      	movs	r1, #192	@ 0xc0
 800132a:	2600      	movs	r6, #0
 800132c:	4834      	ldr	r0, [pc, #208]	@ (8001400 <HAL_I2C_MspInit+0x110>)
 800132e:	f8d4 30e0 	ldr.w	r3, [r4, #224]	@ 0xe0
 8001332:	f043 0302 	orr.w	r3, r3, #2
 8001336:	f8c4 30e0 	str.w	r3, [r4, #224]	@ 0xe0
 800133a:	f8d4 30e0 	ldr.w	r3, [r4, #224]	@ 0xe0
 800133e:	f003 0302 	and.w	r3, r3, #2
 8001342:	9301      	str	r3, [sp, #4]
 8001344:	9b01      	ldr	r3, [sp, #4]
 8001346:	2312      	movs	r3, #18
 8001348:	e9cd 1303 	strd	r1, r3, [sp, #12]
 800134c:	2301      	movs	r3, #1
 800134e:	a903      	add	r1, sp, #12
 8001350:	e9cd 3605 	strd	r3, r6, [sp, #20]
 8001354:	2304      	movs	r3, #4
 8001356:	9307      	str	r3, [sp, #28]
 8001358:	f002 fa9c 	bl	8003894 <HAL_GPIO_Init>
 800135c:	f8d4 30e8 	ldr.w	r3, [r4, #232]	@ 0xe8
 8001360:	4828      	ldr	r0, [pc, #160]	@ (8001404 <HAL_I2C_MspInit+0x114>)
 8001362:	f443 1300 	orr.w	r3, r3, #2097152	@ 0x200000
 8001366:	f8c4 30e8 	str.w	r3, [r4, #232]	@ 0xe8
 800136a:	f8d4 30e8 	ldr.w	r3, [r4, #232]	@ 0xe8
 800136e:	4c26      	ldr	r4, [pc, #152]	@ (8001408 <HAL_I2C_MspInit+0x118>)
 8001370:	f403 1300 	and.w	r3, r3, #2097152	@ 0x200000
 8001374:	9302      	str	r3, [sp, #8]
 8001376:	9b02      	ldr	r3, [sp, #8]
 8001378:	2322      	movs	r3, #34	@ 0x22
 800137a:	e9c4 0300 	strd	r0, r3, [r4]
 800137e:	2340      	movs	r3, #64	@ 0x40
 8001380:	4620      	mov	r0, r4
 8001382:	e9c4 3602 	strd	r3, r6, [r4, #8]
 8001386:	f44f 6380 	mov.w	r3, #1024	@ 0x400
 800138a:	e9c4 6606 	strd	r6, r6, [r4, #24]
 800138e:	e9c4 3604 	strd	r3, r6, [r4, #16]
 8001392:	e9c4 6608 	strd	r6, r6, [r4, #32]
 8001396:	f001 fac3 	bl	8002920 <HAL_DMA_Init>
 800139a:	b108      	cbz	r0, 80013a0 <HAL_I2C_MspInit+0xb0>
 800139c:	f7ff fcea 	bl	8000d74 <Error_Handler>
 80013a0:	4a1a      	ldr	r2, [pc, #104]	@ (800140c <HAL_I2C_MspInit+0x11c>)
 80013a2:	2321      	movs	r3, #33	@ 0x21
 80013a4:	63ac      	str	r4, [r5, #56]	@ 0x38
 80013a6:	63a5      	str	r5, [r4, #56]	@ 0x38
 80013a8:	4c19      	ldr	r4, [pc, #100]	@ (8001410 <HAL_I2C_MspInit+0x120>)
 80013aa:	e9c4 2300 	strd	r2, r3, [r4]
 80013ae:	2300      	movs	r3, #0
 80013b0:	f44f 6280 	mov.w	r2, #1024	@ 0x400
 80013b4:	4620      	mov	r0, r4
 80013b6:	e9c4 3302 	strd	r3, r3, [r4, #8]
 80013ba:	e9c4 2304 	strd	r2, r3, [r4, #16]
 80013be:	e9c4 3306 	strd	r3, r3, [r4, #24]
 80013c2:	e9c4 3308 	strd	r3, r3, [r4, #32]
 80013c6:	f001 faab 	bl	8002920 <HAL_DMA_Init>
 80013ca:	b108      	cbz	r0, 80013d0 <HAL_I2C_MspInit+0xe0>
 80013cc:	f7ff fcd2 	bl	8000d74 <Error_Handler>
 80013d0:	2200      	movs	r2, #0
 80013d2:	201f      	movs	r0, #31
 80013d4:	63ec      	str	r4, [r5, #60]	@ 0x3c
 80013d6:	4611      	mov	r1, r2
 80013d8:	63a5      	str	r5, [r4, #56]	@ 0x38
 80013da:	f001 f86f 	bl	80024bc <HAL_NVIC_SetPriority>
 80013de:	201f      	movs	r0, #31
 80013e0:	f001 f89e 	bl	8002520 <HAL_NVIC_EnableIRQ>
 80013e4:	2200      	movs	r2, #0
 80013e6:	2020      	movs	r0, #32
 80013e8:	4611      	mov	r1, r2
 80013ea:	f001 f867 	bl	80024bc <HAL_NVIC_SetPriority>
 80013ee:	2020      	movs	r0, #32
 80013f0:	f001 f896 	bl	8002520 <HAL_NVIC_EnableIRQ>
 80013f4:	b038      	add	sp, #224	@ 0xe0
 80013f6:	bd70      	pop	{r4, r5, r6, pc}
 80013f8:	40005400 	.word	0x40005400
 80013fc:	58024400 	.word	0x58024400
 8001400:	58020400 	.word	0x58020400
 8001404:	40020028 	.word	0x40020028
 8001408:	24000338 	.word	0x24000338
 800140c:	40020040 	.word	0x40020040
 8001410:	240002c0 	.word	0x240002c0

08001414 <HAL_SPI_MspInit>:
 8001414:	b510      	push	{r4, lr}
 8001416:	b0b8      	sub	sp, #224	@ 0xe0
 8001418:	4604      	mov	r4, r0
 800141a:	2214      	movs	r2, #20
 800141c:	2100      	movs	r1, #0
 800141e:	a803      	add	r0, sp, #12
 8001420:	f006 fba6 	bl	8007b70 <memset>
 8001424:	22c0      	movs	r2, #192	@ 0xc0
 8001426:	2100      	movs	r1, #0
 8001428:	a808      	add	r0, sp, #32
 800142a:	f006 fba1 	bl	8007b70 <memset>
 800142e:	6822      	ldr	r2, [r4, #0]
 8001430:	4b1f      	ldr	r3, [pc, #124]	@ (80014b0 <HAL_SPI_MspInit+0x9c>)
 8001432:	429a      	cmp	r2, r3
 8001434:	d139      	bne.n	80014aa <HAL_SPI_MspInit+0x96>
 8001436:	f44f 5280 	mov.w	r2, #4096	@ 0x1000
 800143a:	2300      	movs	r3, #0
 800143c:	a808      	add	r0, sp, #32
 800143e:	e9cd 2308 	strd	r2, r3, [sp, #32]
 8001442:	f004 f8d7 	bl	80055f4 <HAL_RCCEx_PeriphCLKConfig>
 8001446:	b108      	cbz	r0, 800144c <HAL_SPI_MspInit+0x38>
 8001448:	f7ff fc94 	bl	8000d74 <Error_Handler>
 800144c:	4b19      	ldr	r3, [pc, #100]	@ (80014b4 <HAL_SPI_MspInit+0xa0>)
 800144e:	2400      	movs	r4, #0
 8001450:	a903      	add	r1, sp, #12
 8001452:	4819      	ldr	r0, [pc, #100]	@ (80014b8 <HAL_SPI_MspInit+0xa4>)
 8001454:	f8d3 20e8 	ldr.w	r2, [r3, #232]	@ 0xe8
 8001458:	f442 4200 	orr.w	r2, r2, #32768	@ 0x8000
 800145c:	f8c3 20e8 	str.w	r2, [r3, #232]	@ 0xe8
 8001460:	f8d3 20e8 	ldr.w	r2, [r3, #232]	@ 0xe8
 8001464:	f402 4200 	and.w	r2, r2, #32768	@ 0x8000
 8001468:	9201      	str	r2, [sp, #4]
 800146a:	9a01      	ldr	r2, [sp, #4]
 800146c:	f8d3 20e0 	ldr.w	r2, [r3, #224]	@ 0xe0
 8001470:	f042 0204 	orr.w	r2, r2, #4
 8001474:	f8c3 20e0 	str.w	r2, [r3, #224]	@ 0xe0
 8001478:	f44f 52e0 	mov.w	r2, #7168	@ 0x1c00
 800147c:	f8d3 30e0 	ldr.w	r3, [r3, #224]	@ 0xe0
 8001480:	f003 0304 	and.w	r3, r3, #4
 8001484:	9302      	str	r3, [sp, #8]
 8001486:	9b02      	ldr	r3, [sp, #8]
 8001488:	2302      	movs	r3, #2
 800148a:	e9cd 2303 	strd	r2, r3, [sp, #12]
 800148e:	2306      	movs	r3, #6
 8001490:	e9cd 4405 	strd	r4, r4, [sp, #20]
 8001494:	9307      	str	r3, [sp, #28]
 8001496:	f002 f9fd 	bl	8003894 <HAL_GPIO_Init>
 800149a:	2033      	movs	r0, #51	@ 0x33
 800149c:	4622      	mov	r2, r4
 800149e:	4621      	mov	r1, r4
 80014a0:	f001 f80c 	bl	80024bc <HAL_NVIC_SetPriority>
 80014a4:	2033      	movs	r0, #51	@ 0x33
 80014a6:	f001 f83b 	bl	8002520 <HAL_NVIC_EnableIRQ>
 80014aa:	b038      	add	sp, #224	@ 0xe0
 80014ac:	bd10      	pop	{r4, pc}
 80014ae:	bf00      	nop
 80014b0:	40003c00 	.word	0x40003c00
 80014b4:	58024400 	.word	0x58024400
 80014b8:	58020800 	.word	0x58020800

080014bc <HAL_TIM_Base_MspInit>:
 80014bc:	b51f      	push	{r0, r1, r2, r3, r4, lr}
 80014be:	6803      	ldr	r3, [r0, #0]
 80014c0:	4a22      	ldr	r2, [pc, #136]	@ (800154c <HAL_TIM_Base_MspInit+0x90>)
 80014c2:	4293      	cmp	r3, r2
 80014c4:	d10f      	bne.n	80014e6 <HAL_TIM_Base_MspInit+0x2a>
 80014c6:	4b22      	ldr	r3, [pc, #136]	@ (8001550 <HAL_TIM_Base_MspInit+0x94>)
 80014c8:	f8d3 20f0 	ldr.w	r2, [r3, #240]	@ 0xf0
 80014cc:	f042 0201 	orr.w	r2, r2, #1
 80014d0:	f8c3 20f0 	str.w	r2, [r3, #240]	@ 0xf0
 80014d4:	f8d3 30f0 	ldr.w	r3, [r3, #240]	@ 0xf0
 80014d8:	f003 0301 	and.w	r3, r3, #1
 80014dc:	9301      	str	r3, [sp, #4]
 80014de:	9b01      	ldr	r3, [sp, #4]
 80014e0:	b005      	add	sp, #20
 80014e2:	f85d fb04 	ldr.w	pc, [sp], #4
 80014e6:	f1b3 4f80 	cmp.w	r3, #1073741824	@ 0x40000000
 80014ea:	d117      	bne.n	800151c <HAL_TIM_Base_MspInit+0x60>
 80014ec:	4b18      	ldr	r3, [pc, #96]	@ (8001550 <HAL_TIM_Base_MspInit+0x94>)
 80014ee:	201c      	movs	r0, #28
 80014f0:	f8d3 20e8 	ldr.w	r2, [r3, #232]	@ 0xe8
 80014f4:	f042 0201 	orr.w	r2, r2, #1
 80014f8:	f8c3 20e8 	str.w	r2, [r3, #232]	@ 0xe8
 80014fc:	2200      	movs	r2, #0
 80014fe:	f8d3 30e8 	ldr.w	r3, [r3, #232]	@ 0xe8
 8001502:	4611      	mov	r1, r2
 8001504:	f003 0301 	and.w	r3, r3, #1
 8001508:	9302      	str	r3, [sp, #8]
 800150a:	9b02      	ldr	r3, [sp, #8]
 800150c:	f000 ffd6 	bl	80024bc <HAL_NVIC_SetPriority>
 8001510:	201c      	movs	r0, #28
 8001512:	b005      	add	sp, #20
 8001514:	f85d eb04 	ldr.w	lr, [sp], #4
 8001518:	f001 b802 	b.w	8002520 <HAL_NVIC_EnableIRQ>
 800151c:	4a0d      	ldr	r2, [pc, #52]	@ (8001554 <HAL_TIM_Base_MspInit+0x98>)
 800151e:	4293      	cmp	r3, r2
 8001520:	d1de      	bne.n	80014e0 <HAL_TIM_Base_MspInit+0x24>
 8001522:	4b0b      	ldr	r3, [pc, #44]	@ (8001550 <HAL_TIM_Base_MspInit+0x94>)
 8001524:	201e      	movs	r0, #30
 8001526:	f8d3 20e8 	ldr.w	r2, [r3, #232]	@ 0xe8
 800152a:	f042 0204 	orr.w	r2, r2, #4
 800152e:	f8c3 20e8 	str.w	r2, [r3, #232]	@ 0xe8
 8001532:	2200      	movs	r2, #0
 8001534:	f8d3 30e8 	ldr.w	r3, [r3, #232]	@ 0xe8
 8001538:	4611      	mov	r1, r2
 800153a:	f003 0304 	and.w	r3, r3, #4
 800153e:	9303      	str	r3, [sp, #12]
 8001540:	9b03      	ldr	r3, [sp, #12]
 8001542:	f000 ffbb 	bl	80024bc <HAL_NVIC_SetPriority>
 8001546:	201e      	movs	r0, #30
 8001548:	e7e3      	b.n	8001512 <HAL_TIM_Base_MspInit+0x56>
 800154a:	bf00      	nop
 800154c:	40010000 	.word	0x40010000
 8001550:	58024400 	.word	0x58024400
 8001554:	40000800 	.word	0x40000800

08001558 <HAL_UART_MspInit>:
 8001558:	b510      	push	{r4, lr}
 800155a:	2214      	movs	r2, #20
 800155c:	b0ba      	sub	sp, #232	@ 0xe8
 800155e:	4604      	mov	r4, r0
 8001560:	2100      	movs	r1, #0
 8001562:	eb0d 0002 	add.w	r0, sp, r2
 8001566:	f006 fb03 	bl	8007b70 <memset>
 800156a:	22c0      	movs	r2, #192	@ 0xc0
 800156c:	2100      	movs	r1, #0
 800156e:	a80a      	add	r0, sp, #40	@ 0x28
 8001570:	f006 fafe 	bl	8007b70 <memset>
 8001574:	6823      	ldr	r3, [r4, #0]
 8001576:	4a38      	ldr	r2, [pc, #224]	@ (8001658 <HAL_UART_MspInit+0x100>)
 8001578:	4293      	cmp	r3, r2
 800157a:	d131      	bne.n	80015e0 <HAL_UART_MspInit+0x88>
 800157c:	2202      	movs	r2, #2
 800157e:	2300      	movs	r3, #0
 8001580:	a80a      	add	r0, sp, #40	@ 0x28
 8001582:	e9cd 230a 	strd	r2, r3, [sp, #40]	@ 0x28
 8001586:	f004 f835 	bl	80055f4 <HAL_RCCEx_PeriphCLKConfig>
 800158a:	b108      	cbz	r0, 8001590 <HAL_UART_MspInit+0x38>
 800158c:	f7ff fbf2 	bl	8000d74 <Error_Handler>
 8001590:	4b32      	ldr	r3, [pc, #200]	@ (800165c <HAL_UART_MspInit+0x104>)
 8001592:	2118      	movs	r1, #24
 8001594:	4832      	ldr	r0, [pc, #200]	@ (8001660 <HAL_UART_MspInit+0x108>)
 8001596:	f8d3 20e8 	ldr.w	r2, [r3, #232]	@ 0xe8
 800159a:	f042 4280 	orr.w	r2, r2, #1073741824	@ 0x40000000
 800159e:	f8c3 20e8 	str.w	r2, [r3, #232]	@ 0xe8
 80015a2:	f8d3 20e8 	ldr.w	r2, [r3, #232]	@ 0xe8
 80015a6:	f002 4280 	and.w	r2, r2, #1073741824	@ 0x40000000
 80015aa:	9201      	str	r2, [sp, #4]
 80015ac:	9a01      	ldr	r2, [sp, #4]
 80015ae:	f8d3 20e0 	ldr.w	r2, [r3, #224]	@ 0xe0
 80015b2:	f042 0202 	orr.w	r2, r2, #2
 80015b6:	f8c3 20e0 	str.w	r2, [r3, #224]	@ 0xe0
 80015ba:	f8d3 30e0 	ldr.w	r3, [r3, #224]	@ 0xe0
 80015be:	f003 0302 	and.w	r3, r3, #2
 80015c2:	9302      	str	r3, [sp, #8]
 80015c4:	9b02      	ldr	r3, [sp, #8]
 80015c6:	2302      	movs	r3, #2
 80015c8:	e9cd 1305 	strd	r1, r3, [sp, #20]
 80015cc:	2300      	movs	r3, #0
 80015ce:	a905      	add	r1, sp, #20
 80015d0:	e9cd 3307 	strd	r3, r3, [sp, #28]
 80015d4:	230b      	movs	r3, #11
 80015d6:	9309      	str	r3, [sp, #36]	@ 0x24
 80015d8:	f002 f95c 	bl	8003894 <HAL_GPIO_Init>
 80015dc:	b03a      	add	sp, #232	@ 0xe8
 80015de:	bd10      	pop	{r4, pc}
 80015e0:	4a20      	ldr	r2, [pc, #128]	@ (8001664 <HAL_UART_MspInit+0x10c>)
 80015e2:	4293      	cmp	r3, r2
 80015e4:	d1fa      	bne.n	80015dc <HAL_UART_MspInit+0x84>
 80015e6:	2202      	movs	r2, #2
 80015e8:	2300      	movs	r3, #0
 80015ea:	a80a      	add	r0, sp, #40	@ 0x28
 80015ec:	e9cd 230a 	strd	r2, r3, [sp, #40]	@ 0x28
 80015f0:	f004 f800 	bl	80055f4 <HAL_RCCEx_PeriphCLKConfig>
 80015f4:	b108      	cbz	r0, 80015fa <HAL_UART_MspInit+0xa2>
 80015f6:	f7ff fbbd 	bl	8000d74 <Error_Handler>
 80015fa:	4b18      	ldr	r3, [pc, #96]	@ (800165c <HAL_UART_MspInit+0x104>)
 80015fc:	2400      	movs	r4, #0
 80015fe:	a905      	add	r1, sp, #20
 8001600:	4819      	ldr	r0, [pc, #100]	@ (8001668 <HAL_UART_MspInit+0x110>)
 8001602:	f8d3 20e8 	ldr.w	r2, [r3, #232]	@ 0xe8
 8001606:	f442 3200 	orr.w	r2, r2, #131072	@ 0x20000
 800160a:	f8c3 20e8 	str.w	r2, [r3, #232]	@ 0xe8
 800160e:	f8d3 20e8 	ldr.w	r2, [r3, #232]	@ 0xe8
 8001612:	f402 3200 	and.w	r2, r2, #131072	@ 0x20000
 8001616:	9203      	str	r2, [sp, #12]
 8001618:	9a03      	ldr	r2, [sp, #12]
 800161a:	f8d3 20e0 	ldr.w	r2, [r3, #224]	@ 0xe0
 800161e:	f042 0208 	orr.w	r2, r2, #8
 8001622:	f8c3 20e0 	str.w	r2, [r3, #224]	@ 0xe0
 8001626:	2260      	movs	r2, #96	@ 0x60
 8001628:	f8d3 30e0 	ldr.w	r3, [r3, #224]	@ 0xe0
 800162c:	f003 0308 	and.w	r3, r3, #8
 8001630:	9304      	str	r3, [sp, #16]
 8001632:	9b04      	ldr	r3, [sp, #16]
 8001634:	2302      	movs	r3, #2
 8001636:	e9cd 2305 	strd	r2, r3, [sp, #20]
 800163a:	2307      	movs	r3, #7
 800163c:	e9cd 4407 	strd	r4, r4, [sp, #28]
 8001640:	9309      	str	r3, [sp, #36]	@ 0x24
 8001642:	f002 f927 	bl	8003894 <HAL_GPIO_Init>
 8001646:	4622      	mov	r2, r4
 8001648:	4621      	mov	r1, r4
 800164a:	2026      	movs	r0, #38	@ 0x26
 800164c:	f000 ff36 	bl	80024bc <HAL_NVIC_SetPriority>
 8001650:	2026      	movs	r0, #38	@ 0x26
 8001652:	f000 ff65 	bl	8002520 <HAL_NVIC_EnableIRQ>
 8001656:	e7c1      	b.n	80015dc <HAL_UART_MspInit+0x84>
 8001658:	40007800 	.word	0x40007800
 800165c:	58024400 	.word	0x58024400
 8001660:	58020400 	.word	0x58020400
 8001664:	40004400 	.word	0x40004400
 8001668:	58020c00 	.word	0x58020c00

0800166c <NMI_Handler>:
 800166c:	e7fe      	b.n	800166c <NMI_Handler>

0800166e <HardFault_Handler>:
 800166e:	e7fe      	b.n	800166e <HardFault_Handler>

08001670 <MemManage_Handler>:
 8001670:	e7fe      	b.n	8001670 <MemManage_Handler>

08001672 <BusFault_Handler>:
 8001672:	e7fe      	b.n	8001672 <BusFault_Handler>

08001674 <UsageFault_Handler>:
 8001674:	e7fe      	b.n	8001674 <UsageFault_Handler>

08001676 <SVC_Handler>:
 8001676:	4770      	bx	lr

08001678 <DebugMon_Handler>:
 8001678:	4770      	bx	lr

0800167a <PendSV_Handler>:
 800167a:	4770      	bx	lr

0800167c <SysTick_Handler>:
 800167c:	f000 b9c4 	b.w	8001a08 <HAL_IncTick>

08001680 <DMA1_Stream0_IRQHandler>:
 8001680:	4801      	ldr	r0, [pc, #4]	@ (8001688 <DMA1_Stream0_IRQHandler+0x8>)
 8001682:	f001 be5d 	b.w	8003340 <HAL_DMA_IRQHandler>
 8001686:	bf00      	nop
 8001688:	24000404 	.word	0x24000404

0800168c <DMA1_Stream1_IRQHandler>:
 800168c:	4801      	ldr	r0, [pc, #4]	@ (8001694 <DMA1_Stream1_IRQHandler+0x8>)
 800168e:	f001 be57 	b.w	8003340 <HAL_DMA_IRQHandler>
 8001692:	bf00      	nop
 8001694:	24000338 	.word	0x24000338

08001698 <DMA1_Stream2_IRQHandler>:
 8001698:	4801      	ldr	r0, [pc, #4]	@ (80016a0 <DMA1_Stream2_IRQHandler+0x8>)
 800169a:	f001 be51 	b.w	8003340 <HAL_DMA_IRQHandler>
 800169e:	bf00      	nop
 80016a0:	240002c0 	.word	0x240002c0

080016a4 <TIM2_IRQHandler>:
 80016a4:	4801      	ldr	r0, [pc, #4]	@ (80016ac <TIM2_IRQHandler+0x8>)
 80016a6:	f005 baa5 	b.w	8006bf4 <HAL_TIM_IRQHandler>
 80016aa:	bf00      	nop
 80016ac:	240001a0 	.word	0x240001a0

080016b0 <TIM4_IRQHandler>:
 80016b0:	4801      	ldr	r0, [pc, #4]	@ (80016b8 <TIM4_IRQHandler+0x8>)
 80016b2:	f005 ba9f 	b.w	8006bf4 <HAL_TIM_IRQHandler>
 80016b6:	bf00      	nop
 80016b8:	24000154 	.word	0x24000154

080016bc <I2C1_EV_IRQHandler>:
 80016bc:	4801      	ldr	r0, [pc, #4]	@ (80016c4 <I2C1_EV_IRQHandler+0x8>)
 80016be:	f002 bb4b 	b.w	8003d58 <HAL_I2C_EV_IRQHandler>
 80016c2:	bf00      	nop
 80016c4:	240003b0 	.word	0x240003b0

080016c8 <I2C1_ER_IRQHandler>:
 80016c8:	4801      	ldr	r0, [pc, #4]	@ (80016d0 <I2C1_ER_IRQHandler+0x8>)
 80016ca:	f002 bee7 	b.w	800449c <HAL_I2C_ER_IRQHandler>
 80016ce:	bf00      	nop
 80016d0:	240003b0 	.word	0x240003b0

080016d4 <USART2_IRQHandler>:
 80016d4:	4801      	ldr	r0, [pc, #4]	@ (80016dc <USART2_IRQHandler+0x8>)
 80016d6:	f005 bd13 	b.w	8007100 <HAL_UART_IRQHandler>
 80016da:	bf00      	nop
 80016dc:	2400002c 	.word	0x2400002c

080016e0 <SPI3_IRQHandler>:
 80016e0:	4801      	ldr	r0, [pc, #4]	@ (80016e8 <SPI3_IRQHandler+0x8>)
 80016e2:	f005 b907 	b.w	80068f4 <HAL_SPI_IRQHandler>
 80016e6:	bf00      	nop
 80016e8:	24000238 	.word	0x24000238

080016ec <SystemInit>:
 80016ec:	4a25      	ldr	r2, [pc, #148]	@ (8001784 <SystemInit+0x98>)
 80016ee:	f8d2 3088 	ldr.w	r3, [r2, #136]	@ 0x88
 80016f2:	f443 0370 	orr.w	r3, r3, #15728640	@ 0xf00000
 80016f6:	f8c2 3088 	str.w	r3, [r2, #136]	@ 0x88
 80016fa:	4a23      	ldr	r2, [pc, #140]	@ (8001788 <SystemInit+0x9c>)
 80016fc:	6813      	ldr	r3, [r2, #0]
 80016fe:	f003 030f 	and.w	r3, r3, #15
 8001702:	2b06      	cmp	r3, #6
 8001704:	d805      	bhi.n	8001712 <SystemInit+0x26>
 8001706:	6813      	ldr	r3, [r2, #0]
 8001708:	f023 030f 	bic.w	r3, r3, #15
 800170c:	f043 0307 	orr.w	r3, r3, #7
 8001710:	6013      	str	r3, [r2, #0]
 8001712:	4b1e      	ldr	r3, [pc, #120]	@ (800178c <SystemInit+0xa0>)
 8001714:	681a      	ldr	r2, [r3, #0]
 8001716:	f042 0201 	orr.w	r2, r2, #1
 800171a:	601a      	str	r2, [r3, #0]
 800171c:	2200      	movs	r2, #0
 800171e:	611a      	str	r2, [r3, #16]
 8001720:	4a1b      	ldr	r2, [pc, #108]	@ (8001790 <SystemInit+0xa4>)
 8001722:	6819      	ldr	r1, [r3, #0]
 8001724:	400a      	ands	r2, r1
 8001726:	4918      	ldr	r1, [pc, #96]	@ (8001788 <SystemInit+0x9c>)
 8001728:	601a      	str	r2, [r3, #0]
 800172a:	680a      	ldr	r2, [r1, #0]
 800172c:	0712      	lsls	r2, r2, #28
 800172e:	d505      	bpl.n	800173c <SystemInit+0x50>
 8001730:	680a      	ldr	r2, [r1, #0]
 8001732:	f022 020f 	bic.w	r2, r2, #15
 8001736:	f042 0207 	orr.w	r2, r2, #7
 800173a:	600a      	str	r2, [r1, #0]
 800173c:	2200      	movs	r2, #0
 800173e:	4915      	ldr	r1, [pc, #84]	@ (8001794 <SystemInit+0xa8>)
 8001740:	619a      	str	r2, [r3, #24]
 8001742:	61da      	str	r2, [r3, #28]
 8001744:	621a      	str	r2, [r3, #32]
 8001746:	6299      	str	r1, [r3, #40]	@ 0x28
 8001748:	4913      	ldr	r1, [pc, #76]	@ (8001798 <SystemInit+0xac>)
 800174a:	62d9      	str	r1, [r3, #44]	@ 0x2c
 800174c:	4913      	ldr	r1, [pc, #76]	@ (800179c <SystemInit+0xb0>)
 800174e:	6319      	str	r1, [r3, #48]	@ 0x30
 8001750:	635a      	str	r2, [r3, #52]	@ 0x34
 8001752:	6399      	str	r1, [r3, #56]	@ 0x38
 8001754:	63da      	str	r2, [r3, #60]	@ 0x3c
 8001756:	6419      	str	r1, [r3, #64]	@ 0x40
 8001758:	645a      	str	r2, [r3, #68]	@ 0x44
 800175a:	6819      	ldr	r1, [r3, #0]
 800175c:	f421 2180 	bic.w	r1, r1, #262144	@ 0x40000
 8001760:	6019      	str	r1, [r3, #0]
 8001762:	661a      	str	r2, [r3, #96]	@ 0x60
 8001764:	4b0e      	ldr	r3, [pc, #56]	@ (80017a0 <SystemInit+0xb4>)
 8001766:	681b      	ldr	r3, [r3, #0]
 8001768:	0c1b      	lsrs	r3, r3, #16
 800176a:	041b      	lsls	r3, r3, #16
 800176c:	f1b3 5f00 	cmp.w	r3, #536870912	@ 0x20000000
 8001770:	d203      	bcs.n	800177a <SystemInit+0x8e>
 8001772:	4b0c      	ldr	r3, [pc, #48]	@ (80017a4 <SystemInit+0xb8>)
 8001774:	2201      	movs	r2, #1
 8001776:	f8c3 2108 	str.w	r2, [r3, #264]	@ 0x108
 800177a:	4b0b      	ldr	r3, [pc, #44]	@ (80017a8 <SystemInit+0xbc>)
 800177c:	f243 02d2 	movw	r2, #12498	@ 0x30d2
 8001780:	601a      	str	r2, [r3, #0]
 8001782:	4770      	bx	lr
 8001784:	e000ed00 	.word	0xe000ed00
 8001788:	52002000 	.word	0x52002000
 800178c:	58024400 	.word	0x58024400
 8001790:	eaf6ed7f 	.word	0xeaf6ed7f
 8001794:	02020200 	.word	0x02020200
 8001798:	01ff0000 	.word	0x01ff0000
 800179c:	01010280 	.word	0x01010280
 80017a0:	5c001000 	.word	0x5c001000
 80017a4:	51008000 	.word	0x51008000
 80017a8:	52004000 	.word	0x52004000
 80017ac:	00000000 	.word	0x00000000

080017b0 <HAL_TIM_PeriodElapsedCallback>:
 80017b0:	6803      	ldr	r3, [r0, #0]
 80017b2:	4a37      	ldr	r2, [pc, #220]	@ (8001890 <HAL_TIM_PeriodElapsedCallback+0xe0>)
 80017b4:	4293      	cmp	r3, r2
 80017b6:	b510      	push	{r4, lr}
 80017b8:	d13b      	bne.n	8001832 <HAL_TIM_PeriodElapsedCallback+0x82>
 80017ba:	4c36      	ldr	r4, [pc, #216]	@ (8001894 <HAL_TIM_PeriodElapsedCallback+0xe4>)
 80017bc:	4b36      	ldr	r3, [pc, #216]	@ (8001898 <HAL_TIM_PeriodElapsedCallback+0xe8>)
 80017be:	6822      	ldr	r2, [r4, #0]
 80017c0:	681b      	ldr	r3, [r3, #0]
 80017c2:	429a      	cmp	r2, r3
 80017c4:	da1b      	bge.n	80017fe <HAL_TIM_PeriodElapsedCallback+0x4e>
 80017c6:	2201      	movs	r2, #1
 80017c8:	f44f 4100 	mov.w	r1, #32768	@ 0x8000
 80017cc:	4833      	ldr	r0, [pc, #204]	@ (800189c <HAL_TIM_PeriodElapsedCallback+0xec>)
 80017ce:	f002 f949 	bl	8003a64 <HAL_GPIO_WritePin>
 80017d2:	2201      	movs	r2, #1
 80017d4:	f44f 5100 	mov.w	r1, #8192	@ 0x2000
 80017d8:	4830      	ldr	r0, [pc, #192]	@ (800189c <HAL_TIM_PeriodElapsedCallback+0xec>)
 80017da:	f002 f943 	bl	8003a64 <HAL_GPIO_WritePin>
 80017de:	2201      	movs	r2, #1
 80017e0:	f44f 4180 	mov.w	r1, #16384	@ 0x4000
 80017e4:	482d      	ldr	r0, [pc, #180]	@ (800189c <HAL_TIM_PeriodElapsedCallback+0xec>)
 80017e6:	f002 f93d 	bl	8003a64 <HAL_GPIO_WritePin>
 80017ea:	2201      	movs	r2, #1
 80017ec:	f44f 5180 	mov.w	r1, #4096	@ 0x1000
 80017f0:	482a      	ldr	r0, [pc, #168]	@ (800189c <HAL_TIM_PeriodElapsedCallback+0xec>)
 80017f2:	f002 f937 	bl	8003a64 <HAL_GPIO_WritePin>
 80017f6:	6823      	ldr	r3, [r4, #0]
 80017f8:	3301      	adds	r3, #1
 80017fa:	6023      	str	r3, [r4, #0]
 80017fc:	bd10      	pop	{r4, pc}
 80017fe:	6823      	ldr	r3, [r4, #0]
 8001800:	2b13      	cmp	r3, #19
 8001802:	dc13      	bgt.n	800182c <HAL_TIM_PeriodElapsedCallback+0x7c>
 8001804:	2200      	movs	r2, #0
 8001806:	f44f 4100 	mov.w	r1, #32768	@ 0x8000
 800180a:	4824      	ldr	r0, [pc, #144]	@ (800189c <HAL_TIM_PeriodElapsedCallback+0xec>)
 800180c:	f002 f92a 	bl	8003a64 <HAL_GPIO_WritePin>
 8001810:	2200      	movs	r2, #0
 8001812:	f44f 5100 	mov.w	r1, #8192	@ 0x2000
 8001816:	4821      	ldr	r0, [pc, #132]	@ (800189c <HAL_TIM_PeriodElapsedCallback+0xec>)
 8001818:	f002 f924 	bl	8003a64 <HAL_GPIO_WritePin>
 800181c:	2200      	movs	r2, #0
 800181e:	f44f 4180 	mov.w	r1, #16384	@ 0x4000
 8001822:	481e      	ldr	r0, [pc, #120]	@ (800189c <HAL_TIM_PeriodElapsedCallback+0xec>)
 8001824:	f002 f91e 	bl	8003a64 <HAL_GPIO_WritePin>
 8001828:	2200      	movs	r2, #0
 800182a:	e7df      	b.n	80017ec <HAL_TIM_PeriodElapsedCallback+0x3c>
 800182c:	2300      	movs	r3, #0
 800182e:	6023      	str	r3, [r4, #0]
 8001830:	e7e1      	b.n	80017f6 <HAL_TIM_PeriodElapsedCallback+0x46>
 8001832:	f1b3 4f80 	cmp.w	r3, #1073741824	@ 0x40000000
 8001836:	d1e1      	bne.n	80017fc <HAL_TIM_PeriodElapsedCallback+0x4c>
 8001838:	4b19      	ldr	r3, [pc, #100]	@ (80018a0 <HAL_TIM_PeriodElapsedCallback+0xf0>)
 800183a:	2100      	movs	r1, #0
 800183c:	4a19      	ldr	r2, [pc, #100]	@ (80018a4 <HAL_TIM_PeriodElapsedCallback+0xf4>)
 800183e:	4c1a      	ldr	r4, [pc, #104]	@ (80018a8 <HAL_TIM_PeriodElapsedCallback+0xf8>)
 8001840:	ed93 7b00 	vldr	d7, [r3]
 8001844:	ed9f 6b10 	vldr	d6, [pc, #64]	@ 8001888 <HAL_TIM_PeriodElapsedCallback+0xd8>
 8001848:	7820      	ldrb	r0, [r4, #0]
 800184a:	ee27 7b06 	vmul.f64	d7, d7, d6
 800184e:	eebd 7bc7 	vcvt.s32.f64	s14, d7
 8001852:	ee17 3a10 	vmov	r3, s14
 8001856:	b21b      	sxth	r3, r3
 8001858:	7013      	strb	r3, [r2, #0]
 800185a:	121b      	asrs	r3, r3, #8
 800185c:	7053      	strb	r3, [r2, #1]
 800185e:	2302      	movs	r3, #2
 8001860:	f7fe ff32 	bl	80006c8 <EEPROM_WriteByte>
 8001864:	7823      	ldrb	r3, [r4, #0]
 8001866:	f44f 7100 	mov.w	r1, #512	@ 0x200
 800186a:	4810      	ldr	r0, [pc, #64]	@ (80018ac <HAL_TIM_PeriodElapsedCallback+0xfc>)
 800186c:	2b40      	cmp	r3, #64	@ 0x40
 800186e:	bf04      	itt	eq
 8001870:	2300      	moveq	r3, #0
 8001872:	7023      	strbeq	r3, [r4, #0]
 8001874:	7823      	ldrb	r3, [r4, #0]
 8001876:	3301      	adds	r3, #1
 8001878:	7023      	strb	r3, [r4, #0]
 800187a:	e8bd 4010 	ldmia.w	sp!, {r4, lr}
 800187e:	f002 b8f6 	b.w	8003a6e <HAL_GPIO_TogglePin>
 8001882:	bf00      	nop
 8001884:	f3af 8000 	nop.w
 8001888:	00000000 	.word	0x00000000
 800188c:	40590000 	.word	0x40590000
 8001890:	40000800 	.word	0x40000800
 8001894:	240007d8 	.word	0x240007d8
 8001898:	240007d4 	.word	0x240007d4
 800189c:	58020c00 	.word	0x58020c00
 80018a0:	24000500 	.word	0x24000500
 80018a4:	240007d0 	.word	0x240007d0
 80018a8:	240004e0 	.word	0x240004e0
 80018ac:	58020400 	.word	0x58020400

080018b0 <mosfet>:
 80018b0:	eef3 7a04 	vmov.f32	s15, #52	@ 0x41a00000  20.0
 80018b4:	4b04      	ldr	r3, [pc, #16]	@ (80018c8 <mosfet+0x18>)
 80018b6:	4805      	ldr	r0, [pc, #20]	@ (80018cc <mosfet+0x1c>)
 80018b8:	ee20 0a27 	vmul.f32	s0, s0, s15
 80018bc:	eebd 0ac0 	vcvt.s32.f32	s0, s0
 80018c0:	ed83 0a00 	vstr	s0, [r3]
 80018c4:	f005 b954 	b.w	8006b70 <HAL_TIM_Base_Start_IT>
 80018c8:	240007d4 	.word	0x240007d4
 80018cc:	24000154 	.word	0x24000154

080018d0 <delay_ns>:
 80018d0:	ee07 0a10 	vmov	s14, r0
 80018d4:	eddf 6a0a 	vldr	s13, [pc, #40]	@ 8001900 <delay_ns+0x30>
 80018d8:	480a      	ldr	r0, [pc, #40]	@ (8001904 <delay_ns+0x34>)
 80018da:	eeb8 7a47 	vcvt.f32.u32	s14, s14
 80018de:	b510      	push	{r4, lr}
 80018e0:	eec7 7a26 	vdiv.f32	s15, s14, s13
 80018e4:	eefc 7ae7 	vcvt.u32.f32	s15, s15
 80018e8:	ee17 4a90 	vmov	r4, s15
 80018ec:	f005 f906 	bl	8006afc <HAL_TIM_Base_Start>
 80018f0:	4a05      	ldr	r2, [pc, #20]	@ (8001908 <delay_ns+0x38>)
 80018f2:	6a51      	ldr	r1, [r2, #36]	@ 0x24
 80018f4:	6a53      	ldr	r3, [r2, #36]	@ 0x24
 80018f6:	1a5b      	subs	r3, r3, r1
 80018f8:	42a3      	cmp	r3, r4
 80018fa:	d3fb      	bcc.n	80018f4 <delay_ns+0x24>
 80018fc:	bd10      	pop	{r4, pc}
 80018fe:	bf00      	nop
 8001900:	41de28f6 	.word	0x41de28f6
 8001904:	240001ec 	.word	0x240001ec
 8001908:	40010000 	.word	0x40010000

0800190c <Reset_Handler>:
 800190c:	f8df d034 	ldr.w	sp, [pc, #52]	@ 8001944 <LoopFillZerobss+0xe>
 8001910:	f7ff feec 	bl	80016ec <SystemInit>
 8001914:	480c      	ldr	r0, [pc, #48]	@ (8001948 <LoopFillZerobss+0x12>)
 8001916:	490d      	ldr	r1, [pc, #52]	@ (800194c <LoopFillZerobss+0x16>)
 8001918:	4a0d      	ldr	r2, [pc, #52]	@ (8001950 <LoopFillZerobss+0x1a>)
 800191a:	2300      	movs	r3, #0
 800191c:	e002      	b.n	8001924 <LoopCopyDataInit>

0800191e <CopyDataInit>:
 800191e:	58d4      	ldr	r4, [r2, r3]
 8001920:	50c4      	str	r4, [r0, r3]
 8001922:	3304      	adds	r3, #4

08001924 <LoopCopyDataInit>:
 8001924:	18c4      	adds	r4, r0, r3
 8001926:	428c      	cmp	r4, r1
 8001928:	d3f9      	bcc.n	800191e <CopyDataInit>
 800192a:	4a0a      	ldr	r2, [pc, #40]	@ (8001954 <LoopFillZerobss+0x1e>)
 800192c:	4c0a      	ldr	r4, [pc, #40]	@ (8001958 <LoopFillZerobss+0x22>)
 800192e:	2300      	movs	r3, #0
 8001930:	e001      	b.n	8001936 <LoopFillZerobss>

08001932 <FillZerobss>:
 8001932:	6013      	str	r3, [r2, #0]
 8001934:	3204      	adds	r2, #4

08001936 <LoopFillZerobss>:
 8001936:	42a2      	cmp	r2, r4
 8001938:	d3fb      	bcc.n	8001932 <FillZerobss>
 800193a:	f006 f921 	bl	8007b80 <__libc_init_array>
 800193e:	f7fe ff4b 	bl	80007d8 <main>
 8001942:	4770      	bx	lr
 8001944:	24080000 	.word	0x24080000
 8001948:	24000000 	.word	0x24000000
 800194c:	24000010 	.word	0x24000010
 8001950:	08007e30 	.word	0x08007e30
 8001954:	24000010 	.word	0x24000010
 8001958:	240007e0 	.word	0x240007e0

0800195c <ADC3_IRQHandler>:
 800195c:	e7fe      	b.n	800195c <ADC3_IRQHandler>
	...

08001960 <HAL_InitTick>:
 8001960:	b538      	push	{r3, r4, r5, lr}
 8001962:	4b0f      	ldr	r3, [pc, #60]	@ (80019a0 <HAL_InitTick+0x40>)
 8001964:	4605      	mov	r5, r0
 8001966:	781a      	ldrb	r2, [r3, #0]
 8001968:	b90a      	cbnz	r2, 800196e <HAL_InitTick+0xe>
 800196a:	2001      	movs	r0, #1
 800196c:	bd38      	pop	{r3, r4, r5, pc}
 800196e:	f44f 737a 	mov.w	r3, #1000	@ 0x3e8
 8001972:	fbb3 f3f2 	udiv	r3, r3, r2
 8001976:	4a0b      	ldr	r2, [pc, #44]	@ (80019a4 <HAL_InitTick+0x44>)
 8001978:	6810      	ldr	r0, [r2, #0]
 800197a:	fbb0 f0f3 	udiv	r0, r0, r3
 800197e:	f000 fddd 	bl	800253c <HAL_SYSTICK_Config>
 8001982:	4604      	mov	r4, r0
 8001984:	2800      	cmp	r0, #0
 8001986:	d1f0      	bne.n	800196a <HAL_InitTick+0xa>
 8001988:	2d0f      	cmp	r5, #15
 800198a:	d8ee      	bhi.n	800196a <HAL_InitTick+0xa>
 800198c:	4602      	mov	r2, r0
 800198e:	4629      	mov	r1, r5
 8001990:	f04f 30ff 	mov.w	r0, #4294967295
 8001994:	f000 fd92 	bl	80024bc <HAL_NVIC_SetPriority>
 8001998:	4b03      	ldr	r3, [pc, #12]	@ (80019a8 <HAL_InitTick+0x48>)
 800199a:	4620      	mov	r0, r4
 800199c:	601d      	str	r5, [r3, #0]
 800199e:	e7e5      	b.n	800196c <HAL_InitTick+0xc>
 80019a0:	24000008 	.word	0x24000008
 80019a4:	24000004 	.word	0x24000004
 80019a8:	2400000c 	.word	0x2400000c

080019ac <HAL_Init>:
 80019ac:	b510      	push	{r4, lr}
 80019ae:	2003      	movs	r0, #3
 80019b0:	f000 fd72 	bl	8002498 <HAL_NVIC_SetPriorityGrouping>
 80019b4:	f003 fb20 	bl	8004ff8 <HAL_RCC_GetSysClockFreq>
 80019b8:	490f      	ldr	r1, [pc, #60]	@ (80019f8 <HAL_Init+0x4c>)
 80019ba:	4a10      	ldr	r2, [pc, #64]	@ (80019fc <HAL_Init+0x50>)
 80019bc:	698b      	ldr	r3, [r1, #24]
 80019be:	f3c3 2303 	ubfx	r3, r3, #8, #4
 80019c2:	5cd3      	ldrb	r3, [r2, r3]
 80019c4:	f003 031f 	and.w	r3, r3, #31
 80019c8:	40d8      	lsrs	r0, r3
 80019ca:	698b      	ldr	r3, [r1, #24]
 80019cc:	f003 030f 	and.w	r3, r3, #15
 80019d0:	5cd3      	ldrb	r3, [r2, r3]
 80019d2:	4a0b      	ldr	r2, [pc, #44]	@ (8001a00 <HAL_Init+0x54>)
 80019d4:	f003 031f 	and.w	r3, r3, #31
 80019d8:	fa20 f303 	lsr.w	r3, r0, r3
 80019dc:	6013      	str	r3, [r2, #0]
 80019de:	4b09      	ldr	r3, [pc, #36]	@ (8001a04 <HAL_Init+0x58>)
 80019e0:	6018      	str	r0, [r3, #0]
 80019e2:	200f      	movs	r0, #15
 80019e4:	f7ff ffbc 	bl	8001960 <HAL_InitTick>
 80019e8:	4604      	mov	r4, r0
 80019ea:	b918      	cbnz	r0, 80019f4 <HAL_Init+0x48>
 80019ec:	f7ff fbe4 	bl	80011b8 <HAL_MspInit>
 80019f0:	4620      	mov	r0, r4
 80019f2:	bd10      	pop	{r4, pc}
 80019f4:	2401      	movs	r4, #1
 80019f6:	e7fb      	b.n	80019f0 <HAL_Init+0x44>
 80019f8:	58024400 	.word	0x58024400
 80019fc:	08007de0 	.word	0x08007de0
 8001a00:	24000000 	.word	0x24000000
 8001a04:	24000004 	.word	0x24000004

08001a08 <HAL_IncTick>:
 8001a08:	4a03      	ldr	r2, [pc, #12]	@ (8001a18 <HAL_IncTick+0x10>)
 8001a0a:	4b04      	ldr	r3, [pc, #16]	@ (8001a1c <HAL_IncTick+0x14>)
 8001a0c:	6811      	ldr	r1, [r2, #0]
 8001a0e:	781b      	ldrb	r3, [r3, #0]
 8001a10:	440b      	add	r3, r1
 8001a12:	6013      	str	r3, [r2, #0]
 8001a14:	4770      	bx	lr
 8001a16:	bf00      	nop
 8001a18:	240007dc 	.word	0x240007dc
 8001a1c:	24000008 	.word	0x24000008

08001a20 <HAL_GetTick>:
 8001a20:	4b01      	ldr	r3, [pc, #4]	@ (8001a28 <HAL_GetTick+0x8>)
 8001a22:	6818      	ldr	r0, [r3, #0]
 8001a24:	4770      	bx	lr
 8001a26:	bf00      	nop
 8001a28:	240007dc 	.word	0x240007dc

08001a2c <HAL_Delay>:
 8001a2c:	b538      	push	{r3, r4, r5, lr}
 8001a2e:	4604      	mov	r4, r0
 8001a30:	f7ff fff6 	bl	8001a20 <HAL_GetTick>
 8001a34:	4605      	mov	r5, r0
 8001a36:	1c63      	adds	r3, r4, #1
 8001a38:	bf1e      	ittt	ne
 8001a3a:	4b04      	ldrne	r3, [pc, #16]	@ (8001a4c <HAL_Delay+0x20>)
 8001a3c:	781b      	ldrbne	r3, [r3, #0]
 8001a3e:	18e4      	addne	r4, r4, r3
 8001a40:	f7ff ffee 	bl	8001a20 <HAL_GetTick>
 8001a44:	1b43      	subs	r3, r0, r5
 8001a46:	42a3      	cmp	r3, r4
 8001a48:	d3fa      	bcc.n	8001a40 <HAL_Delay+0x14>
 8001a4a:	bd38      	pop	{r3, r4, r5, pc}
 8001a4c:	24000008 	.word	0x24000008

08001a50 <HAL_GetREVID>:
 8001a50:	4b01      	ldr	r3, [pc, #4]	@ (8001a58 <HAL_GetREVID+0x8>)
 8001a52:	6818      	ldr	r0, [r3, #0]
 8001a54:	0c00      	lsrs	r0, r0, #16
 8001a56:	4770      	bx	lr
 8001a58:	5c001000 	.word	0x5c001000

08001a5c <LL_ADC_SetChannelSamplingTime>:
 8001a5c:	b530      	push	{r4, r5, lr}
 8001a5e:	0dcc      	lsrs	r4, r1, #23
 8001a60:	3014      	adds	r0, #20
 8001a62:	f3c1 5104 	ubfx	r1, r1, #20, #5
 8001a66:	2507      	movs	r5, #7
 8001a68:	f004 0404 	and.w	r4, r4, #4
 8001a6c:	408d      	lsls	r5, r1
 8001a6e:	408a      	lsls	r2, r1
 8001a70:	5903      	ldr	r3, [r0, r4]
 8001a72:	ea23 0305 	bic.w	r3, r3, r5
 8001a76:	4313      	orrs	r3, r2
 8001a78:	5103      	str	r3, [r0, r4]
 8001a7a:	bd30      	pop	{r4, r5, pc}

08001a7c <LL_ADC_IsEnabled>:
 8001a7c:	6880      	ldr	r0, [r0, #8]
 8001a7e:	f000 0001 	and.w	r0, r0, #1
 8001a82:	4770      	bx	lr

08001a84 <LL_ADC_REG_IsConversionOngoing>:
 8001a84:	6880      	ldr	r0, [r0, #8]
 8001a86:	f3c0 0080 	ubfx	r0, r0, #2, #1
 8001a8a:	4770      	bx	lr

08001a8c <HAL_ADC_ConvHalfCpltCallback>:
 8001a8c:	4770      	bx	lr

08001a8e <ADC_DMAHalfConvCplt>:
 8001a8e:	6b80      	ldr	r0, [r0, #56]	@ 0x38
 8001a90:	b508      	push	{r3, lr}
 8001a92:	f7ff fffb 	bl	8001a8c <HAL_ADC_ConvHalfCpltCallback>
 8001a96:	bd08      	pop	{r3, pc}

08001a98 <HAL_ADC_ErrorCallback>:
 8001a98:	4770      	bx	lr

08001a9a <ADC_DMAConvCplt>:
 8001a9a:	6b83      	ldr	r3, [r0, #56]	@ 0x38
 8001a9c:	6d5a      	ldr	r2, [r3, #84]	@ 0x54
 8001a9e:	f012 0f50 	tst.w	r2, #80	@ 0x50
 8001aa2:	6d5a      	ldr	r2, [r3, #84]	@ 0x54
 8001aa4:	b510      	push	{r4, lr}
 8001aa6:	d121      	bne.n	8001aec <ADC_DMAConvCplt+0x52>
 8001aa8:	f442 7200 	orr.w	r2, r2, #512	@ 0x200
 8001aac:	655a      	str	r2, [r3, #84]	@ 0x54
 8001aae:	681a      	ldr	r2, [r3, #0]
 8001ab0:	6811      	ldr	r1, [r2, #0]
 8001ab2:	0708      	lsls	r0, r1, #28
 8001ab4:	d516      	bpl.n	8001ae4 <ADC_DMAConvCplt+0x4a>
 8001ab6:	68d1      	ldr	r1, [r2, #12]
 8001ab8:	f411 6f40 	tst.w	r1, #3072	@ 0xc00
 8001abc:	d10e      	bne.n	8001adc <ADC_DMAConvCplt+0x42>
 8001abe:	68d2      	ldr	r2, [r2, #12]
 8001ac0:	f412 5f00 	tst.w	r2, #8192	@ 0x2000
 8001ac4:	d10a      	bne.n	8001adc <ADC_DMAConvCplt+0x42>
 8001ac6:	6d5a      	ldr	r2, [r3, #84]	@ 0x54
 8001ac8:	f422 7280 	bic.w	r2, r2, #256	@ 0x100
 8001acc:	655a      	str	r2, [r3, #84]	@ 0x54
 8001ace:	6d5a      	ldr	r2, [r3, #84]	@ 0x54
 8001ad0:	04d1      	lsls	r1, r2, #19
 8001ad2:	d403      	bmi.n	8001adc <ADC_DMAConvCplt+0x42>
 8001ad4:	6d5a      	ldr	r2, [r3, #84]	@ 0x54
 8001ad6:	f042 0201 	orr.w	r2, r2, #1
 8001ada:	655a      	str	r2, [r3, #84]	@ 0x54
 8001adc:	4618      	mov	r0, r3
 8001ade:	f7fe fd73 	bl	80005c8 <HAL_ADC_ConvCpltCallback>
 8001ae2:	bd10      	pop	{r4, pc}
 8001ae4:	68d2      	ldr	r2, [r2, #12]
 8001ae6:	f012 0f03 	tst.w	r2, #3
 8001aea:	e7eb      	b.n	8001ac4 <ADC_DMAConvCplt+0x2a>
 8001aec:	06d2      	lsls	r2, r2, #27
 8001aee:	d503      	bpl.n	8001af8 <ADC_DMAConvCplt+0x5e>
 8001af0:	4618      	mov	r0, r3
 8001af2:	f7ff ffd1 	bl	8001a98 <HAL_ADC_ErrorCallback>
 8001af6:	e7f4      	b.n	8001ae2 <ADC_DMAConvCplt+0x48>
 8001af8:	6cdb      	ldr	r3, [r3, #76]	@ 0x4c
 8001afa:	e8bd 4010 	ldmia.w	sp!, {r4, lr}
 8001afe:	6cdb      	ldr	r3, [r3, #76]	@ 0x4c
 8001b00:	4718      	bx	r3

08001b02 <ADC_DMAError>:
 8001b02:	6b80      	ldr	r0, [r0, #56]	@ 0x38
 8001b04:	b508      	push	{r3, lr}
 8001b06:	6d43      	ldr	r3, [r0, #84]	@ 0x54
 8001b08:	f043 0340 	orr.w	r3, r3, #64	@ 0x40
 8001b0c:	6543      	str	r3, [r0, #84]	@ 0x54
 8001b0e:	6d83      	ldr	r3, [r0, #88]	@ 0x58
 8001b10:	f043 0304 	orr.w	r3, r3, #4
 8001b14:	6583      	str	r3, [r0, #88]	@ 0x58
 8001b16:	f7ff ffbf 	bl	8001a98 <HAL_ADC_ErrorCallback>
 8001b1a:	bd08      	pop	{r3, pc}

08001b1c <HAL_ADC_ConfigChannel>:
 8001b1c:	2300      	movs	r3, #0
 8001b1e:	b5f7      	push	{r0, r1, r2, r4, r5, r6, r7, lr}
 8001b20:	9301      	str	r3, [sp, #4]
 8001b22:	4605      	mov	r5, r0
 8001b24:	f890 3050 	ldrb.w	r3, [r0, #80]	@ 0x50
 8001b28:	460e      	mov	r6, r1
 8001b2a:	2b01      	cmp	r3, #1
 8001b2c:	f000 81a6 	beq.w	8001e7c <HAL_ADC_ConfigChannel+0x360>
 8001b30:	2201      	movs	r2, #1
 8001b32:	6804      	ldr	r4, [r0, #0]
 8001b34:	f880 2050 	strb.w	r2, [r0, #80]	@ 0x50
 8001b38:	4620      	mov	r0, r4
 8001b3a:	f7ff ffa3 	bl	8001a84 <LL_ADC_REG_IsConversionOngoing>
 8001b3e:	2800      	cmp	r0, #0
 8001b40:	f040 8170 	bne.w	8001e24 <HAL_ADC_ConfigChannel+0x308>
 8001b44:	680b      	ldr	r3, [r1, #0]
 8001b46:	2b00      	cmp	r3, #0
 8001b48:	ea4f 6193 	mov.w	r1, r3, lsr #26
 8001b4c:	db07      	blt.n	8001b5e <HAL_ADC_ConfigChannel+0x42>
 8001b4e:	f3c3 0013 	ubfx	r0, r3, #0, #20
 8001b52:	2800      	cmp	r0, #0
 8001b54:	d16a      	bne.n	8001c2c <HAL_ADC_ConfigChannel+0x110>
 8001b56:	408a      	lsls	r2, r1
 8001b58:	69e3      	ldr	r3, [r4, #28]
 8001b5a:	4313      	orrs	r3, r2
 8001b5c:	61e3      	str	r3, [r4, #28]
 8001b5e:	6872      	ldr	r2, [r6, #4]
 8001b60:	f104 0c30 	add.w	ip, r4, #48	@ 0x30
 8001b64:	271f      	movs	r7, #31
 8001b66:	f001 011f 	and.w	r1, r1, #31
 8001b6a:	0990      	lsrs	r0, r2, #6
 8001b6c:	f002 021f 	and.w	r2, r2, #31
 8001b70:	f000 000c 	and.w	r0, r0, #12
 8001b74:	4097      	lsls	r7, r2
 8001b76:	4091      	lsls	r1, r2
 8001b78:	f85c 3000 	ldr.w	r3, [ip, r0]
 8001b7c:	ea23 0307 	bic.w	r3, r3, r7
 8001b80:	430b      	orrs	r3, r1
 8001b82:	f84c 3000 	str.w	r3, [ip, r0]
 8001b86:	4620      	mov	r0, r4
 8001b88:	f7ff ff7c 	bl	8001a84 <LL_ADC_REG_IsConversionOngoing>
 8001b8c:	68a3      	ldr	r3, [r4, #8]
 8001b8e:	f003 0308 	and.w	r3, r3, #8
 8001b92:	4303      	orrs	r3, r0
 8001b94:	d13f      	bne.n	8001c16 <HAL_ADC_ConfigChannel+0xfa>
 8001b96:	68b2      	ldr	r2, [r6, #8]
 8001b98:	4620      	mov	r0, r4
 8001b9a:	6831      	ldr	r1, [r6, #0]
 8001b9c:	f7ff ff5e 	bl	8001a5c <LL_ADC_SetChannelSamplingTime>
 8001ba0:	4bb7      	ldr	r3, [pc, #732]	@ (8001e80 <HAL_ADC_ConfigChannel+0x364>)
 8001ba2:	6972      	ldr	r2, [r6, #20]
 8001ba4:	681b      	ldr	r3, [r3, #0]
 8001ba6:	f003 4370 	and.w	r3, r3, #4026531840	@ 0xf0000000
 8001baa:	f1b3 5f80 	cmp.w	r3, #268435456	@ 0x10000000
 8001bae:	68e3      	ldr	r3, [r4, #12]
 8001bb0:	d145      	bne.n	8001c3e <HAL_ADC_ConfigChannel+0x122>
 8001bb2:	f3c3 0382 	ubfx	r3, r3, #2, #3
 8001bb6:	005b      	lsls	r3, r3, #1
 8001bb8:	6937      	ldr	r7, [r6, #16]
 8001bba:	409a      	lsls	r2, r3
 8001bbc:	6831      	ldr	r1, [r6, #0]
 8001bbe:	2f04      	cmp	r7, #4
 8001bc0:	d045      	beq.n	8001c4e <HAL_ADC_ConfigChannel+0x132>
 8001bc2:	f104 0060 	add.w	r0, r4, #96	@ 0x60
 8001bc6:	f001 41f8 	and.w	r1, r1, #2080374784	@ 0x7c000000
 8001bca:	f850 3027 	ldr.w	r3, [r0, r7, lsl #2]
 8001bce:	f003 4300 	and.w	r3, r3, #2147483648	@ 0x80000000
 8001bd2:	430b      	orrs	r3, r1
 8001bd4:	4313      	orrs	r3, r2
 8001bd6:	f840 3027 	str.w	r3, [r0, r7, lsl #2]
 8001bda:	7e72      	ldrb	r2, [r6, #25]
 8001bdc:	6931      	ldr	r1, [r6, #16]
 8001bde:	1e57      	subs	r7, r2, #1
 8001be0:	f850 3021 	ldr.w	r3, [r0, r1, lsl #2]
 8001be4:	427a      	negs	r2, r7
 8001be6:	f023 4300 	bic.w	r3, r3, #2147483648	@ 0x80000000
 8001bea:	417a      	adcs	r2, r7
 8001bec:	ea43 73c2 	orr.w	r3, r3, r2, lsl #31
 8001bf0:	f840 3021 	str.w	r3, [r0, r1, lsl #2]
 8001bf4:	7e33      	ldrb	r3, [r6, #24]
 8001bf6:	6931      	ldr	r1, [r6, #16]
 8001bf8:	f103 3cff 	add.w	ip, r3, #4294967295
 8001bfc:	6922      	ldr	r2, [r4, #16]
 8001bfe:	f001 011f 	and.w	r1, r1, #31
 8001c02:	f1dc 0300 	rsbs	r3, ip, #0
 8001c06:	f422 42f0 	bic.w	r2, r2, #30720	@ 0x7800
 8001c0a:	eb43 030c 	adc.w	r3, r3, ip
 8001c0e:	02db      	lsls	r3, r3, #11
 8001c10:	408b      	lsls	r3, r1
 8001c12:	4313      	orrs	r3, r2
 8001c14:	6123      	str	r3, [r4, #16]
 8001c16:	4620      	mov	r0, r4
 8001c18:	f7ff ff30 	bl	8001a7c <LL_ADC_IsEnabled>
 8001c1c:	2800      	cmp	r0, #0
 8001c1e:	d03d      	beq.n	8001c9c <HAL_ADC_ConfigChannel+0x180>
 8001c20:	2000      	movs	r0, #0
 8001c22:	2300      	movs	r3, #0
 8001c24:	f885 3050 	strb.w	r3, [r5, #80]	@ 0x50
 8001c28:	b003      	add	sp, #12
 8001c2a:	bdf0      	pop	{r4, r5, r6, r7, pc}
 8001c2c:	fa93 f3a3 	rbit	r3, r3
 8001c30:	fab3 f383 	clz	r3, r3
 8001c34:	2201      	movs	r2, #1
 8001c36:	f003 031f 	and.w	r3, r3, #31
 8001c3a:	409a      	lsls	r2, r3
 8001c3c:	e78c      	b.n	8001b58 <HAL_ADC_ConfigChannel+0x3c>
 8001c3e:	f013 0f10 	tst.w	r3, #16
 8001c42:	68e3      	ldr	r3, [r4, #12]
 8001c44:	d0b5      	beq.n	8001bb2 <HAL_ADC_ConfigChannel+0x96>
 8001c46:	085b      	lsrs	r3, r3, #1
 8001c48:	f003 0308 	and.w	r3, r3, #8
 8001c4c:	e7b4      	b.n	8001bb8 <HAL_ADC_ConfigChannel+0x9c>
 8001c4e:	6e23      	ldr	r3, [r4, #96]	@ 0x60
 8001c50:	068a      	lsls	r2, r1, #26
 8001c52:	f003 43f8 	and.w	r3, r3, #2080374784	@ 0x7c000000
 8001c56:	ebb3 6f81 	cmp.w	r3, r1, lsl #26
 8001c5a:	d103      	bne.n	8001c64 <HAL_ADC_ConfigChannel+0x148>
 8001c5c:	6e23      	ldr	r3, [r4, #96]	@ 0x60
 8001c5e:	f023 4300 	bic.w	r3, r3, #2147483648	@ 0x80000000
 8001c62:	6623      	str	r3, [r4, #96]	@ 0x60
 8001c64:	6e63      	ldr	r3, [r4, #100]	@ 0x64
 8001c66:	f003 43f8 	and.w	r3, r3, #2080374784	@ 0x7c000000
 8001c6a:	429a      	cmp	r2, r3
 8001c6c:	d103      	bne.n	8001c76 <HAL_ADC_ConfigChannel+0x15a>
 8001c6e:	6e63      	ldr	r3, [r4, #100]	@ 0x64
 8001c70:	f023 4300 	bic.w	r3, r3, #2147483648	@ 0x80000000
 8001c74:	6663      	str	r3, [r4, #100]	@ 0x64
 8001c76:	6ea3      	ldr	r3, [r4, #104]	@ 0x68
 8001c78:	f003 43f8 	and.w	r3, r3, #2080374784	@ 0x7c000000
 8001c7c:	429a      	cmp	r2, r3
 8001c7e:	d103      	bne.n	8001c88 <HAL_ADC_ConfigChannel+0x16c>
 8001c80:	6ea3      	ldr	r3, [r4, #104]	@ 0x68
 8001c82:	f023 4300 	bic.w	r3, r3, #2147483648	@ 0x80000000
 8001c86:	66a3      	str	r3, [r4, #104]	@ 0x68
 8001c88:	6ee3      	ldr	r3, [r4, #108]	@ 0x6c
 8001c8a:	f003 43f8 	and.w	r3, r3, #2080374784	@ 0x7c000000
 8001c8e:	429a      	cmp	r2, r3
 8001c90:	d1c1      	bne.n	8001c16 <HAL_ADC_ConfigChannel+0xfa>
 8001c92:	6ee3      	ldr	r3, [r4, #108]	@ 0x6c
 8001c94:	f023 4300 	bic.w	r3, r3, #2147483648	@ 0x80000000
 8001c98:	66e3      	str	r3, [r4, #108]	@ 0x6c
 8001c9a:	e7bc      	b.n	8001c16 <HAL_ADC_ConfigChannel+0xfa>
 8001c9c:	68f7      	ldr	r7, [r6, #12]
 8001c9e:	6833      	ldr	r3, [r6, #0]
 8001ca0:	f007 0c18 	and.w	ip, r7, #24
 8001ca4:	4a77      	ldr	r2, [pc, #476]	@ (8001e84 <HAL_ADC_ConfigChannel+0x368>)
 8001ca6:	f8d4 10c0 	ldr.w	r1, [r4, #192]	@ 0xc0
 8001caa:	f3c3 0013 	ubfx	r0, r3, #0, #20
 8001cae:	fa22 f20c 	lsr.w	r2, r2, ip
 8001cb2:	ea21 0100 	bic.w	r1, r1, r0
 8001cb6:	401a      	ands	r2, r3
 8001cb8:	430a      	orrs	r2, r1
 8001cba:	f8c4 20c0 	str.w	r2, [r4, #192]	@ 0xc0
 8001cbe:	4a72      	ldr	r2, [pc, #456]	@ (8001e88 <HAL_ADC_ConfigChannel+0x36c>)
 8001cc0:	4297      	cmp	r7, r2
 8001cc2:	d11b      	bne.n	8001cfc <HAL_ADC_ConfigChannel+0x1e0>
 8001cc4:	2800      	cmp	r0, #0
 8001cc6:	d158      	bne.n	8001d7a <HAL_ADC_ConfigChannel+0x25e>
 8001cc8:	0e9a      	lsrs	r2, r3, #26
 8001cca:	2101      	movs	r1, #1
 8001ccc:	3201      	adds	r2, #1
 8001cce:	f002 071f 	and.w	r7, r2, #31
 8001cd2:	0692      	lsls	r2, r2, #26
 8001cd4:	2f09      	cmp	r7, #9
 8001cd6:	d870      	bhi.n	8001dba <HAL_ADC_ConfigChannel+0x29e>
 8001cd8:	f002 42f8 	and.w	r2, r2, #2080374784	@ 0x7c000000
 8001cdc:	40b9      	lsls	r1, r7
 8001cde:	430a      	orrs	r2, r1
 8001ce0:	2800      	cmp	r0, #0
 8001ce2:	d165      	bne.n	8001db0 <HAL_ADC_ConfigChannel+0x294>
 8001ce4:	0e99      	lsrs	r1, r3, #26
 8001ce6:	3101      	adds	r1, #1
 8001ce8:	f001 011f 	and.w	r1, r1, #31
 8001cec:	eb01 0141 	add.w	r1, r1, r1, lsl #1
 8001cf0:	0509      	lsls	r1, r1, #20
 8001cf2:	4311      	orrs	r1, r2
 8001cf4:	4620      	mov	r0, r4
 8001cf6:	68b2      	ldr	r2, [r6, #8]
 8001cf8:	f7ff feb0 	bl	8001a5c <LL_ADC_SetChannelSamplingTime>
 8001cfc:	6832      	ldr	r2, [r6, #0]
 8001cfe:	2a00      	cmp	r2, #0
 8001d00:	da8e      	bge.n	8001c20 <HAL_ADC_ConfigChannel+0x104>
 8001d02:	4962      	ldr	r1, [pc, #392]	@ (8001e8c <HAL_ADC_ConfigChannel+0x370>)
 8001d04:	428c      	cmp	r4, r1
 8001d06:	f000 8086 	beq.w	8001e16 <HAL_ADC_ConfigChannel+0x2fa>
 8001d0a:	4e61      	ldr	r6, [pc, #388]	@ (8001e90 <HAL_ADC_ConfigChannel+0x374>)
 8001d0c:	4b61      	ldr	r3, [pc, #388]	@ (8001e94 <HAL_ADC_ConfigChannel+0x378>)
 8001d0e:	4862      	ldr	r0, [pc, #392]	@ (8001e98 <HAL_ADC_ConfigChannel+0x37c>)
 8001d10:	42b4      	cmp	r4, r6
 8001d12:	bf08      	it	eq
 8001d14:	4603      	moveq	r3, r0
 8001d16:	428c      	cmp	r4, r1
 8001d18:	689b      	ldr	r3, [r3, #8]
 8001d1a:	d002      	beq.n	8001d22 <HAL_ADC_ConfigChannel+0x206>
 8001d1c:	495c      	ldr	r1, [pc, #368]	@ (8001e90 <HAL_ADC_ConfigChannel+0x374>)
 8001d1e:	428c      	cmp	r4, r1
 8001d20:	d17b      	bne.n	8001e1a <HAL_ADC_ConfigChannel+0x2fe>
 8001d22:	485a      	ldr	r0, [pc, #360]	@ (8001e8c <HAL_ADC_ConfigChannel+0x370>)
 8001d24:	f7ff feaa 	bl	8001a7c <LL_ADC_IsEnabled>
 8001d28:	4601      	mov	r1, r0
 8001d2a:	4859      	ldr	r0, [pc, #356]	@ (8001e90 <HAL_ADC_ConfigChannel+0x374>)
 8001d2c:	f7ff fea6 	bl	8001a7c <LL_ADC_IsEnabled>
 8001d30:	4301      	orrs	r1, r0
 8001d32:	d177      	bne.n	8001e24 <HAL_ADC_ConfigChannel+0x308>
 8001d34:	4859      	ldr	r0, [pc, #356]	@ (8001e9c <HAL_ADC_ConfigChannel+0x380>)
 8001d36:	f003 71e0 	and.w	r1, r3, #29360128	@ 0x1c00000
 8001d3a:	4282      	cmp	r2, r0
 8001d3c:	d178      	bne.n	8001e30 <HAL_ADC_ConfigChannel+0x314>
 8001d3e:	0218      	lsls	r0, r3, #8
 8001d40:	f53f af6e 	bmi.w	8001c20 <HAL_ADC_ConfigChannel+0x104>
 8001d44:	4b56      	ldr	r3, [pc, #344]	@ (8001ea0 <HAL_ADC_ConfigChannel+0x384>)
 8001d46:	429c      	cmp	r4, r3
 8001d48:	f47f af6a 	bne.w	8001c20 <HAL_ADC_ConfigChannel+0x104>
 8001d4c:	4a51      	ldr	r2, [pc, #324]	@ (8001e94 <HAL_ADC_ConfigChannel+0x378>)
 8001d4e:	6893      	ldr	r3, [r2, #8]
 8001d50:	f023 73e0 	bic.w	r3, r3, #29360128	@ 0x1c00000
 8001d54:	430b      	orrs	r3, r1
 8001d56:	f443 0300 	orr.w	r3, r3, #8388608	@ 0x800000
 8001d5a:	6093      	str	r3, [r2, #8]
 8001d5c:	4b51      	ldr	r3, [pc, #324]	@ (8001ea4 <HAL_ADC_ConfigChannel+0x388>)
 8001d5e:	4a52      	ldr	r2, [pc, #328]	@ (8001ea8 <HAL_ADC_ConfigChannel+0x38c>)
 8001d60:	681b      	ldr	r3, [r3, #0]
 8001d62:	fbb3 f3f2 	udiv	r3, r3, r2
 8001d66:	3301      	adds	r3, #1
 8001d68:	005b      	lsls	r3, r3, #1
 8001d6a:	9301      	str	r3, [sp, #4]
 8001d6c:	9b01      	ldr	r3, [sp, #4]
 8001d6e:	2b00      	cmp	r3, #0
 8001d70:	f43f af56 	beq.w	8001c20 <HAL_ADC_ConfigChannel+0x104>
 8001d74:	9b01      	ldr	r3, [sp, #4]
 8001d76:	3b01      	subs	r3, #1
 8001d78:	e7f7      	b.n	8001d6a <HAL_ADC_ConfigChannel+0x24e>
 8001d7a:	fa93 f2a3 	rbit	r2, r3
 8001d7e:	b132      	cbz	r2, 8001d8e <HAL_ADC_ConfigChannel+0x272>
 8001d80:	fab2 f282 	clz	r2, r2
 8001d84:	3201      	adds	r2, #1
 8001d86:	f002 021f 	and.w	r2, r2, #31
 8001d8a:	2a09      	cmp	r2, #9
 8001d8c:	d825      	bhi.n	8001dda <HAL_ADC_ConfigChannel+0x2be>
 8001d8e:	fa93 f2a3 	rbit	r2, r3
 8001d92:	fab2 f282 	clz	r2, r2
 8001d96:	3201      	adds	r2, #1
 8001d98:	0692      	lsls	r2, r2, #26
 8001d9a:	f002 42f8 	and.w	r2, r2, #2080374784	@ 0x7c000000
 8001d9e:	fa93 f7a3 	rbit	r7, r3
 8001da2:	fab7 f787 	clz	r7, r7
 8001da6:	2101      	movs	r1, #1
 8001da8:	3701      	adds	r7, #1
 8001daa:	f007 071f 	and.w	r7, r7, #31
 8001dae:	e795      	b.n	8001cdc <HAL_ADC_ConfigChannel+0x1c0>
 8001db0:	fa93 f1a3 	rbit	r1, r3
 8001db4:	fab1 f181 	clz	r1, r1
 8001db8:	e795      	b.n	8001ce6 <HAL_ADC_ConfigChannel+0x1ca>
 8001dba:	f002 42f8 	and.w	r2, r2, #2080374784	@ 0x7c000000
 8001dbe:	40b9      	lsls	r1, r7
 8001dc0:	430a      	orrs	r2, r1
 8001dc2:	b9d8      	cbnz	r0, 8001dfc <HAL_ADC_ConfigChannel+0x2e0>
 8001dc4:	0e99      	lsrs	r1, r3, #26
 8001dc6:	3101      	adds	r1, #1
 8001dc8:	f001 011f 	and.w	r1, r1, #31
 8001dcc:	eb01 0141 	add.w	r1, r1, r1, lsl #1
 8001dd0:	391e      	subs	r1, #30
 8001dd2:	0509      	lsls	r1, r1, #20
 8001dd4:	f041 7100 	orr.w	r1, r1, #33554432	@ 0x2000000
 8001dd8:	e78b      	b.n	8001cf2 <HAL_ADC_ConfigChannel+0x1d6>
 8001dda:	fa93 f2a3 	rbit	r2, r3
 8001dde:	fab2 f282 	clz	r2, r2
 8001de2:	3201      	adds	r2, #1
 8001de4:	0692      	lsls	r2, r2, #26
 8001de6:	f002 42f8 	and.w	r2, r2, #2080374784	@ 0x7c000000
 8001dea:	fa93 f7a3 	rbit	r7, r3
 8001dee:	fab7 f787 	clz	r7, r7
 8001df2:	2101      	movs	r1, #1
 8001df4:	3701      	adds	r7, #1
 8001df6:	f007 071f 	and.w	r7, r7, #31
 8001dfa:	e7e0      	b.n	8001dbe <HAL_ADC_ConfigChannel+0x2a2>
 8001dfc:	fa93 f3a3 	rbit	r3, r3
 8001e00:	fab3 f383 	clz	r3, r3
 8001e04:	2103      	movs	r1, #3
 8001e06:	f06f 001d 	mvn.w	r0, #29
 8001e0a:	3301      	adds	r3, #1
 8001e0c:	f003 031f 	and.w	r3, r3, #31
 8001e10:	fb11 0103 	smlabb	r1, r1, r3, r0
 8001e14:	e7dd      	b.n	8001dd2 <HAL_ADC_ConfigChannel+0x2b6>
 8001e16:	4b20      	ldr	r3, [pc, #128]	@ (8001e98 <HAL_ADC_ConfigChannel+0x37c>)
 8001e18:	e77d      	b.n	8001d16 <HAL_ADC_ConfigChannel+0x1fa>
 8001e1a:	4821      	ldr	r0, [pc, #132]	@ (8001ea0 <HAL_ADC_ConfigChannel+0x384>)
 8001e1c:	f7ff fe2e 	bl	8001a7c <LL_ADC_IsEnabled>
 8001e20:	2800      	cmp	r0, #0
 8001e22:	d087      	beq.n	8001d34 <HAL_ADC_ConfigChannel+0x218>
 8001e24:	6d6b      	ldr	r3, [r5, #84]	@ 0x54
 8001e26:	2001      	movs	r0, #1
 8001e28:	f043 0320 	orr.w	r3, r3, #32
 8001e2c:	656b      	str	r3, [r5, #84]	@ 0x54
 8001e2e:	e6f8      	b.n	8001c22 <HAL_ADC_ConfigChannel+0x106>
 8001e30:	481e      	ldr	r0, [pc, #120]	@ (8001eac <HAL_ADC_ConfigChannel+0x390>)
 8001e32:	4282      	cmp	r2, r0
 8001e34:	d10f      	bne.n	8001e56 <HAL_ADC_ConfigChannel+0x33a>
 8001e36:	01da      	lsls	r2, r3, #7
 8001e38:	f53f aef2 	bmi.w	8001c20 <HAL_ADC_ConfigChannel+0x104>
 8001e3c:	4b18      	ldr	r3, [pc, #96]	@ (8001ea0 <HAL_ADC_ConfigChannel+0x384>)
 8001e3e:	429c      	cmp	r4, r3
 8001e40:	f47f aeee 	bne.w	8001c20 <HAL_ADC_ConfigChannel+0x104>
 8001e44:	4a13      	ldr	r2, [pc, #76]	@ (8001e94 <HAL_ADC_ConfigChannel+0x378>)
 8001e46:	6893      	ldr	r3, [r2, #8]
 8001e48:	f023 73e0 	bic.w	r3, r3, #29360128	@ 0x1c00000
 8001e4c:	430b      	orrs	r3, r1
 8001e4e:	f043 7380 	orr.w	r3, r3, #16777216	@ 0x1000000
 8001e52:	6093      	str	r3, [r2, #8]
 8001e54:	e6e4      	b.n	8001c20 <HAL_ADC_ConfigChannel+0x104>
 8001e56:	4816      	ldr	r0, [pc, #88]	@ (8001eb0 <HAL_ADC_ConfigChannel+0x394>)
 8001e58:	4282      	cmp	r2, r0
 8001e5a:	f47f aee1 	bne.w	8001c20 <HAL_ADC_ConfigChannel+0x104>
 8001e5e:	025b      	lsls	r3, r3, #9
 8001e60:	f53f aede 	bmi.w	8001c20 <HAL_ADC_ConfigChannel+0x104>
 8001e64:	4b0e      	ldr	r3, [pc, #56]	@ (8001ea0 <HAL_ADC_ConfigChannel+0x384>)
 8001e66:	429c      	cmp	r4, r3
 8001e68:	f47f aeda 	bne.w	8001c20 <HAL_ADC_ConfigChannel+0x104>
 8001e6c:	4a09      	ldr	r2, [pc, #36]	@ (8001e94 <HAL_ADC_ConfigChannel+0x378>)
 8001e6e:	6893      	ldr	r3, [r2, #8]
 8001e70:	f023 73e0 	bic.w	r3, r3, #29360128	@ 0x1c00000
 8001e74:	430b      	orrs	r3, r1
 8001e76:	f443 0380 	orr.w	r3, r3, #4194304	@ 0x400000
 8001e7a:	e7ea      	b.n	8001e52 <HAL_ADC_ConfigChannel+0x336>
 8001e7c:	2002      	movs	r0, #2
 8001e7e:	e6d3      	b.n	8001c28 <HAL_ADC_ConfigChannel+0x10c>
 8001e80:	5c001000 	.word	0x5c001000
 8001e84:	000fffff 	.word	0x000fffff
 8001e88:	47ff0000 	.word	0x47ff0000
 8001e8c:	40022000 	.word	0x40022000
 8001e90:	40022100 	.word	0x40022100
 8001e94:	58026300 	.word	0x58026300
 8001e98:	40022300 	.word	0x40022300
 8001e9c:	cb840000 	.word	0xcb840000
 8001ea0:	58026000 	.word	0x58026000
 8001ea4:	24000004 	.word	0x24000004
 8001ea8:	00030d40 	.word	0x00030d40
 8001eac:	c7520000 	.word	0xc7520000
 8001eb0:	cfb80000 	.word	0xcfb80000

08001eb4 <ADC_Enable>:
 8001eb4:	6802      	ldr	r2, [r0, #0]
 8001eb6:	b570      	push	{r4, r5, r6, lr}
 8001eb8:	4604      	mov	r4, r0
 8001eba:	4610      	mov	r0, r2
 8001ebc:	f7ff fdde 	bl	8001a7c <LL_ADC_IsEnabled>
 8001ec0:	b108      	cbz	r0, 8001ec6 <ADC_Enable+0x12>
 8001ec2:	2000      	movs	r0, #0
 8001ec4:	bd70      	pop	{r4, r5, r6, pc}
 8001ec6:	6891      	ldr	r1, [r2, #8]
 8001ec8:	4b22      	ldr	r3, [pc, #136]	@ (8001f54 <ADC_Enable+0xa0>)
 8001eca:	4219      	tst	r1, r3
 8001ecc:	d009      	beq.n	8001ee2 <ADC_Enable+0x2e>
 8001ece:	6d63      	ldr	r3, [r4, #84]	@ 0x54
 8001ed0:	2001      	movs	r0, #1
 8001ed2:	f043 0310 	orr.w	r3, r3, #16
 8001ed6:	6563      	str	r3, [r4, #84]	@ 0x54
 8001ed8:	6da3      	ldr	r3, [r4, #88]	@ 0x58
 8001eda:	f043 0301 	orr.w	r3, r3, #1
 8001ede:	65a3      	str	r3, [r4, #88]	@ 0x58
 8001ee0:	e7f0      	b.n	8001ec4 <ADC_Enable+0x10>
 8001ee2:	6893      	ldr	r3, [r2, #8]
 8001ee4:	f023 4300 	bic.w	r3, r3, #2147483648	@ 0x80000000
 8001ee8:	f023 033f 	bic.w	r3, r3, #63	@ 0x3f
 8001eec:	f043 0301 	orr.w	r3, r3, #1
 8001ef0:	6093      	str	r3, [r2, #8]
 8001ef2:	f7ff fd95 	bl	8001a20 <HAL_GetTick>
 8001ef6:	6822      	ldr	r2, [r4, #0]
 8001ef8:	4b17      	ldr	r3, [pc, #92]	@ (8001f58 <ADC_Enable+0xa4>)
 8001efa:	4605      	mov	r5, r0
 8001efc:	4917      	ldr	r1, [pc, #92]	@ (8001f5c <ADC_Enable+0xa8>)
 8001efe:	429a      	cmp	r2, r3
 8001f00:	d00e      	beq.n	8001f20 <ADC_Enable+0x6c>
 8001f02:	f103 53c0 	add.w	r3, r3, #402653184	@ 0x18000000
 8001f06:	4816      	ldr	r0, [pc, #88]	@ (8001f60 <ADC_Enable+0xac>)
 8001f08:	f503 4386 	add.w	r3, r3, #17152	@ 0x4300
 8001f0c:	428a      	cmp	r2, r1
 8001f0e:	bf08      	it	eq
 8001f10:	4603      	moveq	r3, r0
 8001f12:	428a      	cmp	r2, r1
 8001f14:	689b      	ldr	r3, [r3, #8]
 8001f16:	d101      	bne.n	8001f1c <ADC_Enable+0x68>
 8001f18:	06d9      	lsls	r1, r3, #27
 8001f1a:	d1d2      	bne.n	8001ec2 <ADC_Enable+0xe>
 8001f1c:	4e11      	ldr	r6, [pc, #68]	@ (8001f64 <ADC_Enable+0xb0>)
 8001f1e:	e013      	b.n	8001f48 <ADC_Enable+0x94>
 8001f20:	4b0f      	ldr	r3, [pc, #60]	@ (8001f60 <ADC_Enable+0xac>)
 8001f22:	e7f6      	b.n	8001f12 <ADC_Enable+0x5e>
 8001f24:	4610      	mov	r0, r2
 8001f26:	f7ff fda9 	bl	8001a7c <LL_ADC_IsEnabled>
 8001f2a:	b920      	cbnz	r0, 8001f36 <ADC_Enable+0x82>
 8001f2c:	6893      	ldr	r3, [r2, #8]
 8001f2e:	4033      	ands	r3, r6
 8001f30:	f043 0301 	orr.w	r3, r3, #1
 8001f34:	6093      	str	r3, [r2, #8]
 8001f36:	f7ff fd73 	bl	8001a20 <HAL_GetTick>
 8001f3a:	1b40      	subs	r0, r0, r5
 8001f3c:	2802      	cmp	r0, #2
 8001f3e:	d903      	bls.n	8001f48 <ADC_Enable+0x94>
 8001f40:	6823      	ldr	r3, [r4, #0]
 8001f42:	681b      	ldr	r3, [r3, #0]
 8001f44:	07da      	lsls	r2, r3, #31
 8001f46:	d5c2      	bpl.n	8001ece <ADC_Enable+0x1a>
 8001f48:	6822      	ldr	r2, [r4, #0]
 8001f4a:	6813      	ldr	r3, [r2, #0]
 8001f4c:	07db      	lsls	r3, r3, #31
 8001f4e:	d5e9      	bpl.n	8001f24 <ADC_Enable+0x70>
 8001f50:	e7b7      	b.n	8001ec2 <ADC_Enable+0xe>
 8001f52:	bf00      	nop
 8001f54:	8000003f 	.word	0x8000003f
 8001f58:	40022000 	.word	0x40022000
 8001f5c:	40022100 	.word	0x40022100
 8001f60:	40022300 	.word	0x40022300
 8001f64:	7fffffc0 	.word	0x7fffffc0

08001f68 <HAL_ADC_Start_DMA>:
 8001f68:	e92d 41f0 	stmdb	sp!, {r4, r5, r6, r7, r8, lr}
 8001f6c:	4b3c      	ldr	r3, [pc, #240]	@ (8002060 <HAL_ADC_Start_DMA+0xf8>)
 8001f6e:	4604      	mov	r4, r0
 8001f70:	6800      	ldr	r0, [r0, #0]
 8001f72:	460e      	mov	r6, r1
 8001f74:	4617      	mov	r7, r2
 8001f76:	4298      	cmp	r0, r3
 8001f78:	d068      	beq.n	800204c <HAL_ADC_Start_DMA+0xe4>
 8001f7a:	f103 53c0 	add.w	r3, r3, #402653184	@ 0x18000000
 8001f7e:	4939      	ldr	r1, [pc, #228]	@ (8002064 <HAL_ADC_Start_DMA+0xfc>)
 8001f80:	4a39      	ldr	r2, [pc, #228]	@ (8002068 <HAL_ADC_Start_DMA+0x100>)
 8001f82:	f503 4386 	add.w	r3, r3, #17152	@ 0x4300
 8001f86:	4288      	cmp	r0, r1
 8001f88:	bf08      	it	eq
 8001f8a:	4613      	moveq	r3, r2
 8001f8c:	689b      	ldr	r3, [r3, #8]
 8001f8e:	f7ff fd79 	bl	8001a84 <LL_ADC_REG_IsConversionOngoing>
 8001f92:	4605      	mov	r5, r0
 8001f94:	2800      	cmp	r0, #0
 8001f96:	d161      	bne.n	800205c <HAL_ADC_Start_DMA+0xf4>
 8001f98:	f894 2050 	ldrb.w	r2, [r4, #80]	@ 0x50
 8001f9c:	2a01      	cmp	r2, #1
 8001f9e:	d05d      	beq.n	800205c <HAL_ADC_Start_DMA+0xf4>
 8001fa0:	f003 081f 	and.w	r8, r3, #31
 8001fa4:	f240 2321 	movw	r3, #545	@ 0x221
 8001fa8:	2001      	movs	r0, #1
 8001faa:	fa23 f308 	lsr.w	r3, r3, r8
 8001fae:	f884 0050 	strb.w	r0, [r4, #80]	@ 0x50
 8001fb2:	4003      	ands	r3, r0
 8001fb4:	d04f      	beq.n	8002056 <HAL_ADC_Start_DMA+0xee>
 8001fb6:	4620      	mov	r0, r4
 8001fb8:	f7ff ff7c 	bl	8001eb4 <ADC_Enable>
 8001fbc:	2800      	cmp	r0, #0
 8001fbe:	d147      	bne.n	8002050 <HAL_ADC_Start_DMA+0xe8>
 8001fc0:	6d60      	ldr	r0, [r4, #84]	@ 0x54
 8001fc2:	6821      	ldr	r1, [r4, #0]
 8001fc4:	f420 6070 	bic.w	r0, r0, #3840	@ 0xf00
 8001fc8:	4b26      	ldr	r3, [pc, #152]	@ (8002064 <HAL_ADC_Start_DMA+0xfc>)
 8001fca:	f020 0001 	bic.w	r0, r0, #1
 8001fce:	4299      	cmp	r1, r3
 8001fd0:	f440 7080 	orr.w	r0, r0, #256	@ 0x100
 8001fd4:	6560      	str	r0, [r4, #84]	@ 0x54
 8001fd6:	d102      	bne.n	8001fde <HAL_ADC_Start_DMA+0x76>
 8001fd8:	f1b8 0f00 	cmp.w	r8, #0
 8001fdc:	d103      	bne.n	8001fe6 <HAL_ADC_Start_DMA+0x7e>
 8001fde:	6d63      	ldr	r3, [r4, #84]	@ 0x54
 8001fe0:	f423 1380 	bic.w	r3, r3, #1048576	@ 0x100000
 8001fe4:	6563      	str	r3, [r4, #84]	@ 0x54
 8001fe6:	6d63      	ldr	r3, [r4, #84]	@ 0x54
 8001fe8:	f413 5380 	ands.w	r3, r3, #4096	@ 0x1000
 8001fec:	d002      	beq.n	8001ff4 <HAL_ADC_Start_DMA+0x8c>
 8001fee:	6da3      	ldr	r3, [r4, #88]	@ 0x58
 8001ff0:	f023 0306 	bic.w	r3, r3, #6
 8001ff4:	65a3      	str	r3, [r4, #88]	@ 0x58
 8001ff6:	3140      	adds	r1, #64	@ 0x40
 8001ff8:	6ce0      	ldr	r0, [r4, #76]	@ 0x4c
 8001ffa:	4b1c      	ldr	r3, [pc, #112]	@ (800206c <HAL_ADC_Start_DMA+0x104>)
 8001ffc:	6ae2      	ldr	r2, [r4, #44]	@ 0x2c
 8001ffe:	63c3      	str	r3, [r0, #60]	@ 0x3c
 8002000:	4b1b      	ldr	r3, [pc, #108]	@ (8002070 <HAL_ADC_Start_DMA+0x108>)
 8002002:	6403      	str	r3, [r0, #64]	@ 0x40
 8002004:	4b1b      	ldr	r3, [pc, #108]	@ (8002074 <HAL_ADC_Start_DMA+0x10c>)
 8002006:	64c3      	str	r3, [r0, #76]	@ 0x4c
 8002008:	231c      	movs	r3, #28
 800200a:	f841 3c40 	str.w	r3, [r1, #-64]
 800200e:	2300      	movs	r3, #0
 8002010:	f884 3050 	strb.w	r3, [r4, #80]	@ 0x50
 8002014:	f851 3c3c 	ldr.w	r3, [r1, #-60]
 8002018:	f043 0310 	orr.w	r3, r3, #16
 800201c:	f841 3c3c 	str.w	r3, [r1, #-60]
 8002020:	f851 3c34 	ldr.w	r3, [r1, #-52]
 8002024:	f023 0303 	bic.w	r3, r3, #3
 8002028:	4313      	orrs	r3, r2
 800202a:	4632      	mov	r2, r6
 800202c:	f841 3c34 	str.w	r3, [r1, #-52]
 8002030:	463b      	mov	r3, r7
 8002032:	f000 fe35 	bl	8002ca0 <HAL_DMA_Start_IT>
 8002036:	6822      	ldr	r2, [r4, #0]
 8002038:	6893      	ldr	r3, [r2, #8]
 800203a:	f023 4300 	bic.w	r3, r3, #2147483648	@ 0x80000000
 800203e:	f023 033f 	bic.w	r3, r3, #63	@ 0x3f
 8002042:	f043 0304 	orr.w	r3, r3, #4
 8002046:	6093      	str	r3, [r2, #8]
 8002048:	e8bd 81f0 	ldmia.w	sp!, {r4, r5, r6, r7, r8, pc}
 800204c:	4b06      	ldr	r3, [pc, #24]	@ (8002068 <HAL_ADC_Start_DMA+0x100>)
 800204e:	e79d      	b.n	8001f8c <HAL_ADC_Start_DMA+0x24>
 8002050:	f884 5050 	strb.w	r5, [r4, #80]	@ 0x50
 8002054:	e7f8      	b.n	8002048 <HAL_ADC_Start_DMA+0xe0>
 8002056:	f884 3050 	strb.w	r3, [r4, #80]	@ 0x50
 800205a:	e7f5      	b.n	8002048 <HAL_ADC_Start_DMA+0xe0>
 800205c:	2002      	movs	r0, #2
 800205e:	e7f3      	b.n	8002048 <HAL_ADC_Start_DMA+0xe0>
 8002060:	40022000 	.word	0x40022000
 8002064:	40022100 	.word	0x40022100
 8002068:	40022300 	.word	0x40022300
 800206c:	08001a9b 	.word	0x08001a9b
 8002070:	08001a8f 	.word	0x08001a8f
 8002074:	08001b03 	.word	0x08001b03

08002078 <ADC_ConfigureBoostMode>:
 8002078:	b538      	push	{r3, r4, r5, lr}
 800207a:	4a43      	ldr	r2, [pc, #268]	@ (8002188 <ADC_ConfigureBoostMode+0x110>)
 800207c:	4605      	mov	r5, r0
 800207e:	6803      	ldr	r3, [r0, #0]
 8002080:	4293      	cmp	r3, r2
 8002082:	d003      	beq.n	800208c <ADC_ConfigureBoostMode+0x14>
 8002084:	f502 7280 	add.w	r2, r2, #256	@ 0x100
 8002088:	4293      	cmp	r3, r2
 800208a:	d125      	bne.n	80020d8 <ADC_ConfigureBoostMode+0x60>
 800208c:	4b3f      	ldr	r3, [pc, #252]	@ (800218c <ADC_ConfigureBoostMode+0x114>)
 800208e:	689b      	ldr	r3, [r3, #8]
 8002090:	f413 3f40 	tst.w	r3, #196608	@ 0x30000
 8002094:	bf14      	ite	ne
 8002096:	2301      	movne	r3, #1
 8002098:	2300      	moveq	r3, #0
 800209a:	b9fb      	cbnz	r3, 80020dc <ADC_ConfigureBoostMode+0x64>
 800209c:	f44f 2000 	mov.w	r0, #524288	@ 0x80000
 80020a0:	2100      	movs	r1, #0
 80020a2:	f004 f99f 	bl	80063e4 <HAL_RCCEx_GetPeriphCLKFreq>
 80020a6:	686b      	ldr	r3, [r5, #4]
 80020a8:	4604      	mov	r4, r0
 80020aa:	f5b3 1f10 	cmp.w	r3, #2359296	@ 0x240000
 80020ae:	d04a      	beq.n	8002146 <ADC_ConfigureBoostMode+0xce>
 80020b0:	d83f      	bhi.n	8002132 <ADC_ConfigureBoostMode+0xba>
 80020b2:	f5b3 1fe0 	cmp.w	r3, #1835008	@ 0x1c0000
 80020b6:	d044      	beq.n	8002142 <ADC_ConfigureBoostMode+0xca>
 80020b8:	d836      	bhi.n	8002128 <ADC_ConfigureBoostMode+0xb0>
 80020ba:	f5b3 1f80 	cmp.w	r3, #1048576	@ 0x100000
 80020be:	d008      	beq.n	80020d2 <ADC_ConfigureBoostMode+0x5a>
 80020c0:	d82c      	bhi.n	800211c <ADC_ConfigureBoostMode+0xa4>
 80020c2:	f5b3 2f00 	cmp.w	r3, #524288	@ 0x80000
 80020c6:	d004      	beq.n	80020d2 <ADC_ConfigureBoostMode+0x5a>
 80020c8:	f423 2200 	bic.w	r2, r3, #524288	@ 0x80000
 80020cc:	f5b2 2f80 	cmp.w	r2, #262144	@ 0x40000
 80020d0:	d116      	bne.n	8002100 <ADC_ConfigureBoostMode+0x88>
 80020d2:	0c9b      	lsrs	r3, r3, #18
 80020d4:	005b      	lsls	r3, r3, #1
 80020d6:	e00f      	b.n	80020f8 <ADC_ConfigureBoostMode+0x80>
 80020d8:	4b2d      	ldr	r3, [pc, #180]	@ (8002190 <ADC_ConfigureBoostMode+0x118>)
 80020da:	e7d8      	b.n	800208e <ADC_ConfigureBoostMode+0x16>
 80020dc:	f003 f954 	bl	8005388 <HAL_RCC_GetHCLKFreq>
 80020e0:	686b      	ldr	r3, [r5, #4]
 80020e2:	4604      	mov	r4, r0
 80020e4:	f5b3 3f00 	cmp.w	r3, #131072	@ 0x20000
 80020e8:	d005      	beq.n	80020f6 <ADC_ConfigureBoostMode+0x7e>
 80020ea:	f5b3 3f40 	cmp.w	r3, #196608	@ 0x30000
 80020ee:	d006      	beq.n	80020fe <ADC_ConfigureBoostMode+0x86>
 80020f0:	f5b3 3f80 	cmp.w	r3, #65536	@ 0x10000
 80020f4:	d104      	bne.n	8002100 <ADC_ConfigureBoostMode+0x88>
 80020f6:	0c1b      	lsrs	r3, r3, #16
 80020f8:	fbb4 f4f3 	udiv	r4, r4, r3
 80020fc:	e000      	b.n	8002100 <ADC_ConfigureBoostMode+0x88>
 80020fe:	0884      	lsrs	r4, r0, #2
 8002100:	f7ff fca6 	bl	8001a50 <HAL_GetREVID>
 8002104:	f241 0303 	movw	r3, #4099	@ 0x1003
 8002108:	4298      	cmp	r0, r3
 800210a:	682b      	ldr	r3, [r5, #0]
 800210c:	d823      	bhi.n	8002156 <ADC_ConfigureBoostMode+0xde>
 800210e:	4a21      	ldr	r2, [pc, #132]	@ (8002194 <ADC_ConfigureBoostMode+0x11c>)
 8002110:	4294      	cmp	r4, r2
 8002112:	689a      	ldr	r2, [r3, #8]
 8002114:	d91b      	bls.n	800214e <ADC_ConfigureBoostMode+0xd6>
 8002116:	f442 7280 	orr.w	r2, r2, #256	@ 0x100
 800211a:	e01a      	b.n	8002152 <ADC_ConfigureBoostMode+0xda>
 800211c:	f5b3 1fa0 	cmp.w	r3, #1310720	@ 0x140000
 8002120:	d0d7      	beq.n	80020d2 <ADC_ConfigureBoostMode+0x5a>
 8002122:	f5b3 1fc0 	cmp.w	r3, #1572864	@ 0x180000
 8002126:	e7d3      	b.n	80020d0 <ADC_ConfigureBoostMode+0x58>
 8002128:	f5b3 1f00 	cmp.w	r3, #2097152	@ 0x200000
 800212c:	d1e8      	bne.n	8002100 <ADC_ConfigureBoostMode+0x88>
 800212e:	0944      	lsrs	r4, r0, #5
 8002130:	e7e6      	b.n	8002100 <ADC_ConfigureBoostMode+0x88>
 8002132:	f5b3 1f20 	cmp.w	r3, #2621440	@ 0x280000
 8002136:	d008      	beq.n	800214a <ADC_ConfigureBoostMode+0xd2>
 8002138:	f5b3 1f30 	cmp.w	r3, #2883584	@ 0x2c0000
 800213c:	d1e0      	bne.n	8002100 <ADC_ConfigureBoostMode+0x88>
 800213e:	0a04      	lsrs	r4, r0, #8
 8002140:	e7de      	b.n	8002100 <ADC_ConfigureBoostMode+0x88>
 8002142:	0904      	lsrs	r4, r0, #4
 8002144:	e7dc      	b.n	8002100 <ADC_ConfigureBoostMode+0x88>
 8002146:	0984      	lsrs	r4, r0, #6
 8002148:	e7da      	b.n	8002100 <ADC_ConfigureBoostMode+0x88>
 800214a:	09c4      	lsrs	r4, r0, #7
 800214c:	e7d8      	b.n	8002100 <ADC_ConfigureBoostMode+0x88>
 800214e:	f422 7280 	bic.w	r2, r2, #256	@ 0x100
 8002152:	609a      	str	r2, [r3, #8]
 8002154:	bd38      	pop	{r3, r4, r5, pc}
 8002156:	4a10      	ldr	r2, [pc, #64]	@ (8002198 <ADC_ConfigureBoostMode+0x120>)
 8002158:	4294      	cmp	r4, r2
 800215a:	d803      	bhi.n	8002164 <ADC_ConfigureBoostMode+0xec>
 800215c:	689a      	ldr	r2, [r3, #8]
 800215e:	f422 7240 	bic.w	r2, r2, #768	@ 0x300
 8002162:	e7f6      	b.n	8002152 <ADC_ConfigureBoostMode+0xda>
 8002164:	4a0d      	ldr	r2, [pc, #52]	@ (800219c <ADC_ConfigureBoostMode+0x124>)
 8002166:	4294      	cmp	r4, r2
 8002168:	d803      	bhi.n	8002172 <ADC_ConfigureBoostMode+0xfa>
 800216a:	689a      	ldr	r2, [r3, #8]
 800216c:	f422 7240 	bic.w	r2, r2, #768	@ 0x300
 8002170:	e7d1      	b.n	8002116 <ADC_ConfigureBoostMode+0x9e>
 8002172:	4a0b      	ldr	r2, [pc, #44]	@ (80021a0 <ADC_ConfigureBoostMode+0x128>)
 8002174:	4294      	cmp	r4, r2
 8002176:	689a      	ldr	r2, [r3, #8]
 8002178:	bf96      	itet	ls
 800217a:	f422 7240 	bicls.w	r2, r2, #768	@ 0x300
 800217e:	f442 7240 	orrhi.w	r2, r2, #768	@ 0x300
 8002182:	f442 7200 	orrls.w	r2, r2, #512	@ 0x200
 8002186:	e7e4      	b.n	8002152 <ADC_ConfigureBoostMode+0xda>
 8002188:	40022000 	.word	0x40022000
 800218c:	40022300 	.word	0x40022300
 8002190:	58026300 	.word	0x58026300
 8002194:	01312d00 	.word	0x01312d00
 8002198:	00bebc21 	.word	0x00bebc21
 800219c:	017d7841 	.word	0x017d7841
 80021a0:	02faf081 	.word	0x02faf081

080021a4 <HAL_ADC_Init>:
 80021a4:	2300      	movs	r3, #0
 80021a6:	b573      	push	{r0, r1, r4, r5, r6, lr}
 80021a8:	4604      	mov	r4, r0
 80021aa:	9301      	str	r3, [sp, #4]
 80021ac:	2800      	cmp	r0, #0
 80021ae:	f000 80f0 	beq.w	8002392 <HAL_ADC_Init+0x1ee>
 80021b2:	6d45      	ldr	r5, [r0, #84]	@ 0x54
 80021b4:	b925      	cbnz	r5, 80021c0 <HAL_ADC_Init+0x1c>
 80021b6:	f7ff f811 	bl	80011dc <HAL_ADC_MspInit>
 80021ba:	65a5      	str	r5, [r4, #88]	@ 0x58
 80021bc:	f884 5050 	strb.w	r5, [r4, #80]	@ 0x50
 80021c0:	6823      	ldr	r3, [r4, #0]
 80021c2:	689a      	ldr	r2, [r3, #8]
 80021c4:	0090      	lsls	r0, r2, #2
 80021c6:	d505      	bpl.n	80021d4 <HAL_ADC_Init+0x30>
 80021c8:	689a      	ldr	r2, [r3, #8]
 80021ca:	f022 4220 	bic.w	r2, r2, #2684354560	@ 0xa0000000
 80021ce:	f022 023f 	bic.w	r2, r2, #63	@ 0x3f
 80021d2:	609a      	str	r2, [r3, #8]
 80021d4:	689a      	ldr	r2, [r3, #8]
 80021d6:	00d1      	lsls	r1, r2, #3
 80021d8:	f140 809d 	bpl.w	8002316 <HAL_ADC_Init+0x172>
 80021dc:	689a      	ldr	r2, [r3, #8]
 80021de:	00d2      	lsls	r2, r2, #3
 80021e0:	f100 80af 	bmi.w	8002342 <HAL_ADC_Init+0x19e>
 80021e4:	6d62      	ldr	r2, [r4, #84]	@ 0x54
 80021e6:	2501      	movs	r5, #1
 80021e8:	f042 0210 	orr.w	r2, r2, #16
 80021ec:	6562      	str	r2, [r4, #84]	@ 0x54
 80021ee:	6da2      	ldr	r2, [r4, #88]	@ 0x58
 80021f0:	f042 0201 	orr.w	r2, r2, #1
 80021f4:	65a2      	str	r2, [r4, #88]	@ 0x58
 80021f6:	4618      	mov	r0, r3
 80021f8:	f7ff fc44 	bl	8001a84 <LL_ADC_REG_IsConversionOngoing>
 80021fc:	6d62      	ldr	r2, [r4, #84]	@ 0x54
 80021fe:	f002 0210 	and.w	r2, r2, #16
 8002202:	4302      	orrs	r2, r0
 8002204:	f040 80c1 	bne.w	800238a <HAL_ADC_Init+0x1e6>
 8002208:	6d62      	ldr	r2, [r4, #84]	@ 0x54
 800220a:	4618      	mov	r0, r3
 800220c:	f422 7281 	bic.w	r2, r2, #258	@ 0x102
 8002210:	f042 0202 	orr.w	r2, r2, #2
 8002214:	6562      	str	r2, [r4, #84]	@ 0x54
 8002216:	f7ff fc31 	bl	8001a7c <LL_ADC_IsEnabled>
 800221a:	b980      	cbnz	r0, 800223e <HAL_ADC_Init+0x9a>
 800221c:	4e5e      	ldr	r6, [pc, #376]	@ (8002398 <HAL_ADC_Init+0x1f4>)
 800221e:	495f      	ldr	r1, [pc, #380]	@ (800239c <HAL_ADC_Init+0x1f8>)
 8002220:	42b3      	cmp	r3, r6
 8002222:	d002      	beq.n	800222a <HAL_ADC_Init+0x86>
 8002224:	428b      	cmp	r3, r1
 8002226:	f040 808e 	bne.w	8002346 <HAL_ADC_Init+0x1a2>
 800222a:	485b      	ldr	r0, [pc, #364]	@ (8002398 <HAL_ADC_Init+0x1f4>)
 800222c:	f7ff fc26 	bl	8001a7c <LL_ADC_IsEnabled>
 8002230:	4602      	mov	r2, r0
 8002232:	485a      	ldr	r0, [pc, #360]	@ (800239c <HAL_ADC_Init+0x1f8>)
 8002234:	f7ff fc22 	bl	8001a7c <LL_ADC_IsEnabled>
 8002238:	4302      	orrs	r2, r0
 800223a:	f000 8092 	beq.w	8002362 <HAL_ADC_Init+0x1be>
 800223e:	f7ff fc07 	bl	8001a50 <HAL_GetREVID>
 8002242:	f241 0303 	movw	r3, #4099	@ 0x1003
 8002246:	7f21      	ldrb	r1, [r4, #28]
 8002248:	4298      	cmp	r0, r3
 800224a:	7d62      	ldrb	r2, [r4, #21]
 800224c:	68a0      	ldr	r0, [r4, #8]
 800224e:	6b23      	ldr	r3, [r4, #48]	@ 0x30
 8002250:	f240 808d 	bls.w	800236e <HAL_ADC_Init+0x1ca>
 8002254:	2810      	cmp	r0, #16
 8002256:	f040 808a 	bne.w	800236e <HAL_ADC_Init+0x1ca>
 800225a:	0352      	lsls	r2, r2, #13
 800225c:	ea42 4201 	orr.w	r2, r2, r1, lsl #16
 8002260:	431a      	orrs	r2, r3
 8002262:	f042 031c 	orr.w	r3, r2, #28
 8002266:	2901      	cmp	r1, #1
 8002268:	bf02      	ittt	eq
 800226a:	6a22      	ldreq	r2, [r4, #32]
 800226c:	f102 32ff 	addeq.w	r2, r2, #4294967295
 8002270:	ea43 4342 	orreq.w	r3, r3, r2, lsl #17
 8002274:	6a62      	ldr	r2, [r4, #36]	@ 0x24
 8002276:	b122      	cbz	r2, 8002282 <HAL_ADC_Init+0xde>
 8002278:	f402 7278 	and.w	r2, r2, #992	@ 0x3e0
 800227c:	6aa1      	ldr	r1, [r4, #40]	@ 0x28
 800227e:	430a      	orrs	r2, r1
 8002280:	4313      	orrs	r3, r2
 8002282:	6822      	ldr	r2, [r4, #0]
 8002284:	4946      	ldr	r1, [pc, #280]	@ (80023a0 <HAL_ADC_Init+0x1fc>)
 8002286:	68d0      	ldr	r0, [r2, #12]
 8002288:	4001      	ands	r1, r0
 800228a:	4610      	mov	r0, r2
 800228c:	4319      	orrs	r1, r3
 800228e:	60d1      	str	r1, [r2, #12]
 8002290:	f7ff fbf8 	bl	8001a84 <LL_ADC_REG_IsConversionOngoing>
 8002294:	6893      	ldr	r3, [r2, #8]
 8002296:	f003 0308 	and.w	r3, r3, #8
 800229a:	4303      	orrs	r3, r0
 800229c:	d127      	bne.n	80022ee <HAL_ADC_Init+0x14a>
 800229e:	68d3      	ldr	r3, [r2, #12]
 80022a0:	7d21      	ldrb	r1, [r4, #20]
 80022a2:	f423 4380 	bic.w	r3, r3, #16384	@ 0x4000
 80022a6:	f023 0303 	bic.w	r3, r3, #3
 80022aa:	ea43 3381 	orr.w	r3, r3, r1, lsl #14
 80022ae:	6ae1      	ldr	r1, [r4, #44]	@ 0x2c
 80022b0:	430b      	orrs	r3, r1
 80022b2:	60d3      	str	r3, [r2, #12]
 80022b4:	f894 3038 	ldrb.w	r3, [r4, #56]	@ 0x38
 80022b8:	2b01      	cmp	r3, #1
 80022ba:	d15e      	bne.n	800237a <HAL_ADC_Init+0x1d6>
 80022bc:	6be3      	ldr	r3, [r4, #60]	@ 0x3c
 80022be:	6910      	ldr	r0, [r2, #16]
 80022c0:	1e59      	subs	r1, r3, #1
 80022c2:	e9d4 3610 	ldrd	r3, r6, [r4, #64]	@ 0x40
 80022c6:	4333      	orrs	r3, r6
 80022c8:	ea43 4301 	orr.w	r3, r3, r1, lsl #16
 80022cc:	6ca1      	ldr	r1, [r4, #72]	@ 0x48
 80022ce:	430b      	orrs	r3, r1
 80022d0:	4934      	ldr	r1, [pc, #208]	@ (80023a4 <HAL_ADC_Init+0x200>)
 80022d2:	4001      	ands	r1, r0
 80022d4:	430b      	orrs	r3, r1
 80022d6:	f043 0301 	orr.w	r3, r3, #1
 80022da:	6113      	str	r3, [r2, #16]
 80022dc:	4620      	mov	r0, r4
 80022de:	6913      	ldr	r3, [r2, #16]
 80022e0:	6b61      	ldr	r1, [r4, #52]	@ 0x34
 80022e2:	f023 4370 	bic.w	r3, r3, #4026531840	@ 0xf0000000
 80022e6:	430b      	orrs	r3, r1
 80022e8:	6113      	str	r3, [r2, #16]
 80022ea:	f7ff fec5 	bl	8002078 <ADC_ConfigureBoostMode>
 80022ee:	68e3      	ldr	r3, [r4, #12]
 80022f0:	6822      	ldr	r2, [r4, #0]
 80022f2:	2b01      	cmp	r3, #1
 80022f4:	d145      	bne.n	8002382 <HAL_ADC_Init+0x1de>
 80022f6:	6b11      	ldr	r1, [r2, #48]	@ 0x30
 80022f8:	69a3      	ldr	r3, [r4, #24]
 80022fa:	f021 010f 	bic.w	r1, r1, #15
 80022fe:	3b01      	subs	r3, #1
 8002300:	430b      	orrs	r3, r1
 8002302:	6313      	str	r3, [r2, #48]	@ 0x30
 8002304:	6d63      	ldr	r3, [r4, #84]	@ 0x54
 8002306:	f023 0303 	bic.w	r3, r3, #3
 800230a:	f043 0301 	orr.w	r3, r3, #1
 800230e:	6563      	str	r3, [r4, #84]	@ 0x54
 8002310:	4628      	mov	r0, r5
 8002312:	b002      	add	sp, #8
 8002314:	bd70      	pop	{r4, r5, r6, pc}
 8002316:	689a      	ldr	r2, [r3, #8]
 8002318:	4923      	ldr	r1, [pc, #140]	@ (80023a8 <HAL_ADC_Init+0x204>)
 800231a:	f022 4210 	bic.w	r2, r2, #2415919104	@ 0x90000000
 800231e:	f022 023f 	bic.w	r2, r2, #63	@ 0x3f
 8002322:	f042 5280 	orr.w	r2, r2, #268435456	@ 0x10000000
 8002326:	609a      	str	r2, [r3, #8]
 8002328:	4a20      	ldr	r2, [pc, #128]	@ (80023ac <HAL_ADC_Init+0x208>)
 800232a:	6812      	ldr	r2, [r2, #0]
 800232c:	fbb2 f2f1 	udiv	r2, r2, r1
 8002330:	3201      	adds	r2, #1
 8002332:	9201      	str	r2, [sp, #4]
 8002334:	9a01      	ldr	r2, [sp, #4]
 8002336:	2a00      	cmp	r2, #0
 8002338:	f43f af50 	beq.w	80021dc <HAL_ADC_Init+0x38>
 800233c:	9a01      	ldr	r2, [sp, #4]
 800233e:	3a01      	subs	r2, #1
 8002340:	e7f7      	b.n	8002332 <HAL_ADC_Init+0x18e>
 8002342:	2500      	movs	r5, #0
 8002344:	e757      	b.n	80021f6 <HAL_ADC_Init+0x52>
 8002346:	481a      	ldr	r0, [pc, #104]	@ (80023b0 <HAL_ADC_Init+0x20c>)
 8002348:	f7ff fb98 	bl	8001a7c <LL_ADC_IsEnabled>
 800234c:	2800      	cmp	r0, #0
 800234e:	f47f af76 	bne.w	800223e <HAL_ADC_Init+0x9a>
 8002352:	4a18      	ldr	r2, [pc, #96]	@ (80023b4 <HAL_ADC_Init+0x210>)
 8002354:	6893      	ldr	r3, [r2, #8]
 8002356:	6861      	ldr	r1, [r4, #4]
 8002358:	f423 137c 	bic.w	r3, r3, #4128768	@ 0x3f0000
 800235c:	430b      	orrs	r3, r1
 800235e:	6093      	str	r3, [r2, #8]
 8002360:	e76d      	b.n	800223e <HAL_ADC_Init+0x9a>
 8002362:	42b3      	cmp	r3, r6
 8002364:	d001      	beq.n	800236a <HAL_ADC_Init+0x1c6>
 8002366:	428b      	cmp	r3, r1
 8002368:	d1f3      	bne.n	8002352 <HAL_ADC_Init+0x1ae>
 800236a:	4a13      	ldr	r2, [pc, #76]	@ (80023b8 <HAL_ADC_Init+0x214>)
 800236c:	e7f2      	b.n	8002354 <HAL_ADC_Init+0x1b0>
 800236e:	4303      	orrs	r3, r0
 8002370:	ea43 3342 	orr.w	r3, r3, r2, lsl #13
 8002374:	ea43 4301 	orr.w	r3, r3, r1, lsl #16
 8002378:	e775      	b.n	8002266 <HAL_ADC_Init+0xc2>
 800237a:	6913      	ldr	r3, [r2, #16]
 800237c:	f023 0301 	bic.w	r3, r3, #1
 8002380:	e7ab      	b.n	80022da <HAL_ADC_Init+0x136>
 8002382:	6b13      	ldr	r3, [r2, #48]	@ 0x30
 8002384:	f023 030f 	bic.w	r3, r3, #15
 8002388:	e7bb      	b.n	8002302 <HAL_ADC_Init+0x15e>
 800238a:	6d63      	ldr	r3, [r4, #84]	@ 0x54
 800238c:	f043 0310 	orr.w	r3, r3, #16
 8002390:	6563      	str	r3, [r4, #84]	@ 0x54
 8002392:	2501      	movs	r5, #1
 8002394:	e7bc      	b.n	8002310 <HAL_ADC_Init+0x16c>
 8002396:	bf00      	nop
 8002398:	40022000 	.word	0x40022000
 800239c:	40022100 	.word	0x40022100
 80023a0:	fff0c003 	.word	0xfff0c003
 80023a4:	fc00f81e 	.word	0xfc00f81e
 80023a8:	00030d40 	.word	0x00030d40
 80023ac:	24000004 	.word	0x24000004
 80023b0:	58026000 	.word	0x58026000
 80023b4:	58026300 	.word	0x58026300
 80023b8:	40022300 	.word	0x40022300

080023bc <LL_ADC_IsEnabled>:
 80023bc:	6880      	ldr	r0, [r0, #8]
 80023be:	f000 0001 	and.w	r0, r0, #1
 80023c2:	4770      	bx	lr

080023c4 <LL_ADC_REG_IsConversionOngoing>:
 80023c4:	6880      	ldr	r0, [r0, #8]
 80023c6:	f3c0 0080 	ubfx	r0, r0, #2, #1
 80023ca:	4770      	bx	lr

080023cc <HAL_ADCEx_MultiModeConfigChannel>:
 80023cc:	b570      	push	{r4, r5, r6, lr}
 80023ce:	f890 2050 	ldrb.w	r2, [r0, #80]	@ 0x50
 80023d2:	b09a      	sub	sp, #104	@ 0x68
 80023d4:	4603      	mov	r3, r0
 80023d6:	680c      	ldr	r4, [r1, #0]
 80023d8:	2a01      	cmp	r2, #1
 80023da:	d054      	beq.n	8002486 <HAL_ADCEx_MultiModeConfigChannel+0xba>
 80023dc:	2201      	movs	r2, #1
 80023de:	4e2b      	ldr	r6, [pc, #172]	@ (800248c <HAL_ADCEx_MultiModeConfigChannel+0xc0>)
 80023e0:	f880 2050 	strb.w	r2, [r0, #80]	@ 0x50
 80023e4:	2000      	movs	r0, #0
 80023e6:	681d      	ldr	r5, [r3, #0]
 80023e8:	9016      	str	r0, [sp, #88]	@ 0x58
 80023ea:	42b5      	cmp	r5, r6
 80023ec:	9017      	str	r0, [sp, #92]	@ 0x5c
 80023ee:	d10e      	bne.n	800240e <HAL_ADCEx_MultiModeConfigChannel+0x42>
 80023f0:	4827      	ldr	r0, [pc, #156]	@ (8002490 <HAL_ADCEx_MultiModeConfigChannel+0xc4>)
 80023f2:	f7ff ffe7 	bl	80023c4 <LL_ADC_REG_IsConversionOngoing>
 80023f6:	4606      	mov	r6, r0
 80023f8:	4628      	mov	r0, r5
 80023fa:	f7ff ffe3 	bl	80023c4 <LL_ADC_REG_IsConversionOngoing>
 80023fe:	4330      	orrs	r0, r6
 8002400:	d00e      	beq.n	8002420 <HAL_ADCEx_MultiModeConfigChannel+0x54>
 8002402:	6d59      	ldr	r1, [r3, #84]	@ 0x54
 8002404:	4610      	mov	r0, r2
 8002406:	f041 0120 	orr.w	r1, r1, #32
 800240a:	6559      	str	r1, [r3, #84]	@ 0x54
 800240c:	e023      	b.n	8002456 <HAL_ADCEx_MultiModeConfigChannel+0x8a>
 800240e:	6d59      	ldr	r1, [r3, #84]	@ 0x54
 8002410:	f883 0050 	strb.w	r0, [r3, #80]	@ 0x50
 8002414:	4610      	mov	r0, r2
 8002416:	f041 0120 	orr.w	r1, r1, #32
 800241a:	6559      	str	r1, [r3, #84]	@ 0x54
 800241c:	b01a      	add	sp, #104	@ 0x68
 800241e:	bd70      	pop	{r4, r5, r6, pc}
 8002420:	4a1c      	ldr	r2, [pc, #112]	@ (8002494 <HAL_ADCEx_MultiModeConfigChannel+0xc8>)
 8002422:	b1e4      	cbz	r4, 800245e <HAL_ADCEx_MultiModeConfigChannel+0x92>
 8002424:	6890      	ldr	r0, [r2, #8]
 8002426:	684e      	ldr	r6, [r1, #4]
 8002428:	f420 4040 	bic.w	r0, r0, #49152	@ 0xc000
 800242c:	4330      	orrs	r0, r6
 800242e:	6090      	str	r0, [r2, #8]
 8002430:	4628      	mov	r0, r5
 8002432:	f7ff ffc3 	bl	80023bc <LL_ADC_IsEnabled>
 8002436:	4605      	mov	r5, r0
 8002438:	4815      	ldr	r0, [pc, #84]	@ (8002490 <HAL_ADCEx_MultiModeConfigChannel+0xc4>)
 800243a:	f7ff ffbf 	bl	80023bc <LL_ADC_IsEnabled>
 800243e:	4305      	orrs	r5, r0
 8002440:	d108      	bne.n	8002454 <HAL_ADCEx_MultiModeConfigChannel+0x88>
 8002442:	6889      	ldr	r1, [r1, #8]
 8002444:	6890      	ldr	r0, [r2, #8]
 8002446:	430c      	orrs	r4, r1
 8002448:	f420 6171 	bic.w	r1, r0, #3856	@ 0xf10
 800244c:	f021 010f 	bic.w	r1, r1, #15
 8002450:	430c      	orrs	r4, r1
 8002452:	6094      	str	r4, [r2, #8]
 8002454:	2000      	movs	r0, #0
 8002456:	2200      	movs	r2, #0
 8002458:	f883 2050 	strb.w	r2, [r3, #80]	@ 0x50
 800245c:	e7de      	b.n	800241c <HAL_ADCEx_MultiModeConfigChannel+0x50>
 800245e:	6891      	ldr	r1, [r2, #8]
 8002460:	4628      	mov	r0, r5
 8002462:	f421 4140 	bic.w	r1, r1, #49152	@ 0xc000
 8002466:	6091      	str	r1, [r2, #8]
 8002468:	f7ff ffa8 	bl	80023bc <LL_ADC_IsEnabled>
 800246c:	4601      	mov	r1, r0
 800246e:	4808      	ldr	r0, [pc, #32]	@ (8002490 <HAL_ADCEx_MultiModeConfigChannel+0xc4>)
 8002470:	f7ff ffa4 	bl	80023bc <LL_ADC_IsEnabled>
 8002474:	4301      	orrs	r1, r0
 8002476:	d1ed      	bne.n	8002454 <HAL_ADCEx_MultiModeConfigChannel+0x88>
 8002478:	6891      	ldr	r1, [r2, #8]
 800247a:	f421 6171 	bic.w	r1, r1, #3856	@ 0xf10
 800247e:	f021 010f 	bic.w	r1, r1, #15
 8002482:	6091      	str	r1, [r2, #8]
 8002484:	e7e6      	b.n	8002454 <HAL_ADCEx_MultiModeConfigChannel+0x88>
 8002486:	2002      	movs	r0, #2
 8002488:	e7c8      	b.n	800241c <HAL_ADCEx_MultiModeConfigChannel+0x50>
 800248a:	bf00      	nop
 800248c:	40022000 	.word	0x40022000
 8002490:	40022100 	.word	0x40022100
 8002494:	40022300 	.word	0x40022300

08002498 <HAL_NVIC_SetPriorityGrouping>:
 8002498:	4907      	ldr	r1, [pc, #28]	@ (80024b8 <HAL_NVIC_SetPriorityGrouping+0x20>)
 800249a:	0203      	lsls	r3, r0, #8
 800249c:	68ca      	ldr	r2, [r1, #12]
 800249e:	f403 63e0 	and.w	r3, r3, #1792	@ 0x700
 80024a2:	f422 62e0 	bic.w	r2, r2, #1792	@ 0x700
 80024a6:	0412      	lsls	r2, r2, #16
 80024a8:	0c12      	lsrs	r2, r2, #16
 80024aa:	4313      	orrs	r3, r2
 80024ac:	f043 63bf 	orr.w	r3, r3, #100139008	@ 0x5f80000
 80024b0:	f443 3300 	orr.w	r3, r3, #131072	@ 0x20000
 80024b4:	60cb      	str	r3, [r1, #12]
 80024b6:	4770      	bx	lr
 80024b8:	e000ed00 	.word	0xe000ed00

080024bc <HAL_NVIC_SetPriority>:
 80024bc:	4b16      	ldr	r3, [pc, #88]	@ (8002518 <HAL_NVIC_SetPriority+0x5c>)
 80024be:	b530      	push	{r4, r5, lr}
 80024c0:	68dc      	ldr	r4, [r3, #12]
 80024c2:	f3c4 2402 	ubfx	r4, r4, #8, #3
 80024c6:	f1c4 0307 	rsb	r3, r4, #7
 80024ca:	1d25      	adds	r5, r4, #4
 80024cc:	2b04      	cmp	r3, #4
 80024ce:	bf28      	it	cs
 80024d0:	2304      	movcs	r3, #4
 80024d2:	2d06      	cmp	r5, #6
 80024d4:	f04f 35ff 	mov.w	r5, #4294967295
 80024d8:	bf8c      	ite	hi
 80024da:	3c03      	subhi	r4, #3
 80024dc:	2400      	movls	r4, #0
 80024de:	fa05 f303 	lsl.w	r3, r5, r3
 80024e2:	2800      	cmp	r0, #0
 80024e4:	fa05 f504 	lsl.w	r5, r5, r4
 80024e8:	ea21 0303 	bic.w	r3, r1, r3
 80024ec:	ea22 0205 	bic.w	r2, r2, r5
 80024f0:	fa03 f304 	lsl.w	r3, r3, r4
 80024f4:	ea43 0302 	orr.w	r3, r3, r2
 80024f8:	ea4f 1303 	mov.w	r3, r3, lsl #4
 80024fc:	b2db      	uxtb	r3, r3
 80024fe:	db06      	blt.n	800250e <HAL_NVIC_SetPriority+0x52>
 8002500:	f100 4060 	add.w	r0, r0, #3758096384	@ 0xe0000000
 8002504:	f500 4061 	add.w	r0, r0, #57600	@ 0xe100
 8002508:	f880 3300 	strb.w	r3, [r0, #768]	@ 0x300
 800250c:	bd30      	pop	{r4, r5, pc}
 800250e:	f000 000f 	and.w	r0, r0, #15
 8002512:	4a02      	ldr	r2, [pc, #8]	@ (800251c <HAL_NVIC_SetPriority+0x60>)
 8002514:	5413      	strb	r3, [r2, r0]
 8002516:	e7f9      	b.n	800250c <HAL_NVIC_SetPriority+0x50>
 8002518:	e000ed00 	.word	0xe000ed00
 800251c:	e000ed14 	.word	0xe000ed14

08002520 <HAL_NVIC_EnableIRQ>:
 8002520:	2800      	cmp	r0, #0
 8002522:	db07      	blt.n	8002534 <HAL_NVIC_EnableIRQ+0x14>
 8002524:	2301      	movs	r3, #1
 8002526:	0941      	lsrs	r1, r0, #5
 8002528:	f000 001f 	and.w	r0, r0, #31
 800252c:	4a02      	ldr	r2, [pc, #8]	@ (8002538 <HAL_NVIC_EnableIRQ+0x18>)
 800252e:	4083      	lsls	r3, r0
 8002530:	f842 3021 	str.w	r3, [r2, r1, lsl #2]
 8002534:	4770      	bx	lr
 8002536:	bf00      	nop
 8002538:	e000e100 	.word	0xe000e100

0800253c <HAL_SYSTICK_Config>:
 800253c:	3801      	subs	r0, #1
 800253e:	f1b0 7f80 	cmp.w	r0, #16777216	@ 0x1000000
 8002542:	d20b      	bcs.n	800255c <HAL_SYSTICK_Config+0x20>
 8002544:	f04f 23e0 	mov.w	r3, #3758153728	@ 0xe000e000
 8002548:	4a05      	ldr	r2, [pc, #20]	@ (8002560 <HAL_SYSTICK_Config+0x24>)
 800254a:	21f0      	movs	r1, #240	@ 0xf0
 800254c:	6158      	str	r0, [r3, #20]
 800254e:	2000      	movs	r0, #0
 8002550:	f882 1023 	strb.w	r1, [r2, #35]	@ 0x23
 8002554:	2207      	movs	r2, #7
 8002556:	6198      	str	r0, [r3, #24]
 8002558:	611a      	str	r2, [r3, #16]
 800255a:	4770      	bx	lr
 800255c:	2001      	movs	r0, #1
 800255e:	4770      	bx	lr
 8002560:	e000ed00 	.word	0xe000ed00

08002564 <HAL_MPU_Disable>:
 8002564:	f3bf 8f5f 	dmb	sy
 8002568:	4b04      	ldr	r3, [pc, #16]	@ (800257c <HAL_MPU_Disable+0x18>)
 800256a:	6a5a      	ldr	r2, [r3, #36]	@ 0x24
 800256c:	f422 3280 	bic.w	r2, r2, #65536	@ 0x10000
 8002570:	625a      	str	r2, [r3, #36]	@ 0x24
 8002572:	2200      	movs	r2, #0
 8002574:	f8c3 2094 	str.w	r2, [r3, #148]	@ 0x94
 8002578:	4770      	bx	lr
 800257a:	bf00      	nop
 800257c:	e000ed00 	.word	0xe000ed00

08002580 <HAL_MPU_Enable>:
 8002580:	4b06      	ldr	r3, [pc, #24]	@ (800259c <HAL_MPU_Enable+0x1c>)
 8002582:	f040 0001 	orr.w	r0, r0, #1
 8002586:	f8c3 0094 	str.w	r0, [r3, #148]	@ 0x94
 800258a:	6a5a      	ldr	r2, [r3, #36]	@ 0x24
 800258c:	f442 3280 	orr.w	r2, r2, #65536	@ 0x10000
 8002590:	625a      	str	r2, [r3, #36]	@ 0x24
 8002592:	f3bf 8f4f 	dsb	sy
 8002596:	f3bf 8f6f 	isb	sy
 800259a:	4770      	bx	lr
 800259c:	e000ed00 	.word	0xe000ed00

080025a0 <HAL_MPU_ConfigRegion>:
 80025a0:	7843      	ldrb	r3, [r0, #1]
 80025a2:	4a14      	ldr	r2, [pc, #80]	@ (80025f4 <HAL_MPU_ConfigRegion+0x54>)
 80025a4:	f8c2 3098 	str.w	r3, [r2, #152]	@ 0x98
 80025a8:	f8d2 30a0 	ldr.w	r3, [r2, #160]	@ 0xa0
 80025ac:	f023 0301 	bic.w	r3, r3, #1
 80025b0:	f8c2 30a0 	str.w	r3, [r2, #160]	@ 0xa0
 80025b4:	6843      	ldr	r3, [r0, #4]
 80025b6:	f8c2 309c 	str.w	r3, [r2, #156]	@ 0x9c
 80025ba:	7ac3      	ldrb	r3, [r0, #11]
 80025bc:	7b01      	ldrb	r1, [r0, #12]
 80025be:	061b      	lsls	r3, r3, #24
 80025c0:	ea43 7301 	orr.w	r3, r3, r1, lsl #28
 80025c4:	7801      	ldrb	r1, [r0, #0]
 80025c6:	430b      	orrs	r3, r1
 80025c8:	7a81      	ldrb	r1, [r0, #10]
 80025ca:	ea43 43c1 	orr.w	r3, r3, r1, lsl #19
 80025ce:	7b41      	ldrb	r1, [r0, #13]
 80025d0:	ea43 4381 	orr.w	r3, r3, r1, lsl #18
 80025d4:	7b81      	ldrb	r1, [r0, #14]
 80025d6:	ea43 4341 	orr.w	r3, r3, r1, lsl #17
 80025da:	7bc1      	ldrb	r1, [r0, #15]
 80025dc:	ea43 4301 	orr.w	r3, r3, r1, lsl #16
 80025e0:	7a41      	ldrb	r1, [r0, #9]
 80025e2:	ea43 2301 	orr.w	r3, r3, r1, lsl #8
 80025e6:	7a01      	ldrb	r1, [r0, #8]
 80025e8:	ea43 0341 	orr.w	r3, r3, r1, lsl #1
 80025ec:	f8c2 30a0 	str.w	r3, [r2, #160]	@ 0xa0
 80025f0:	4770      	bx	lr
 80025f2:	bf00      	nop
 80025f4:	e000ed00 	.word	0xe000ed00

080025f8 <DMA_SetConfig>:
 80025f8:	b5f0      	push	{r4, r5, r6, r7, lr}
 80025fa:	f8df c17c 	ldr.w	ip, [pc, #380]	@ 8002778 <DMA_SetConfig+0x180>
 80025fe:	6804      	ldr	r4, [r0, #0]
 8002600:	6d87      	ldr	r7, [r0, #88]	@ 0x58
 8002602:	4564      	cmp	r4, ip
 8002604:	d045      	beq.n	8002692 <DMA_SetConfig+0x9a>
 8002606:	4d59      	ldr	r5, [pc, #356]	@ (800276c <DMA_SetConfig+0x174>)
 8002608:	42ac      	cmp	r4, r5
 800260a:	d042      	beq.n	8002692 <DMA_SetConfig+0x9a>
 800260c:	3518      	adds	r5, #24
 800260e:	42ac      	cmp	r4, r5
 8002610:	d03f      	beq.n	8002692 <DMA_SetConfig+0x9a>
 8002612:	3518      	adds	r5, #24
 8002614:	42ac      	cmp	r4, r5
 8002616:	d03c      	beq.n	8002692 <DMA_SetConfig+0x9a>
 8002618:	3518      	adds	r5, #24
 800261a:	42ac      	cmp	r4, r5
 800261c:	d039      	beq.n	8002692 <DMA_SetConfig+0x9a>
 800261e:	3518      	adds	r5, #24
 8002620:	42ac      	cmp	r4, r5
 8002622:	d036      	beq.n	8002692 <DMA_SetConfig+0x9a>
 8002624:	3518      	adds	r5, #24
 8002626:	42ac      	cmp	r4, r5
 8002628:	d033      	beq.n	8002692 <DMA_SetConfig+0x9a>
 800262a:	3518      	adds	r5, #24
 800262c:	42ac      	cmp	r4, r5
 800262e:	d030      	beq.n	8002692 <DMA_SetConfig+0x9a>
 8002630:	f505 7556 	add.w	r5, r5, #856	@ 0x358
 8002634:	42ac      	cmp	r4, r5
 8002636:	d02c      	beq.n	8002692 <DMA_SetConfig+0x9a>
 8002638:	3518      	adds	r5, #24
 800263a:	42ac      	cmp	r4, r5
 800263c:	d029      	beq.n	8002692 <DMA_SetConfig+0x9a>
 800263e:	3518      	adds	r5, #24
 8002640:	42ac      	cmp	r4, r5
 8002642:	d026      	beq.n	8002692 <DMA_SetConfig+0x9a>
 8002644:	3518      	adds	r5, #24
 8002646:	42ac      	cmp	r4, r5
 8002648:	d023      	beq.n	8002692 <DMA_SetConfig+0x9a>
 800264a:	3518      	adds	r5, #24
 800264c:	42ac      	cmp	r4, r5
 800264e:	d020      	beq.n	8002692 <DMA_SetConfig+0x9a>
 8002650:	3518      	adds	r5, #24
 8002652:	42ac      	cmp	r4, r5
 8002654:	d01d      	beq.n	8002692 <DMA_SetConfig+0x9a>
 8002656:	3518      	adds	r5, #24
 8002658:	42ac      	cmp	r4, r5
 800265a:	d01a      	beq.n	8002692 <DMA_SetConfig+0x9a>
 800265c:	3518      	adds	r5, #24
 800265e:	42ac      	cmp	r4, r5
 8002660:	d017      	beq.n	8002692 <DMA_SetConfig+0x9a>
 8002662:	4d43      	ldr	r5, [pc, #268]	@ (8002770 <DMA_SetConfig+0x178>)
 8002664:	42ac      	cmp	r4, r5
 8002666:	d014      	beq.n	8002692 <DMA_SetConfig+0x9a>
 8002668:	3514      	adds	r5, #20
 800266a:	42ac      	cmp	r4, r5
 800266c:	d011      	beq.n	8002692 <DMA_SetConfig+0x9a>
 800266e:	3514      	adds	r5, #20
 8002670:	42ac      	cmp	r4, r5
 8002672:	d00e      	beq.n	8002692 <DMA_SetConfig+0x9a>
 8002674:	3514      	adds	r5, #20
 8002676:	42ac      	cmp	r4, r5
 8002678:	d00b      	beq.n	8002692 <DMA_SetConfig+0x9a>
 800267a:	3514      	adds	r5, #20
 800267c:	42ac      	cmp	r4, r5
 800267e:	d008      	beq.n	8002692 <DMA_SetConfig+0x9a>
 8002680:	3514      	adds	r5, #20
 8002682:	42ac      	cmp	r4, r5
 8002684:	d005      	beq.n	8002692 <DMA_SetConfig+0x9a>
 8002686:	3514      	adds	r5, #20
 8002688:	42ac      	cmp	r4, r5
 800268a:	d002      	beq.n	8002692 <DMA_SetConfig+0x9a>
 800268c:	3514      	adds	r5, #20
 800268e:	42ac      	cmp	r4, r5
 8002690:	d167      	bne.n	8002762 <DMA_SetConfig+0x16a>
 8002692:	e9d0 5619 	ldrd	r5, r6, [r0, #100]	@ 0x64
 8002696:	606e      	str	r6, [r5, #4]
 8002698:	6ec5      	ldr	r5, [r0, #108]	@ 0x6c
 800269a:	b115      	cbz	r5, 80026a2 <DMA_SetConfig+0xaa>
 800269c:	e9d0 561c 	ldrd	r5, r6, [r0, #112]	@ 0x70
 80026a0:	606e      	str	r6, [r5, #4]
 80026a2:	4564      	cmp	r4, ip
 80026a4:	d037      	beq.n	8002716 <DMA_SetConfig+0x11e>
 80026a6:	4d31      	ldr	r5, [pc, #196]	@ (800276c <DMA_SetConfig+0x174>)
 80026a8:	42ac      	cmp	r4, r5
 80026aa:	d034      	beq.n	8002716 <DMA_SetConfig+0x11e>
 80026ac:	3518      	adds	r5, #24
 80026ae:	42ac      	cmp	r4, r5
 80026b0:	d031      	beq.n	8002716 <DMA_SetConfig+0x11e>
 80026b2:	3518      	adds	r5, #24
 80026b4:	42ac      	cmp	r4, r5
 80026b6:	d02e      	beq.n	8002716 <DMA_SetConfig+0x11e>
 80026b8:	3518      	adds	r5, #24
 80026ba:	42ac      	cmp	r4, r5
 80026bc:	d02b      	beq.n	8002716 <DMA_SetConfig+0x11e>
 80026be:	3518      	adds	r5, #24
 80026c0:	42ac      	cmp	r4, r5
 80026c2:	d028      	beq.n	8002716 <DMA_SetConfig+0x11e>
 80026c4:	3518      	adds	r5, #24
 80026c6:	42ac      	cmp	r4, r5
 80026c8:	d025      	beq.n	8002716 <DMA_SetConfig+0x11e>
 80026ca:	3518      	adds	r5, #24
 80026cc:	42ac      	cmp	r4, r5
 80026ce:	d022      	beq.n	8002716 <DMA_SetConfig+0x11e>
 80026d0:	f505 7556 	add.w	r5, r5, #856	@ 0x358
 80026d4:	42ac      	cmp	r4, r5
 80026d6:	d01e      	beq.n	8002716 <DMA_SetConfig+0x11e>
 80026d8:	3518      	adds	r5, #24
 80026da:	42ac      	cmp	r4, r5
 80026dc:	d01b      	beq.n	8002716 <DMA_SetConfig+0x11e>
 80026de:	3518      	adds	r5, #24
 80026e0:	42ac      	cmp	r4, r5
 80026e2:	d018      	beq.n	8002716 <DMA_SetConfig+0x11e>
 80026e4:	3518      	adds	r5, #24
 80026e6:	42ac      	cmp	r4, r5
 80026e8:	d015      	beq.n	8002716 <DMA_SetConfig+0x11e>
 80026ea:	3518      	adds	r5, #24
 80026ec:	42ac      	cmp	r4, r5
 80026ee:	d012      	beq.n	8002716 <DMA_SetConfig+0x11e>
 80026f0:	3518      	adds	r5, #24
 80026f2:	42ac      	cmp	r4, r5
 80026f4:	d00f      	beq.n	8002716 <DMA_SetConfig+0x11e>
 80026f6:	3518      	adds	r5, #24
 80026f8:	42ac      	cmp	r4, r5
 80026fa:	d00c      	beq.n	8002716 <DMA_SetConfig+0x11e>
 80026fc:	3518      	adds	r5, #24
 80026fe:	42ac      	cmp	r4, r5
 8002700:	d009      	beq.n	8002716 <DMA_SetConfig+0x11e>
 8002702:	4d1b      	ldr	r5, [pc, #108]	@ (8002770 <DMA_SetConfig+0x178>)
 8002704:	42ac      	cmp	r4, r5
 8002706:	d117      	bne.n	8002738 <DMA_SetConfig+0x140>
 8002708:	6dc5      	ldr	r5, [r0, #92]	@ 0x5c
 800270a:	f005 061f 	and.w	r6, r5, #31
 800270e:	2501      	movs	r5, #1
 8002710:	40b5      	lsls	r5, r6
 8002712:	607d      	str	r5, [r7, #4]
 8002714:	e009      	b.n	800272a <DMA_SetConfig+0x132>
 8002716:	6dc5      	ldr	r5, [r0, #92]	@ 0x5c
 8002718:	f005 061f 	and.w	r6, r5, #31
 800271c:	253f      	movs	r5, #63	@ 0x3f
 800271e:	40b5      	lsls	r5, r6
 8002720:	60bd      	str	r5, [r7, #8]
 8002722:	6825      	ldr	r5, [r4, #0]
 8002724:	f425 2580 	bic.w	r5, r5, #262144	@ 0x40000
 8002728:	6025      	str	r5, [r4, #0]
 800272a:	6063      	str	r3, [r4, #4]
 800272c:	6883      	ldr	r3, [r0, #8]
 800272e:	2b40      	cmp	r3, #64	@ 0x40
 8002730:	d118      	bne.n	8002764 <DMA_SetConfig+0x16c>
 8002732:	60a2      	str	r2, [r4, #8]
 8002734:	60e1      	str	r1, [r4, #12]
 8002736:	e014      	b.n	8002762 <DMA_SetConfig+0x16a>
 8002738:	4d0e      	ldr	r5, [pc, #56]	@ (8002774 <DMA_SetConfig+0x17c>)
 800273a:	42ac      	cmp	r4, r5
 800273c:	d0e4      	beq.n	8002708 <DMA_SetConfig+0x110>
 800273e:	3514      	adds	r5, #20
 8002740:	42ac      	cmp	r4, r5
 8002742:	d0e1      	beq.n	8002708 <DMA_SetConfig+0x110>
 8002744:	3514      	adds	r5, #20
 8002746:	42ac      	cmp	r4, r5
 8002748:	d0de      	beq.n	8002708 <DMA_SetConfig+0x110>
 800274a:	3514      	adds	r5, #20
 800274c:	42ac      	cmp	r4, r5
 800274e:	d0db      	beq.n	8002708 <DMA_SetConfig+0x110>
 8002750:	3514      	adds	r5, #20
 8002752:	42ac      	cmp	r4, r5
 8002754:	d0d8      	beq.n	8002708 <DMA_SetConfig+0x110>
 8002756:	3514      	adds	r5, #20
 8002758:	42ac      	cmp	r4, r5
 800275a:	d0d5      	beq.n	8002708 <DMA_SetConfig+0x110>
 800275c:	3514      	adds	r5, #20
 800275e:	42ac      	cmp	r4, r5
 8002760:	d0d2      	beq.n	8002708 <DMA_SetConfig+0x110>
 8002762:	bdf0      	pop	{r4, r5, r6, r7, pc}
 8002764:	60a1      	str	r1, [r4, #8]
 8002766:	60e2      	str	r2, [r4, #12]
 8002768:	e7fb      	b.n	8002762 <DMA_SetConfig+0x16a>
 800276a:	bf00      	nop
 800276c:	40020028 	.word	0x40020028
 8002770:	58025408 	.word	0x58025408
 8002774:	5802541c 	.word	0x5802541c
 8002778:	40020010 	.word	0x40020010

0800277c <DMA_CalcBaseAndBitshift>:
 800277c:	6803      	ldr	r3, [r0, #0]
 800277e:	4602      	mov	r2, r0
 8002780:	4923      	ldr	r1, [pc, #140]	@ (8002810 <DMA_CalcBaseAndBitshift+0x94>)
 8002782:	428b      	cmp	r3, r1
 8002784:	b510      	push	{r4, lr}
 8002786:	d031      	beq.n	80027ec <DMA_CalcBaseAndBitshift+0x70>
 8002788:	3118      	adds	r1, #24
 800278a:	428b      	cmp	r3, r1
 800278c:	d02e      	beq.n	80027ec <DMA_CalcBaseAndBitshift+0x70>
 800278e:	3118      	adds	r1, #24
 8002790:	428b      	cmp	r3, r1
 8002792:	d02b      	beq.n	80027ec <DMA_CalcBaseAndBitshift+0x70>
 8002794:	3118      	adds	r1, #24
 8002796:	428b      	cmp	r3, r1
 8002798:	d028      	beq.n	80027ec <DMA_CalcBaseAndBitshift+0x70>
 800279a:	3118      	adds	r1, #24
 800279c:	428b      	cmp	r3, r1
 800279e:	d025      	beq.n	80027ec <DMA_CalcBaseAndBitshift+0x70>
 80027a0:	3118      	adds	r1, #24
 80027a2:	428b      	cmp	r3, r1
 80027a4:	d022      	beq.n	80027ec <DMA_CalcBaseAndBitshift+0x70>
 80027a6:	3118      	adds	r1, #24
 80027a8:	428b      	cmp	r3, r1
 80027aa:	d01f      	beq.n	80027ec <DMA_CalcBaseAndBitshift+0x70>
 80027ac:	3118      	adds	r1, #24
 80027ae:	428b      	cmp	r3, r1
 80027b0:	d01c      	beq.n	80027ec <DMA_CalcBaseAndBitshift+0x70>
 80027b2:	f501 7156 	add.w	r1, r1, #856	@ 0x358
 80027b6:	428b      	cmp	r3, r1
 80027b8:	d018      	beq.n	80027ec <DMA_CalcBaseAndBitshift+0x70>
 80027ba:	3118      	adds	r1, #24
 80027bc:	428b      	cmp	r3, r1
 80027be:	d015      	beq.n	80027ec <DMA_CalcBaseAndBitshift+0x70>
 80027c0:	3118      	adds	r1, #24
 80027c2:	428b      	cmp	r3, r1
 80027c4:	d012      	beq.n	80027ec <DMA_CalcBaseAndBitshift+0x70>
 80027c6:	3118      	adds	r1, #24
 80027c8:	428b      	cmp	r3, r1
 80027ca:	d00f      	beq.n	80027ec <DMA_CalcBaseAndBitshift+0x70>
 80027cc:	3118      	adds	r1, #24
 80027ce:	428b      	cmp	r3, r1
 80027d0:	d00c      	beq.n	80027ec <DMA_CalcBaseAndBitshift+0x70>
 80027d2:	3118      	adds	r1, #24
 80027d4:	428b      	cmp	r3, r1
 80027d6:	d009      	beq.n	80027ec <DMA_CalcBaseAndBitshift+0x70>
 80027d8:	3118      	adds	r1, #24
 80027da:	428b      	cmp	r3, r1
 80027dc:	d006      	beq.n	80027ec <DMA_CalcBaseAndBitshift+0x70>
 80027de:	3118      	adds	r1, #24
 80027e0:	428b      	cmp	r3, r1
 80027e2:	d003      	beq.n	80027ec <DMA_CalcBaseAndBitshift+0x70>
 80027e4:	f023 00ff 	bic.w	r0, r3, #255	@ 0xff
 80027e8:	6590      	str	r0, [r2, #88]	@ 0x58
 80027ea:	bd10      	pop	{r4, pc}
 80027ec:	b2dc      	uxtb	r4, r3
 80027ee:	2118      	movs	r1, #24
 80027f0:	4808      	ldr	r0, [pc, #32]	@ (8002814 <DMA_CalcBaseAndBitshift+0x98>)
 80027f2:	3c10      	subs	r4, #16
 80027f4:	fbb4 f1f1 	udiv	r1, r4, r1
 80027f8:	f001 0107 	and.w	r1, r1, #7
 80027fc:	2c5f      	cmp	r4, #95	@ 0x5f
 80027fe:	5c41      	ldrb	r1, [r0, r1]
 8002800:	f423 707f 	bic.w	r0, r3, #1020	@ 0x3fc
 8002804:	f020 0003 	bic.w	r0, r0, #3
 8002808:	65d1      	str	r1, [r2, #92]	@ 0x5c
 800280a:	bf88      	it	hi
 800280c:	3004      	addhi	r0, #4
 800280e:	e7eb      	b.n	80027e8 <DMA_CalcBaseAndBitshift+0x6c>
 8002810:	40020010 	.word	0x40020010
 8002814:	08007df0 	.word	0x08007df0

08002818 <DMA_CalcDMAMUXChannelBaseAndMask>:
 8002818:	6802      	ldr	r2, [r0, #0]
 800281a:	4921      	ldr	r1, [pc, #132]	@ (80028a0 <DMA_CalcDMAMUXChannelBaseAndMask+0x88>)
 800281c:	b2d3      	uxtb	r3, r2
 800281e:	428a      	cmp	r2, r1
 8002820:	d028      	beq.n	8002874 <DMA_CalcDMAMUXChannelBaseAndMask+0x5c>
 8002822:	3114      	adds	r1, #20
 8002824:	428a      	cmp	r2, r1
 8002826:	d025      	beq.n	8002874 <DMA_CalcDMAMUXChannelBaseAndMask+0x5c>
 8002828:	3114      	adds	r1, #20
 800282a:	428a      	cmp	r2, r1
 800282c:	d022      	beq.n	8002874 <DMA_CalcDMAMUXChannelBaseAndMask+0x5c>
 800282e:	3114      	adds	r1, #20
 8002830:	428a      	cmp	r2, r1
 8002832:	d01f      	beq.n	8002874 <DMA_CalcDMAMUXChannelBaseAndMask+0x5c>
 8002834:	3114      	adds	r1, #20
 8002836:	428a      	cmp	r2, r1
 8002838:	d01c      	beq.n	8002874 <DMA_CalcDMAMUXChannelBaseAndMask+0x5c>
 800283a:	3114      	adds	r1, #20
 800283c:	428a      	cmp	r2, r1
 800283e:	d019      	beq.n	8002874 <DMA_CalcDMAMUXChannelBaseAndMask+0x5c>
 8002840:	3114      	adds	r1, #20
 8002842:	428a      	cmp	r2, r1
 8002844:	d016      	beq.n	8002874 <DMA_CalcDMAMUXChannelBaseAndMask+0x5c>
 8002846:	3114      	adds	r1, #20
 8002848:	428a      	cmp	r2, r1
 800284a:	d013      	beq.n	8002874 <DMA_CalcDMAMUXChannelBaseAndMask+0x5c>
 800284c:	2118      	movs	r1, #24
 800284e:	3b10      	subs	r3, #16
 8002850:	fbb3 f3f1 	udiv	r3, r3, r1
 8002854:	4913      	ldr	r1, [pc, #76]	@ (80028a4 <DMA_CalcDMAMUXChannelBaseAndMask+0x8c>)
 8002856:	4411      	add	r1, r2
 8002858:	29a8      	cmp	r1, #168	@ 0xa8
 800285a:	d91e      	bls.n	800289a <DMA_CalcDMAMUXChannelBaseAndMask+0x82>
 800285c:	f103 5280 	add.w	r2, r3, #268435456	@ 0x10000000
 8002860:	2101      	movs	r1, #1
 8002862:	f003 031f 	and.w	r3, r3, #31
 8002866:	f502 4202 	add.w	r2, r2, #33280	@ 0x8200
 800286a:	fa01 f303 	lsl.w	r3, r1, r3
 800286e:	490e      	ldr	r1, [pc, #56]	@ (80028a8 <DMA_CalcDMAMUXChannelBaseAndMask+0x90>)
 8002870:	0092      	lsls	r2, r2, #2
 8002872:	e00e      	b.n	8002892 <DMA_CalcDMAMUXChannelBaseAndMask+0x7a>
 8002874:	2214      	movs	r2, #20
 8002876:	3b08      	subs	r3, #8
 8002878:	2101      	movs	r1, #1
 800287a:	fbb3 f3f2 	udiv	r3, r3, r2
 800287e:	f103 52b0 	add.w	r2, r3, #369098752	@ 0x16000000
 8002882:	f003 031f 	and.w	r3, r3, #31
 8002886:	f502 4216 	add.w	r2, r2, #38400	@ 0x9600
 800288a:	fa01 f303 	lsl.w	r3, r1, r3
 800288e:	4907      	ldr	r1, [pc, #28]	@ (80028ac <DMA_CalcDMAMUXChannelBaseAndMask+0x94>)
 8002890:	0092      	lsls	r2, r2, #2
 8002892:	6683      	str	r3, [r0, #104]	@ 0x68
 8002894:	e9c0 2118 	strd	r2, r1, [r0, #96]	@ 0x60
 8002898:	4770      	bx	lr
 800289a:	3308      	adds	r3, #8
 800289c:	e7de      	b.n	800285c <DMA_CalcDMAMUXChannelBaseAndMask+0x44>
 800289e:	bf00      	nop
 80028a0:	58025408 	.word	0x58025408
 80028a4:	bffdfbf0 	.word	0xbffdfbf0
 80028a8:	40020880 	.word	0x40020880
 80028ac:	58025880 	.word	0x58025880

080028b0 <DMA_CalcDMAMUXRequestGenBaseAndMask>:
 80028b0:	7902      	ldrb	r2, [r0, #4]
 80028b2:	1e51      	subs	r1, r2, #1
 80028b4:	2907      	cmp	r1, #7
 80028b6:	b510      	push	{r4, lr}
 80028b8:	d821      	bhi.n	80028fe <DMA_CalcDMAMUXRequestGenBaseAndMask+0x4e>
 80028ba:	6803      	ldr	r3, [r0, #0]
 80028bc:	4c13      	ldr	r4, [pc, #76]	@ (800290c <DMA_CalcDMAMUXRequestGenBaseAndMask+0x5c>)
 80028be:	42a3      	cmp	r3, r4
 80028c0:	d01e      	beq.n	8002900 <DMA_CalcDMAMUXRequestGenBaseAndMask+0x50>
 80028c2:	3414      	adds	r4, #20
 80028c4:	42a3      	cmp	r3, r4
 80028c6:	d01b      	beq.n	8002900 <DMA_CalcDMAMUXRequestGenBaseAndMask+0x50>
 80028c8:	3414      	adds	r4, #20
 80028ca:	42a3      	cmp	r3, r4
 80028cc:	d018      	beq.n	8002900 <DMA_CalcDMAMUXRequestGenBaseAndMask+0x50>
 80028ce:	3414      	adds	r4, #20
 80028d0:	42a3      	cmp	r3, r4
 80028d2:	d015      	beq.n	8002900 <DMA_CalcDMAMUXRequestGenBaseAndMask+0x50>
 80028d4:	3414      	adds	r4, #20
 80028d6:	42a3      	cmp	r3, r4
 80028d8:	d012      	beq.n	8002900 <DMA_CalcDMAMUXRequestGenBaseAndMask+0x50>
 80028da:	3414      	adds	r4, #20
 80028dc:	42a3      	cmp	r3, r4
 80028de:	d00f      	beq.n	8002900 <DMA_CalcDMAMUXRequestGenBaseAndMask+0x50>
 80028e0:	3414      	adds	r4, #20
 80028e2:	42a3      	cmp	r3, r4
 80028e4:	d00c      	beq.n	8002900 <DMA_CalcDMAMUXRequestGenBaseAndMask+0x50>
 80028e6:	3414      	adds	r4, #20
 80028e8:	42a3      	cmp	r3, r4
 80028ea:	d009      	beq.n	8002900 <DMA_CalcDMAMUXRequestGenBaseAndMask+0x50>
 80028ec:	4b08      	ldr	r3, [pc, #32]	@ (8002910 <DMA_CalcDMAMUXRequestGenBaseAndMask+0x60>)
 80028ee:	4413      	add	r3, r2
 80028f0:	4a08      	ldr	r2, [pc, #32]	@ (8002914 <DMA_CalcDMAMUXRequestGenBaseAndMask+0x64>)
 80028f2:	009b      	lsls	r3, r3, #2
 80028f4:	e9c0 321b 	strd	r3, r2, [r0, #108]	@ 0x6c
 80028f8:	2301      	movs	r3, #1
 80028fa:	408b      	lsls	r3, r1
 80028fc:	6743      	str	r3, [r0, #116]	@ 0x74
 80028fe:	bd10      	pop	{r4, pc}
 8002900:	4b05      	ldr	r3, [pc, #20]	@ (8002918 <DMA_CalcDMAMUXRequestGenBaseAndMask+0x68>)
 8002902:	4413      	add	r3, r2
 8002904:	4a05      	ldr	r2, [pc, #20]	@ (800291c <DMA_CalcDMAMUXRequestGenBaseAndMask+0x6c>)
 8002906:	009b      	lsls	r3, r3, #2
 8002908:	e7f4      	b.n	80028f4 <DMA_CalcDMAMUXRequestGenBaseAndMask+0x44>
 800290a:	bf00      	nop
 800290c:	58025408 	.word	0x58025408
 8002910:	1000823f 	.word	0x1000823f
 8002914:	40020940 	.word	0x40020940
 8002918:	1600963f 	.word	0x1600963f
 800291c:	58025940 	.word	0x58025940

08002920 <HAL_DMA_Init>:
 8002920:	b5f8      	push	{r3, r4, r5, r6, r7, lr}
 8002922:	4604      	mov	r4, r0
 8002924:	f7ff f87c 	bl	8001a20 <HAL_GetTick>
 8002928:	4606      	mov	r6, r0
 800292a:	2c00      	cmp	r4, #0
 800292c:	f000 80ee 	beq.w	8002b0c <HAL_DMA_Init+0x1ec>
 8002930:	6823      	ldr	r3, [r4, #0]
 8002932:	4d83      	ldr	r5, [pc, #524]	@ (8002b40 <HAL_DMA_Init+0x220>)
 8002934:	42ab      	cmp	r3, r5
 8002936:	d06a      	beq.n	8002a0e <HAL_DMA_Init+0xee>
 8002938:	4a82      	ldr	r2, [pc, #520]	@ (8002b44 <HAL_DMA_Init+0x224>)
 800293a:	4293      	cmp	r3, r2
 800293c:	d067      	beq.n	8002a0e <HAL_DMA_Init+0xee>
 800293e:	3218      	adds	r2, #24
 8002940:	4293      	cmp	r3, r2
 8002942:	d064      	beq.n	8002a0e <HAL_DMA_Init+0xee>
 8002944:	3218      	adds	r2, #24
 8002946:	4293      	cmp	r3, r2
 8002948:	d061      	beq.n	8002a0e <HAL_DMA_Init+0xee>
 800294a:	3218      	adds	r2, #24
 800294c:	4293      	cmp	r3, r2
 800294e:	d05e      	beq.n	8002a0e <HAL_DMA_Init+0xee>
 8002950:	3218      	adds	r2, #24
 8002952:	4293      	cmp	r3, r2
 8002954:	d05b      	beq.n	8002a0e <HAL_DMA_Init+0xee>
 8002956:	3218      	adds	r2, #24
 8002958:	4293      	cmp	r3, r2
 800295a:	d058      	beq.n	8002a0e <HAL_DMA_Init+0xee>
 800295c:	3218      	adds	r2, #24
 800295e:	4293      	cmp	r3, r2
 8002960:	d055      	beq.n	8002a0e <HAL_DMA_Init+0xee>
 8002962:	f502 7256 	add.w	r2, r2, #856	@ 0x358
 8002966:	4293      	cmp	r3, r2
 8002968:	d051      	beq.n	8002a0e <HAL_DMA_Init+0xee>
 800296a:	3218      	adds	r2, #24
 800296c:	4293      	cmp	r3, r2
 800296e:	d04e      	beq.n	8002a0e <HAL_DMA_Init+0xee>
 8002970:	3218      	adds	r2, #24
 8002972:	4293      	cmp	r3, r2
 8002974:	d04b      	beq.n	8002a0e <HAL_DMA_Init+0xee>
 8002976:	3218      	adds	r2, #24
 8002978:	4293      	cmp	r3, r2
 800297a:	d048      	beq.n	8002a0e <HAL_DMA_Init+0xee>
 800297c:	3218      	adds	r2, #24
 800297e:	4293      	cmp	r3, r2
 8002980:	d045      	beq.n	8002a0e <HAL_DMA_Init+0xee>
 8002982:	3218      	adds	r2, #24
 8002984:	4293      	cmp	r3, r2
 8002986:	d042      	beq.n	8002a0e <HAL_DMA_Init+0xee>
 8002988:	3218      	adds	r2, #24
 800298a:	4293      	cmp	r3, r2
 800298c:	d03f      	beq.n	8002a0e <HAL_DMA_Init+0xee>
 800298e:	3218      	adds	r2, #24
 8002990:	4293      	cmp	r3, r2
 8002992:	d03c      	beq.n	8002a0e <HAL_DMA_Init+0xee>
 8002994:	4a6c      	ldr	r2, [pc, #432]	@ (8002b48 <HAL_DMA_Init+0x228>)
 8002996:	4293      	cmp	r3, r2
 8002998:	f040 8157 	bne.w	8002c4a <HAL_DMA_Init+0x32a>
 800299c:	2202      	movs	r2, #2
 800299e:	68a1      	ldr	r1, [r4, #8]
 80029a0:	f884 2035 	strb.w	r2, [r4, #53]	@ 0x35
 80029a4:	2200      	movs	r2, #0
 80029a6:	2940      	cmp	r1, #64	@ 0x40
 80029a8:	f884 2034 	strb.w	r2, [r4, #52]	@ 0x34
 80029ac:	6818      	ldr	r0, [r3, #0]
 80029ae:	f420 30ff 	bic.w	r0, r0, #130560	@ 0x1fe00
 80029b2:	f420 70f8 	bic.w	r0, r0, #496	@ 0x1f0
 80029b6:	f000 8166 	beq.w	8002c86 <HAL_DMA_Init+0x366>
 80029ba:	f1a1 0280 	sub.w	r2, r1, #128	@ 0x80
 80029be:	4251      	negs	r1, r2
 80029c0:	4151      	adcs	r1, r2
 80029c2:	0389      	lsls	r1, r1, #14
 80029c4:	e9d4 6203 	ldrd	r6, r2, [r4, #12]
 80029c8:	08d2      	lsrs	r2, r2, #3
 80029ca:	ea42 02d6 	orr.w	r2, r2, r6, lsr #3
 80029ce:	6966      	ldr	r6, [r4, #20]
 80029d0:	ea42 02d6 	orr.w	r2, r2, r6, lsr #3
 80029d4:	69a6      	ldr	r6, [r4, #24]
 80029d6:	ea42 02d6 	orr.w	r2, r2, r6, lsr #3
 80029da:	69e6      	ldr	r6, [r4, #28]
 80029dc:	ea42 02d6 	orr.w	r2, r2, r6, lsr #3
 80029e0:	6a26      	ldr	r6, [r4, #32]
 80029e2:	ea42 1216 	orr.w	r2, r2, r6, lsr #4
 80029e6:	4302      	orrs	r2, r0
 80029e8:	4620      	mov	r0, r4
 80029ea:	4311      	orrs	r1, r2
 80029ec:	4a57      	ldr	r2, [pc, #348]	@ (8002b4c <HAL_DMA_Init+0x22c>)
 80029ee:	6019      	str	r1, [r3, #0]
 80029f0:	441a      	add	r2, r3
 80029f2:	2314      	movs	r3, #20
 80029f4:	fbb2 f2f3 	udiv	r2, r2, r3
 80029f8:	0092      	lsls	r2, r2, #2
 80029fa:	65e2      	str	r2, [r4, #92]	@ 0x5c
 80029fc:	f7ff febe 	bl	800277c <DMA_CalcBaseAndBitshift>
 8002a00:	6de3      	ldr	r3, [r4, #92]	@ 0x5c
 8002a02:	f003 021f 	and.w	r2, r3, #31
 8002a06:	2301      	movs	r3, #1
 8002a08:	4093      	lsls	r3, r2
 8002a0a:	6043      	str	r3, [r0, #4]
 8002a0c:	e0b4      	b.n	8002b78 <HAL_DMA_Init+0x258>
 8002a0e:	2202      	movs	r2, #2
 8002a10:	42ab      	cmp	r3, r5
 8002a12:	f884 2035 	strb.w	r2, [r4, #53]	@ 0x35
 8002a16:	f04f 0200 	mov.w	r2, #0
 8002a1a:	f884 2034 	strb.w	r2, [r4, #52]	@ 0x34
 8002a1e:	d01e      	beq.n	8002a5e <HAL_DMA_Init+0x13e>
 8002a20:	4a48      	ldr	r2, [pc, #288]	@ (8002b44 <HAL_DMA_Init+0x224>)
 8002a22:	4293      	cmp	r3, r2
 8002a24:	d01b      	beq.n	8002a5e <HAL_DMA_Init+0x13e>
 8002a26:	3218      	adds	r2, #24
 8002a28:	4293      	cmp	r3, r2
 8002a2a:	d018      	beq.n	8002a5e <HAL_DMA_Init+0x13e>
 8002a2c:	3218      	adds	r2, #24
 8002a2e:	4293      	cmp	r3, r2
 8002a30:	d015      	beq.n	8002a5e <HAL_DMA_Init+0x13e>
 8002a32:	3218      	adds	r2, #24
 8002a34:	4293      	cmp	r3, r2
 8002a36:	d012      	beq.n	8002a5e <HAL_DMA_Init+0x13e>
 8002a38:	3218      	adds	r2, #24
 8002a3a:	4293      	cmp	r3, r2
 8002a3c:	d00f      	beq.n	8002a5e <HAL_DMA_Init+0x13e>
 8002a3e:	3218      	adds	r2, #24
 8002a40:	4293      	cmp	r3, r2
 8002a42:	d00c      	beq.n	8002a5e <HAL_DMA_Init+0x13e>
 8002a44:	3218      	adds	r2, #24
 8002a46:	4293      	cmp	r3, r2
 8002a48:	d009      	beq.n	8002a5e <HAL_DMA_Init+0x13e>
 8002a4a:	f502 7256 	add.w	r2, r2, #856	@ 0x358
 8002a4e:	4293      	cmp	r3, r2
 8002a50:	d005      	beq.n	8002a5e <HAL_DMA_Init+0x13e>
 8002a52:	3218      	adds	r2, #24
 8002a54:	4293      	cmp	r3, r2
 8002a56:	d002      	beq.n	8002a5e <HAL_DMA_Init+0x13e>
 8002a58:	3218      	adds	r2, #24
 8002a5a:	4293      	cmp	r3, r2
 8002a5c:	d0ff      	beq.n	8002a5e <HAL_DMA_Init+0x13e>
 8002a5e:	681a      	ldr	r2, [r3, #0]
 8002a60:	f022 0201 	bic.w	r2, r2, #1
 8002a64:	601a      	str	r2, [r3, #0]
 8002a66:	6822      	ldr	r2, [r4, #0]
 8002a68:	6813      	ldr	r3, [r2, #0]
 8002a6a:	07df      	lsls	r7, r3, #31
 8002a6c:	d444      	bmi.n	8002af8 <HAL_DMA_Init+0x1d8>
 8002a6e:	6813      	ldr	r3, [r2, #0]
 8002a70:	4837      	ldr	r0, [pc, #220]	@ (8002b50 <HAL_DMA_Init+0x230>)
 8002a72:	69a1      	ldr	r1, [r4, #24]
 8002a74:	4018      	ands	r0, r3
 8002a76:	e9d4 3602 	ldrd	r3, r6, [r4, #8]
 8002a7a:	4333      	orrs	r3, r6
 8002a7c:	6926      	ldr	r6, [r4, #16]
 8002a7e:	4333      	orrs	r3, r6
 8002a80:	6966      	ldr	r6, [r4, #20]
 8002a82:	4333      	orrs	r3, r6
 8002a84:	69e6      	ldr	r6, [r4, #28]
 8002a86:	430b      	orrs	r3, r1
 8002a88:	4333      	orrs	r3, r6
 8002a8a:	6a26      	ldr	r6, [r4, #32]
 8002a8c:	4333      	orrs	r3, r6
 8002a8e:	6a66      	ldr	r6, [r4, #36]	@ 0x24
 8002a90:	2e04      	cmp	r6, #4
 8002a92:	ea43 0300 	orr.w	r3, r3, r0
 8002a96:	bf02      	ittt	eq
 8002a98:	e9d4 070b 	ldrdeq	r0, r7, [r4, #44]	@ 0x2c
 8002a9c:	4338      	orreq	r0, r7
 8002a9e:	4303      	orreq	r3, r0
 8002aa0:	482c      	ldr	r0, [pc, #176]	@ (8002b54 <HAL_DMA_Init+0x234>)
 8002aa2:	6800      	ldr	r0, [r0, #0]
 8002aa4:	0c00      	lsrs	r0, r0, #16
 8002aa6:	0400      	lsls	r0, r0, #16
 8002aa8:	f1b0 5f00 	cmp.w	r0, #536870912	@ 0x20000000
 8002aac:	d30e      	bcc.n	8002acc <HAL_DMA_Init+0x1ac>
 8002aae:	6860      	ldr	r0, [r4, #4]
 8002ab0:	f1a0 0729 	sub.w	r7, r0, #41	@ 0x29
 8002ab4:	2f05      	cmp	r7, #5
 8002ab6:	d907      	bls.n	8002ac8 <HAL_DMA_Init+0x1a8>
 8002ab8:	383f      	subs	r0, #63	@ 0x3f
 8002aba:	2813      	cmp	r0, #19
 8002abc:	d806      	bhi.n	8002acc <HAL_DMA_Init+0x1ac>
 8002abe:	4f26      	ldr	r7, [pc, #152]	@ (8002b58 <HAL_DMA_Init+0x238>)
 8002ac0:	fa27 f000 	lsr.w	r0, r7, r0
 8002ac4:	07c0      	lsls	r0, r0, #31
 8002ac6:	d501      	bpl.n	8002acc <HAL_DMA_Init+0x1ac>
 8002ac8:	f443 1380 	orr.w	r3, r3, #1048576	@ 0x100000
 8002acc:	6013      	str	r3, [r2, #0]
 8002ace:	2e04      	cmp	r6, #4
 8002ad0:	6953      	ldr	r3, [r2, #20]
 8002ad2:	f023 0307 	bic.w	r3, r3, #7
 8002ad6:	ea43 0306 	orr.w	r3, r3, r6
 8002ada:	d143      	bne.n	8002b64 <HAL_DMA_Init+0x244>
 8002adc:	6aa0      	ldr	r0, [r4, #40]	@ 0x28
 8002ade:	6ae6      	ldr	r6, [r4, #44]	@ 0x2c
 8002ae0:	4303      	orrs	r3, r0
 8002ae2:	2e00      	cmp	r6, #0
 8002ae4:	d03e      	beq.n	8002b64 <HAL_DMA_Init+0x244>
 8002ae6:	b999      	cbnz	r1, 8002b10 <HAL_DMA_Init+0x1f0>
 8002ae8:	2801      	cmp	r0, #1
 8002aea:	d021      	beq.n	8002b30 <HAL_DMA_Init+0x210>
 8002aec:	f030 0102 	bics.w	r1, r0, #2
 8002af0:	d138      	bne.n	8002b64 <HAL_DMA_Init+0x244>
 8002af2:	01f1      	lsls	r1, r6, #7
 8002af4:	d536      	bpl.n	8002b64 <HAL_DMA_Init+0x244>
 8002af6:	e01e      	b.n	8002b36 <HAL_DMA_Init+0x216>
 8002af8:	f7fe ff92 	bl	8001a20 <HAL_GetTick>
 8002afc:	1b80      	subs	r0, r0, r6
 8002afe:	2805      	cmp	r0, #5
 8002b00:	d9b1      	bls.n	8002a66 <HAL_DMA_Init+0x146>
 8002b02:	2320      	movs	r3, #32
 8002b04:	6563      	str	r3, [r4, #84]	@ 0x54
 8002b06:	2303      	movs	r3, #3
 8002b08:	f884 3035 	strb.w	r3, [r4, #53]	@ 0x35
 8002b0c:	2001      	movs	r0, #1
 8002b0e:	bdf8      	pop	{r3, r4, r5, r6, r7, pc}
 8002b10:	f5b1 5f00 	cmp.w	r1, #8192	@ 0x2000
 8002b14:	d122      	bne.n	8002b5c <HAL_DMA_Init+0x23c>
 8002b16:	2803      	cmp	r0, #3
 8002b18:	d824      	bhi.n	8002b64 <HAL_DMA_Init+0x244>
 8002b1a:	a101      	add	r1, pc, #4	@ (adr r1, 8002b20 <HAL_DMA_Init+0x200>)
 8002b1c:	f851 f020 	ldr.w	pc, [r1, r0, lsl #2]
 8002b20:	08002b37 	.word	0x08002b37
 8002b24:	08002af3 	.word	0x08002af3
 8002b28:	08002b37 	.word	0x08002b37
 8002b2c:	08002b31 	.word	0x08002b31
 8002b30:	f1b6 7fc0 	cmp.w	r6, #25165824	@ 0x1800000
 8002b34:	d116      	bne.n	8002b64 <HAL_DMA_Init+0x244>
 8002b36:	2340      	movs	r3, #64	@ 0x40
 8002b38:	6563      	str	r3, [r4, #84]	@ 0x54
 8002b3a:	2301      	movs	r3, #1
 8002b3c:	e7e4      	b.n	8002b08 <HAL_DMA_Init+0x1e8>
 8002b3e:	bf00      	nop
 8002b40:	40020010 	.word	0x40020010
 8002b44:	40020028 	.word	0x40020028
 8002b48:	58025408 	.word	0x58025408
 8002b4c:	a7fdabf8 	.word	0xa7fdabf8
 8002b50:	fe10803f 	.word	0xfe10803f
 8002b54:	5c001000 	.word	0x5c001000
 8002b58:	000f030f 	.word	0x000f030f
 8002b5c:	2802      	cmp	r0, #2
 8002b5e:	d9ea      	bls.n	8002b36 <HAL_DMA_Init+0x216>
 8002b60:	2803      	cmp	r0, #3
 8002b62:	d0c6      	beq.n	8002af2 <HAL_DMA_Init+0x1d2>
 8002b64:	6153      	str	r3, [r2, #20]
 8002b66:	4620      	mov	r0, r4
 8002b68:	f7ff fe08 	bl	800277c <DMA_CalcBaseAndBitshift>
 8002b6c:	6de3      	ldr	r3, [r4, #92]	@ 0x5c
 8002b6e:	f003 021f 	and.w	r2, r3, #31
 8002b72:	233f      	movs	r3, #63	@ 0x3f
 8002b74:	4093      	lsls	r3, r2
 8002b76:	6083      	str	r3, [r0, #8]
 8002b78:	6823      	ldr	r3, [r4, #0]
 8002b7a:	42ab      	cmp	r3, r5
 8002b7c:	d045      	beq.n	8002c0a <HAL_DMA_Init+0x2ea>
 8002b7e:	4a45      	ldr	r2, [pc, #276]	@ (8002c94 <HAL_DMA_Init+0x374>)
 8002b80:	4293      	cmp	r3, r2
 8002b82:	d042      	beq.n	8002c0a <HAL_DMA_Init+0x2ea>
 8002b84:	3218      	adds	r2, #24
 8002b86:	4293      	cmp	r3, r2
 8002b88:	d03f      	beq.n	8002c0a <HAL_DMA_Init+0x2ea>
 8002b8a:	3218      	adds	r2, #24
 8002b8c:	4293      	cmp	r3, r2
 8002b8e:	d03c      	beq.n	8002c0a <HAL_DMA_Init+0x2ea>
 8002b90:	3218      	adds	r2, #24
 8002b92:	4293      	cmp	r3, r2
 8002b94:	d039      	beq.n	8002c0a <HAL_DMA_Init+0x2ea>
 8002b96:	3218      	adds	r2, #24
 8002b98:	4293      	cmp	r3, r2
 8002b9a:	d036      	beq.n	8002c0a <HAL_DMA_Init+0x2ea>
 8002b9c:	3218      	adds	r2, #24
 8002b9e:	4293      	cmp	r3, r2
 8002ba0:	d033      	beq.n	8002c0a <HAL_DMA_Init+0x2ea>
 8002ba2:	3218      	adds	r2, #24
 8002ba4:	4293      	cmp	r3, r2
 8002ba6:	d030      	beq.n	8002c0a <HAL_DMA_Init+0x2ea>
 8002ba8:	f502 7256 	add.w	r2, r2, #856	@ 0x358
 8002bac:	4293      	cmp	r3, r2
 8002bae:	d02c      	beq.n	8002c0a <HAL_DMA_Init+0x2ea>
 8002bb0:	3218      	adds	r2, #24
 8002bb2:	4293      	cmp	r3, r2
 8002bb4:	d029      	beq.n	8002c0a <HAL_DMA_Init+0x2ea>
 8002bb6:	3218      	adds	r2, #24
 8002bb8:	4293      	cmp	r3, r2
 8002bba:	d026      	beq.n	8002c0a <HAL_DMA_Init+0x2ea>
 8002bbc:	3218      	adds	r2, #24
 8002bbe:	4293      	cmp	r3, r2
 8002bc0:	d023      	beq.n	8002c0a <HAL_DMA_Init+0x2ea>
 8002bc2:	3218      	adds	r2, #24
 8002bc4:	4293      	cmp	r3, r2
 8002bc6:	d020      	beq.n	8002c0a <HAL_DMA_Init+0x2ea>
 8002bc8:	3218      	adds	r2, #24
 8002bca:	4293      	cmp	r3, r2
 8002bcc:	d01d      	beq.n	8002c0a <HAL_DMA_Init+0x2ea>
 8002bce:	3218      	adds	r2, #24
 8002bd0:	4293      	cmp	r3, r2
 8002bd2:	d01a      	beq.n	8002c0a <HAL_DMA_Init+0x2ea>
 8002bd4:	3218      	adds	r2, #24
 8002bd6:	4293      	cmp	r3, r2
 8002bd8:	d017      	beq.n	8002c0a <HAL_DMA_Init+0x2ea>
 8002bda:	4a2f      	ldr	r2, [pc, #188]	@ (8002c98 <HAL_DMA_Init+0x378>)
 8002bdc:	4293      	cmp	r3, r2
 8002bde:	d014      	beq.n	8002c0a <HAL_DMA_Init+0x2ea>
 8002be0:	3214      	adds	r2, #20
 8002be2:	4293      	cmp	r3, r2
 8002be4:	d011      	beq.n	8002c0a <HAL_DMA_Init+0x2ea>
 8002be6:	3214      	adds	r2, #20
 8002be8:	4293      	cmp	r3, r2
 8002bea:	d00e      	beq.n	8002c0a <HAL_DMA_Init+0x2ea>
 8002bec:	3214      	adds	r2, #20
 8002bee:	4293      	cmp	r3, r2
 8002bf0:	d00b      	beq.n	8002c0a <HAL_DMA_Init+0x2ea>
 8002bf2:	3214      	adds	r2, #20
 8002bf4:	4293      	cmp	r3, r2
 8002bf6:	d008      	beq.n	8002c0a <HAL_DMA_Init+0x2ea>
 8002bf8:	3214      	adds	r2, #20
 8002bfa:	4293      	cmp	r3, r2
 8002bfc:	d005      	beq.n	8002c0a <HAL_DMA_Init+0x2ea>
 8002bfe:	3214      	adds	r2, #20
 8002c00:	4293      	cmp	r3, r2
 8002c02:	d002      	beq.n	8002c0a <HAL_DMA_Init+0x2ea>
 8002c04:	3214      	adds	r2, #20
 8002c06:	4293      	cmp	r3, r2
 8002c08:	d119      	bne.n	8002c3e <HAL_DMA_Init+0x31e>
 8002c0a:	4620      	mov	r0, r4
 8002c0c:	2500      	movs	r5, #0
 8002c0e:	f7ff fe03 	bl	8002818 <DMA_CalcDMAMUXChannelBaseAndMask>
 8002c12:	68a3      	ldr	r3, [r4, #8]
 8002c14:	6e22      	ldr	r2, [r4, #96]	@ 0x60
 8002c16:	2b80      	cmp	r3, #128	@ 0x80
 8002c18:	bf04      	itt	eq
 8002c1a:	2300      	moveq	r3, #0
 8002c1c:	6063      	streq	r3, [r4, #4]
 8002c1e:	6863      	ldr	r3, [r4, #4]
 8002c20:	b2d9      	uxtb	r1, r3
 8002c22:	3b01      	subs	r3, #1
 8002c24:	6011      	str	r1, [r2, #0]
 8002c26:	2b07      	cmp	r3, #7
 8002c28:	e9d4 2119 	ldrd	r2, r1, [r4, #100]	@ 0x64
 8002c2c:	6051      	str	r1, [r2, #4]
 8002c2e:	d82c      	bhi.n	8002c8a <HAL_DMA_Init+0x36a>
 8002c30:	f7ff fe3e 	bl	80028b0 <DMA_CalcDMAMUXRequestGenBaseAndMask>
 8002c34:	6ee3      	ldr	r3, [r4, #108]	@ 0x6c
 8002c36:	601d      	str	r5, [r3, #0]
 8002c38:	e9d4 321c 	ldrd	r3, r2, [r4, #112]	@ 0x70
 8002c3c:	605a      	str	r2, [r3, #4]
 8002c3e:	2000      	movs	r0, #0
 8002c40:	2301      	movs	r3, #1
 8002c42:	6560      	str	r0, [r4, #84]	@ 0x54
 8002c44:	f884 3035 	strb.w	r3, [r4, #53]	@ 0x35
 8002c48:	e761      	b.n	8002b0e <HAL_DMA_Init+0x1ee>
 8002c4a:	4a14      	ldr	r2, [pc, #80]	@ (8002c9c <HAL_DMA_Init+0x37c>)
 8002c4c:	4293      	cmp	r3, r2
 8002c4e:	f43f aea5 	beq.w	800299c <HAL_DMA_Init+0x7c>
 8002c52:	3214      	adds	r2, #20
 8002c54:	4293      	cmp	r3, r2
 8002c56:	f43f aea1 	beq.w	800299c <HAL_DMA_Init+0x7c>
 8002c5a:	3214      	adds	r2, #20
 8002c5c:	4293      	cmp	r3, r2
 8002c5e:	f43f ae9d 	beq.w	800299c <HAL_DMA_Init+0x7c>
 8002c62:	3214      	adds	r2, #20
 8002c64:	4293      	cmp	r3, r2
 8002c66:	f43f ae99 	beq.w	800299c <HAL_DMA_Init+0x7c>
 8002c6a:	3214      	adds	r2, #20
 8002c6c:	4293      	cmp	r3, r2
 8002c6e:	f43f ae95 	beq.w	800299c <HAL_DMA_Init+0x7c>
 8002c72:	3214      	adds	r2, #20
 8002c74:	4293      	cmp	r3, r2
 8002c76:	f43f ae91 	beq.w	800299c <HAL_DMA_Init+0x7c>
 8002c7a:	3214      	adds	r2, #20
 8002c7c:	4293      	cmp	r3, r2
 8002c7e:	f43f ae8d 	beq.w	800299c <HAL_DMA_Init+0x7c>
 8002c82:	2340      	movs	r3, #64	@ 0x40
 8002c84:	e73e      	b.n	8002b04 <HAL_DMA_Init+0x1e4>
 8002c86:	2110      	movs	r1, #16
 8002c88:	e69c      	b.n	80029c4 <HAL_DMA_Init+0xa4>
 8002c8a:	e9c4 551b 	strd	r5, r5, [r4, #108]	@ 0x6c
 8002c8e:	6765      	str	r5, [r4, #116]	@ 0x74
 8002c90:	e7d5      	b.n	8002c3e <HAL_DMA_Init+0x31e>
 8002c92:	bf00      	nop
 8002c94:	40020028 	.word	0x40020028
 8002c98:	58025408 	.word	0x58025408
 8002c9c:	5802541c 	.word	0x5802541c

08002ca0 <HAL_DMA_Start_IT>:
 8002ca0:	b570      	push	{r4, r5, r6, lr}
 8002ca2:	2800      	cmp	r0, #0
 8002ca4:	f000 810a 	beq.w	8002ebc <HAL_DMA_Start_IT+0x21c>
 8002ca8:	f890 4034 	ldrb.w	r4, [r0, #52]	@ 0x34
 8002cac:	2c01      	cmp	r4, #1
 8002cae:	f000 8107 	beq.w	8002ec0 <HAL_DMA_Start_IT+0x220>
 8002cb2:	2401      	movs	r4, #1
 8002cb4:	f880 4034 	strb.w	r4, [r0, #52]	@ 0x34
 8002cb8:	f890 4035 	ldrb.w	r4, [r0, #53]	@ 0x35
 8002cbc:	2c01      	cmp	r4, #1
 8002cbe:	f04f 0400 	mov.w	r4, #0
 8002cc2:	f040 80f6 	bne.w	8002eb2 <HAL_DMA_Start_IT+0x212>
 8002cc6:	2502      	movs	r5, #2
 8002cc8:	f880 5035 	strb.w	r5, [r0, #53]	@ 0x35
 8002ccc:	4d7d      	ldr	r5, [pc, #500]	@ (8002ec4 <HAL_DMA_Start_IT+0x224>)
 8002cce:	6544      	str	r4, [r0, #84]	@ 0x54
 8002cd0:	6804      	ldr	r4, [r0, #0]
 8002cd2:	42ac      	cmp	r4, r5
 8002cd4:	d01e      	beq.n	8002d14 <HAL_DMA_Start_IT+0x74>
 8002cd6:	4e7c      	ldr	r6, [pc, #496]	@ (8002ec8 <HAL_DMA_Start_IT+0x228>)
 8002cd8:	42b4      	cmp	r4, r6
 8002cda:	d01b      	beq.n	8002d14 <HAL_DMA_Start_IT+0x74>
 8002cdc:	3618      	adds	r6, #24
 8002cde:	42b4      	cmp	r4, r6
 8002ce0:	d018      	beq.n	8002d14 <HAL_DMA_Start_IT+0x74>
 8002ce2:	3618      	adds	r6, #24
 8002ce4:	42b4      	cmp	r4, r6
 8002ce6:	d015      	beq.n	8002d14 <HAL_DMA_Start_IT+0x74>
 8002ce8:	3618      	adds	r6, #24
 8002cea:	42b4      	cmp	r4, r6
 8002cec:	d012      	beq.n	8002d14 <HAL_DMA_Start_IT+0x74>
 8002cee:	3618      	adds	r6, #24
 8002cf0:	42b4      	cmp	r4, r6
 8002cf2:	d00f      	beq.n	8002d14 <HAL_DMA_Start_IT+0x74>
 8002cf4:	3618      	adds	r6, #24
 8002cf6:	42b4      	cmp	r4, r6
 8002cf8:	d00c      	beq.n	8002d14 <HAL_DMA_Start_IT+0x74>
 8002cfa:	3618      	adds	r6, #24
 8002cfc:	42b4      	cmp	r4, r6
 8002cfe:	d009      	beq.n	8002d14 <HAL_DMA_Start_IT+0x74>
 8002d00:	f506 7656 	add.w	r6, r6, #856	@ 0x358
 8002d04:	42b4      	cmp	r4, r6
 8002d06:	d005      	beq.n	8002d14 <HAL_DMA_Start_IT+0x74>
 8002d08:	3618      	adds	r6, #24
 8002d0a:	42b4      	cmp	r4, r6
 8002d0c:	d002      	beq.n	8002d14 <HAL_DMA_Start_IT+0x74>
 8002d0e:	3618      	adds	r6, #24
 8002d10:	42b4      	cmp	r4, r6
 8002d12:	d0ff      	beq.n	8002d14 <HAL_DMA_Start_IT+0x74>
 8002d14:	6826      	ldr	r6, [r4, #0]
 8002d16:	f026 0601 	bic.w	r6, r6, #1
 8002d1a:	6026      	str	r6, [r4, #0]
 8002d1c:	f7ff fc6c 	bl	80025f8 <DMA_SetConfig>
 8002d20:	42ac      	cmp	r4, r5
 8002d22:	6c02      	ldr	r2, [r0, #64]	@ 0x40
 8002d24:	d053      	beq.n	8002dce <HAL_DMA_Start_IT+0x12e>
 8002d26:	4b68      	ldr	r3, [pc, #416]	@ (8002ec8 <HAL_DMA_Start_IT+0x228>)
 8002d28:	429c      	cmp	r4, r3
 8002d2a:	d050      	beq.n	8002dce <HAL_DMA_Start_IT+0x12e>
 8002d2c:	3318      	adds	r3, #24
 8002d2e:	429c      	cmp	r4, r3
 8002d30:	d04d      	beq.n	8002dce <HAL_DMA_Start_IT+0x12e>
 8002d32:	3318      	adds	r3, #24
 8002d34:	429c      	cmp	r4, r3
 8002d36:	d04a      	beq.n	8002dce <HAL_DMA_Start_IT+0x12e>
 8002d38:	3318      	adds	r3, #24
 8002d3a:	429c      	cmp	r4, r3
 8002d3c:	d047      	beq.n	8002dce <HAL_DMA_Start_IT+0x12e>
 8002d3e:	3318      	adds	r3, #24
 8002d40:	429c      	cmp	r4, r3
 8002d42:	d044      	beq.n	8002dce <HAL_DMA_Start_IT+0x12e>
 8002d44:	3318      	adds	r3, #24
 8002d46:	429c      	cmp	r4, r3
 8002d48:	d041      	beq.n	8002dce <HAL_DMA_Start_IT+0x12e>
 8002d4a:	3318      	adds	r3, #24
 8002d4c:	429c      	cmp	r4, r3
 8002d4e:	d03e      	beq.n	8002dce <HAL_DMA_Start_IT+0x12e>
 8002d50:	f503 7356 	add.w	r3, r3, #856	@ 0x358
 8002d54:	429c      	cmp	r4, r3
 8002d56:	d03a      	beq.n	8002dce <HAL_DMA_Start_IT+0x12e>
 8002d58:	3318      	adds	r3, #24
 8002d5a:	429c      	cmp	r4, r3
 8002d5c:	d037      	beq.n	8002dce <HAL_DMA_Start_IT+0x12e>
 8002d5e:	3318      	adds	r3, #24
 8002d60:	429c      	cmp	r4, r3
 8002d62:	d034      	beq.n	8002dce <HAL_DMA_Start_IT+0x12e>
 8002d64:	3318      	adds	r3, #24
 8002d66:	429c      	cmp	r4, r3
 8002d68:	d031      	beq.n	8002dce <HAL_DMA_Start_IT+0x12e>
 8002d6a:	3318      	adds	r3, #24
 8002d6c:	429c      	cmp	r4, r3
 8002d6e:	d02e      	beq.n	8002dce <HAL_DMA_Start_IT+0x12e>
 8002d70:	3318      	adds	r3, #24
 8002d72:	429c      	cmp	r4, r3
 8002d74:	d02b      	beq.n	8002dce <HAL_DMA_Start_IT+0x12e>
 8002d76:	3318      	adds	r3, #24
 8002d78:	429c      	cmp	r4, r3
 8002d7a:	d028      	beq.n	8002dce <HAL_DMA_Start_IT+0x12e>
 8002d7c:	3318      	adds	r3, #24
 8002d7e:	429c      	cmp	r4, r3
 8002d80:	d025      	beq.n	8002dce <HAL_DMA_Start_IT+0x12e>
 8002d82:	6823      	ldr	r3, [r4, #0]
 8002d84:	f023 030e 	bic.w	r3, r3, #14
 8002d88:	f043 030a 	orr.w	r3, r3, #10
 8002d8c:	6023      	str	r3, [r4, #0]
 8002d8e:	2a00      	cmp	r2, #0
 8002d90:	d156      	bne.n	8002e40 <HAL_DMA_Start_IT+0x1a0>
 8002d92:	4b4e      	ldr	r3, [pc, #312]	@ (8002ecc <HAL_DMA_Start_IT+0x22c>)
 8002d94:	429c      	cmp	r4, r3
 8002d96:	d027      	beq.n	8002de8 <HAL_DMA_Start_IT+0x148>
 8002d98:	4b4d      	ldr	r3, [pc, #308]	@ (8002ed0 <HAL_DMA_Start_IT+0x230>)
 8002d9a:	429c      	cmp	r4, r3
 8002d9c:	d024      	beq.n	8002de8 <HAL_DMA_Start_IT+0x148>
 8002d9e:	3314      	adds	r3, #20
 8002da0:	429c      	cmp	r4, r3
 8002da2:	d021      	beq.n	8002de8 <HAL_DMA_Start_IT+0x148>
 8002da4:	3314      	adds	r3, #20
 8002da6:	429c      	cmp	r4, r3
 8002da8:	d01e      	beq.n	8002de8 <HAL_DMA_Start_IT+0x148>
 8002daa:	3314      	adds	r3, #20
 8002dac:	429c      	cmp	r4, r3
 8002dae:	d01b      	beq.n	8002de8 <HAL_DMA_Start_IT+0x148>
 8002db0:	3314      	adds	r3, #20
 8002db2:	429c      	cmp	r4, r3
 8002db4:	d018      	beq.n	8002de8 <HAL_DMA_Start_IT+0x148>
 8002db6:	3314      	adds	r3, #20
 8002db8:	429c      	cmp	r4, r3
 8002dba:	d015      	beq.n	8002de8 <HAL_DMA_Start_IT+0x148>
 8002dbc:	3314      	adds	r3, #20
 8002dbe:	429c      	cmp	r4, r3
 8002dc0:	d012      	beq.n	8002de8 <HAL_DMA_Start_IT+0x148>
 8002dc2:	6823      	ldr	r3, [r4, #0]
 8002dc4:	2000      	movs	r0, #0
 8002dc6:	f043 0301 	orr.w	r3, r3, #1
 8002dca:	6023      	str	r3, [r4, #0]
 8002dcc:	bd70      	pop	{r4, r5, r6, pc}
 8002dce:	6823      	ldr	r3, [r4, #0]
 8002dd0:	f023 031e 	bic.w	r3, r3, #30
 8002dd4:	f043 0316 	orr.w	r3, r3, #22
 8002dd8:	6023      	str	r3, [r4, #0]
 8002dda:	b11a      	cbz	r2, 8002de4 <HAL_DMA_Start_IT+0x144>
 8002ddc:	6823      	ldr	r3, [r4, #0]
 8002dde:	f043 0308 	orr.w	r3, r3, #8
 8002de2:	6023      	str	r3, [r4, #0]
 8002de4:	42ac      	cmp	r4, r5
 8002de6:	d130      	bne.n	8002e4a <HAL_DMA_Start_IT+0x1aa>
 8002de8:	6e03      	ldr	r3, [r0, #96]	@ 0x60
 8002dea:	681a      	ldr	r2, [r3, #0]
 8002dec:	03d2      	lsls	r2, r2, #15
 8002dee:	d45b      	bmi.n	8002ea8 <HAL_DMA_Start_IT+0x208>
 8002df0:	6ec3      	ldr	r3, [r0, #108]	@ 0x6c
 8002df2:	b11b      	cbz	r3, 8002dfc <HAL_DMA_Start_IT+0x15c>
 8002df4:	681a      	ldr	r2, [r3, #0]
 8002df6:	f442 7280 	orr.w	r2, r2, #256	@ 0x100
 8002dfa:	601a      	str	r2, [r3, #0]
 8002dfc:	42ac      	cmp	r4, r5
 8002dfe:	d0e0      	beq.n	8002dc2 <HAL_DMA_Start_IT+0x122>
 8002e00:	4b31      	ldr	r3, [pc, #196]	@ (8002ec8 <HAL_DMA_Start_IT+0x228>)
 8002e02:	429c      	cmp	r4, r3
 8002e04:	d0dd      	beq.n	8002dc2 <HAL_DMA_Start_IT+0x122>
 8002e06:	3318      	adds	r3, #24
 8002e08:	429c      	cmp	r4, r3
 8002e0a:	d0da      	beq.n	8002dc2 <HAL_DMA_Start_IT+0x122>
 8002e0c:	3318      	adds	r3, #24
 8002e0e:	429c      	cmp	r4, r3
 8002e10:	d0d7      	beq.n	8002dc2 <HAL_DMA_Start_IT+0x122>
 8002e12:	3318      	adds	r3, #24
 8002e14:	429c      	cmp	r4, r3
 8002e16:	d0d4      	beq.n	8002dc2 <HAL_DMA_Start_IT+0x122>
 8002e18:	3318      	adds	r3, #24
 8002e1a:	429c      	cmp	r4, r3
 8002e1c:	d0d1      	beq.n	8002dc2 <HAL_DMA_Start_IT+0x122>
 8002e1e:	3318      	adds	r3, #24
 8002e20:	429c      	cmp	r4, r3
 8002e22:	d0ce      	beq.n	8002dc2 <HAL_DMA_Start_IT+0x122>
 8002e24:	3318      	adds	r3, #24
 8002e26:	429c      	cmp	r4, r3
 8002e28:	d0cb      	beq.n	8002dc2 <HAL_DMA_Start_IT+0x122>
 8002e2a:	f503 7356 	add.w	r3, r3, #856	@ 0x358
 8002e2e:	429c      	cmp	r4, r3
 8002e30:	d0c7      	beq.n	8002dc2 <HAL_DMA_Start_IT+0x122>
 8002e32:	3318      	adds	r3, #24
 8002e34:	429c      	cmp	r4, r3
 8002e36:	d0c4      	beq.n	8002dc2 <HAL_DMA_Start_IT+0x122>
 8002e38:	3318      	adds	r3, #24
 8002e3a:	429c      	cmp	r4, r3
 8002e3c:	d0c1      	beq.n	8002dc2 <HAL_DMA_Start_IT+0x122>
 8002e3e:	e7c0      	b.n	8002dc2 <HAL_DMA_Start_IT+0x122>
 8002e40:	6823      	ldr	r3, [r4, #0]
 8002e42:	f043 0304 	orr.w	r3, r3, #4
 8002e46:	6023      	str	r3, [r4, #0]
 8002e48:	e7a3      	b.n	8002d92 <HAL_DMA_Start_IT+0xf2>
 8002e4a:	4b1f      	ldr	r3, [pc, #124]	@ (8002ec8 <HAL_DMA_Start_IT+0x228>)
 8002e4c:	429c      	cmp	r4, r3
 8002e4e:	d0cb      	beq.n	8002de8 <HAL_DMA_Start_IT+0x148>
 8002e50:	3318      	adds	r3, #24
 8002e52:	429c      	cmp	r4, r3
 8002e54:	d0c8      	beq.n	8002de8 <HAL_DMA_Start_IT+0x148>
 8002e56:	3318      	adds	r3, #24
 8002e58:	429c      	cmp	r4, r3
 8002e5a:	d0c5      	beq.n	8002de8 <HAL_DMA_Start_IT+0x148>
 8002e5c:	3318      	adds	r3, #24
 8002e5e:	429c      	cmp	r4, r3
 8002e60:	d0c2      	beq.n	8002de8 <HAL_DMA_Start_IT+0x148>
 8002e62:	3318      	adds	r3, #24
 8002e64:	429c      	cmp	r4, r3
 8002e66:	d0bf      	beq.n	8002de8 <HAL_DMA_Start_IT+0x148>
 8002e68:	3318      	adds	r3, #24
 8002e6a:	429c      	cmp	r4, r3
 8002e6c:	d0bc      	beq.n	8002de8 <HAL_DMA_Start_IT+0x148>
 8002e6e:	3318      	adds	r3, #24
 8002e70:	429c      	cmp	r4, r3
 8002e72:	d0b9      	beq.n	8002de8 <HAL_DMA_Start_IT+0x148>
 8002e74:	f503 7356 	add.w	r3, r3, #856	@ 0x358
 8002e78:	429c      	cmp	r4, r3
 8002e7a:	d0b5      	beq.n	8002de8 <HAL_DMA_Start_IT+0x148>
 8002e7c:	3318      	adds	r3, #24
 8002e7e:	429c      	cmp	r4, r3
 8002e80:	d0b2      	beq.n	8002de8 <HAL_DMA_Start_IT+0x148>
 8002e82:	3318      	adds	r3, #24
 8002e84:	429c      	cmp	r4, r3
 8002e86:	d0af      	beq.n	8002de8 <HAL_DMA_Start_IT+0x148>
 8002e88:	3318      	adds	r3, #24
 8002e8a:	429c      	cmp	r4, r3
 8002e8c:	d0ac      	beq.n	8002de8 <HAL_DMA_Start_IT+0x148>
 8002e8e:	3318      	adds	r3, #24
 8002e90:	429c      	cmp	r4, r3
 8002e92:	d0a9      	beq.n	8002de8 <HAL_DMA_Start_IT+0x148>
 8002e94:	3318      	adds	r3, #24
 8002e96:	429c      	cmp	r4, r3
 8002e98:	d0a6      	beq.n	8002de8 <HAL_DMA_Start_IT+0x148>
 8002e9a:	3318      	adds	r3, #24
 8002e9c:	429c      	cmp	r4, r3
 8002e9e:	d0a3      	beq.n	8002de8 <HAL_DMA_Start_IT+0x148>
 8002ea0:	3318      	adds	r3, #24
 8002ea2:	429c      	cmp	r4, r3
 8002ea4:	d0a0      	beq.n	8002de8 <HAL_DMA_Start_IT+0x148>
 8002ea6:	e774      	b.n	8002d92 <HAL_DMA_Start_IT+0xf2>
 8002ea8:	681a      	ldr	r2, [r3, #0]
 8002eaa:	f442 7280 	orr.w	r2, r2, #256	@ 0x100
 8002eae:	601a      	str	r2, [r3, #0]
 8002eb0:	e79e      	b.n	8002df0 <HAL_DMA_Start_IT+0x150>
 8002eb2:	f44f 6300 	mov.w	r3, #2048	@ 0x800
 8002eb6:	f880 4034 	strb.w	r4, [r0, #52]	@ 0x34
 8002eba:	6543      	str	r3, [r0, #84]	@ 0x54
 8002ebc:	2001      	movs	r0, #1
 8002ebe:	e785      	b.n	8002dcc <HAL_DMA_Start_IT+0x12c>
 8002ec0:	2002      	movs	r0, #2
 8002ec2:	e783      	b.n	8002dcc <HAL_DMA_Start_IT+0x12c>
 8002ec4:	40020010 	.word	0x40020010
 8002ec8:	40020028 	.word	0x40020028
 8002ecc:	58025408 	.word	0x58025408
 8002ed0:	5802541c 	.word	0x5802541c

08002ed4 <HAL_DMA_Abort>:
 8002ed4:	b5f8      	push	{r3, r4, r5, r6, r7, lr}
 8002ed6:	4605      	mov	r5, r0
 8002ed8:	f7fe fda2 	bl	8001a20 <HAL_GetTick>
 8002edc:	4607      	mov	r7, r0
 8002ede:	b145      	cbz	r5, 8002ef2 <HAL_DMA_Abort+0x1e>
 8002ee0:	f895 3035 	ldrb.w	r3, [r5, #53]	@ 0x35
 8002ee4:	2b02      	cmp	r3, #2
 8002ee6:	d006      	beq.n	8002ef6 <HAL_DMA_Abort+0x22>
 8002ee8:	2380      	movs	r3, #128	@ 0x80
 8002eea:	656b      	str	r3, [r5, #84]	@ 0x54
 8002eec:	2300      	movs	r3, #0
 8002eee:	f885 3034 	strb.w	r3, [r5, #52]	@ 0x34
 8002ef2:	2001      	movs	r0, #1
 8002ef4:	bdf8      	pop	{r3, r4, r5, r6, r7, pc}
 8002ef6:	682c      	ldr	r4, [r5, #0]
 8002ef8:	4ea9      	ldr	r6, [pc, #676]	@ (80031a0 <HAL_DMA_Abort+0x2cc>)
 8002efa:	42b4      	cmp	r4, r6
 8002efc:	d04a      	beq.n	8002f94 <HAL_DMA_Abort+0xc0>
 8002efe:	4ba9      	ldr	r3, [pc, #676]	@ (80031a4 <HAL_DMA_Abort+0x2d0>)
 8002f00:	429c      	cmp	r4, r3
 8002f02:	d047      	beq.n	8002f94 <HAL_DMA_Abort+0xc0>
 8002f04:	3318      	adds	r3, #24
 8002f06:	429c      	cmp	r4, r3
 8002f08:	d044      	beq.n	8002f94 <HAL_DMA_Abort+0xc0>
 8002f0a:	3318      	adds	r3, #24
 8002f0c:	429c      	cmp	r4, r3
 8002f0e:	d041      	beq.n	8002f94 <HAL_DMA_Abort+0xc0>
 8002f10:	3318      	adds	r3, #24
 8002f12:	429c      	cmp	r4, r3
 8002f14:	d03e      	beq.n	8002f94 <HAL_DMA_Abort+0xc0>
 8002f16:	3318      	adds	r3, #24
 8002f18:	429c      	cmp	r4, r3
 8002f1a:	d03b      	beq.n	8002f94 <HAL_DMA_Abort+0xc0>
 8002f1c:	3318      	adds	r3, #24
 8002f1e:	429c      	cmp	r4, r3
 8002f20:	d038      	beq.n	8002f94 <HAL_DMA_Abort+0xc0>
 8002f22:	3318      	adds	r3, #24
 8002f24:	429c      	cmp	r4, r3
 8002f26:	d035      	beq.n	8002f94 <HAL_DMA_Abort+0xc0>
 8002f28:	f503 7356 	add.w	r3, r3, #856	@ 0x358
 8002f2c:	429c      	cmp	r4, r3
 8002f2e:	d031      	beq.n	8002f94 <HAL_DMA_Abort+0xc0>
 8002f30:	3318      	adds	r3, #24
 8002f32:	429c      	cmp	r4, r3
 8002f34:	d02e      	beq.n	8002f94 <HAL_DMA_Abort+0xc0>
 8002f36:	3318      	adds	r3, #24
 8002f38:	429c      	cmp	r4, r3
 8002f3a:	d02b      	beq.n	8002f94 <HAL_DMA_Abort+0xc0>
 8002f3c:	3318      	adds	r3, #24
 8002f3e:	429c      	cmp	r4, r3
 8002f40:	d028      	beq.n	8002f94 <HAL_DMA_Abort+0xc0>
 8002f42:	3318      	adds	r3, #24
 8002f44:	429c      	cmp	r4, r3
 8002f46:	d025      	beq.n	8002f94 <HAL_DMA_Abort+0xc0>
 8002f48:	3318      	adds	r3, #24
 8002f4a:	429c      	cmp	r4, r3
 8002f4c:	d022      	beq.n	8002f94 <HAL_DMA_Abort+0xc0>
 8002f4e:	3318      	adds	r3, #24
 8002f50:	429c      	cmp	r4, r3
 8002f52:	d01f      	beq.n	8002f94 <HAL_DMA_Abort+0xc0>
 8002f54:	3318      	adds	r3, #24
 8002f56:	429c      	cmp	r4, r3
 8002f58:	d01c      	beq.n	8002f94 <HAL_DMA_Abort+0xc0>
 8002f5a:	6823      	ldr	r3, [r4, #0]
 8002f5c:	f023 030e 	bic.w	r3, r3, #14
 8002f60:	6023      	str	r3, [r4, #0]
 8002f62:	4b91      	ldr	r3, [pc, #580]	@ (80031a8 <HAL_DMA_Abort+0x2d4>)
 8002f64:	429c      	cmp	r4, r3
 8002f66:	d01f      	beq.n	8002fa8 <HAL_DMA_Abort+0xd4>
 8002f68:	3314      	adds	r3, #20
 8002f6a:	429c      	cmp	r4, r3
 8002f6c:	d01c      	beq.n	8002fa8 <HAL_DMA_Abort+0xd4>
 8002f6e:	3314      	adds	r3, #20
 8002f70:	429c      	cmp	r4, r3
 8002f72:	d019      	beq.n	8002fa8 <HAL_DMA_Abort+0xd4>
 8002f74:	3314      	adds	r3, #20
 8002f76:	429c      	cmp	r4, r3
 8002f78:	d016      	beq.n	8002fa8 <HAL_DMA_Abort+0xd4>
 8002f7a:	3314      	adds	r3, #20
 8002f7c:	429c      	cmp	r4, r3
 8002f7e:	d013      	beq.n	8002fa8 <HAL_DMA_Abort+0xd4>
 8002f80:	3314      	adds	r3, #20
 8002f82:	429c      	cmp	r4, r3
 8002f84:	d010      	beq.n	8002fa8 <HAL_DMA_Abort+0xd4>
 8002f86:	3314      	adds	r3, #20
 8002f88:	429c      	cmp	r4, r3
 8002f8a:	d00d      	beq.n	8002fa8 <HAL_DMA_Abort+0xd4>
 8002f8c:	3314      	adds	r3, #20
 8002f8e:	429c      	cmp	r4, r3
 8002f90:	d112      	bne.n	8002fb8 <HAL_DMA_Abort+0xe4>
 8002f92:	e009      	b.n	8002fa8 <HAL_DMA_Abort+0xd4>
 8002f94:	6823      	ldr	r3, [r4, #0]
 8002f96:	42b4      	cmp	r4, r6
 8002f98:	f023 031e 	bic.w	r3, r3, #30
 8002f9c:	6023      	str	r3, [r4, #0]
 8002f9e:	6963      	ldr	r3, [r4, #20]
 8002fa0:	f023 0380 	bic.w	r3, r3, #128	@ 0x80
 8002fa4:	6163      	str	r3, [r4, #20]
 8002fa6:	d176      	bne.n	8003096 <HAL_DMA_Abort+0x1c2>
 8002fa8:	6e2a      	ldr	r2, [r5, #96]	@ 0x60
 8002faa:	42b4      	cmp	r4, r6
 8002fac:	6813      	ldr	r3, [r2, #0]
 8002fae:	f423 7380 	bic.w	r3, r3, #256	@ 0x100
 8002fb2:	6013      	str	r3, [r2, #0]
 8002fb4:	f040 80ab 	bne.w	800310e <HAL_DMA_Abort+0x23a>
 8002fb8:	6823      	ldr	r3, [r4, #0]
 8002fba:	f023 0301 	bic.w	r3, r3, #1
 8002fbe:	6023      	str	r3, [r4, #0]
 8002fc0:	6823      	ldr	r3, [r4, #0]
 8002fc2:	07db      	lsls	r3, r3, #31
 8002fc4:	f100 80cd 	bmi.w	8003162 <HAL_DMA_Abort+0x28e>
 8002fc8:	682b      	ldr	r3, [r5, #0]
 8002fca:	6dea      	ldr	r2, [r5, #92]	@ 0x5c
 8002fcc:	42b3      	cmp	r3, r6
 8002fce:	6da8      	ldr	r0, [r5, #88]	@ 0x58
 8002fd0:	f002 021f 	and.w	r2, r2, #31
 8002fd4:	f000 80d1 	beq.w	800317a <HAL_DMA_Abort+0x2a6>
 8002fd8:	4972      	ldr	r1, [pc, #456]	@ (80031a4 <HAL_DMA_Abort+0x2d0>)
 8002fda:	428b      	cmp	r3, r1
 8002fdc:	f000 80cd 	beq.w	800317a <HAL_DMA_Abort+0x2a6>
 8002fe0:	3118      	adds	r1, #24
 8002fe2:	428b      	cmp	r3, r1
 8002fe4:	f000 80c9 	beq.w	800317a <HAL_DMA_Abort+0x2a6>
 8002fe8:	3118      	adds	r1, #24
 8002fea:	428b      	cmp	r3, r1
 8002fec:	f000 80c5 	beq.w	800317a <HAL_DMA_Abort+0x2a6>
 8002ff0:	3118      	adds	r1, #24
 8002ff2:	428b      	cmp	r3, r1
 8002ff4:	f000 80c1 	beq.w	800317a <HAL_DMA_Abort+0x2a6>
 8002ff8:	3118      	adds	r1, #24
 8002ffa:	428b      	cmp	r3, r1
 8002ffc:	f000 80bd 	beq.w	800317a <HAL_DMA_Abort+0x2a6>
 8003000:	3118      	adds	r1, #24
 8003002:	428b      	cmp	r3, r1
 8003004:	f000 80b9 	beq.w	800317a <HAL_DMA_Abort+0x2a6>
 8003008:	3118      	adds	r1, #24
 800300a:	428b      	cmp	r3, r1
 800300c:	f000 80b5 	beq.w	800317a <HAL_DMA_Abort+0x2a6>
 8003010:	f501 7156 	add.w	r1, r1, #856	@ 0x358
 8003014:	428b      	cmp	r3, r1
 8003016:	f000 80b0 	beq.w	800317a <HAL_DMA_Abort+0x2a6>
 800301a:	3118      	adds	r1, #24
 800301c:	428b      	cmp	r3, r1
 800301e:	f000 80ac 	beq.w	800317a <HAL_DMA_Abort+0x2a6>
 8003022:	3118      	adds	r1, #24
 8003024:	428b      	cmp	r3, r1
 8003026:	f000 80a8 	beq.w	800317a <HAL_DMA_Abort+0x2a6>
 800302a:	3118      	adds	r1, #24
 800302c:	428b      	cmp	r3, r1
 800302e:	f000 80a4 	beq.w	800317a <HAL_DMA_Abort+0x2a6>
 8003032:	3118      	adds	r1, #24
 8003034:	428b      	cmp	r3, r1
 8003036:	f000 80a0 	beq.w	800317a <HAL_DMA_Abort+0x2a6>
 800303a:	3118      	adds	r1, #24
 800303c:	428b      	cmp	r3, r1
 800303e:	f000 809c 	beq.w	800317a <HAL_DMA_Abort+0x2a6>
 8003042:	3118      	adds	r1, #24
 8003044:	428b      	cmp	r3, r1
 8003046:	f000 8098 	beq.w	800317a <HAL_DMA_Abort+0x2a6>
 800304a:	3118      	adds	r1, #24
 800304c:	428b      	cmp	r3, r1
 800304e:	f000 8094 	beq.w	800317a <HAL_DMA_Abort+0x2a6>
 8003052:	2101      	movs	r1, #1
 8003054:	fa01 f202 	lsl.w	r2, r1, r2
 8003058:	6042      	str	r2, [r0, #4]
 800305a:	4a53      	ldr	r2, [pc, #332]	@ (80031a8 <HAL_DMA_Abort+0x2d4>)
 800305c:	4293      	cmp	r3, r2
 800305e:	f000 8092 	beq.w	8003186 <HAL_DMA_Abort+0x2b2>
 8003062:	3214      	adds	r2, #20
 8003064:	4293      	cmp	r3, r2
 8003066:	f000 808e 	beq.w	8003186 <HAL_DMA_Abort+0x2b2>
 800306a:	3214      	adds	r2, #20
 800306c:	4293      	cmp	r3, r2
 800306e:	f000 808a 	beq.w	8003186 <HAL_DMA_Abort+0x2b2>
 8003072:	3214      	adds	r2, #20
 8003074:	4293      	cmp	r3, r2
 8003076:	f000 8086 	beq.w	8003186 <HAL_DMA_Abort+0x2b2>
 800307a:	3214      	adds	r2, #20
 800307c:	4293      	cmp	r3, r2
 800307e:	f000 8082 	beq.w	8003186 <HAL_DMA_Abort+0x2b2>
 8003082:	3214      	adds	r2, #20
 8003084:	4293      	cmp	r3, r2
 8003086:	d07e      	beq.n	8003186 <HAL_DMA_Abort+0x2b2>
 8003088:	3214      	adds	r2, #20
 800308a:	4293      	cmp	r3, r2
 800308c:	d07b      	beq.n	8003186 <HAL_DMA_Abort+0x2b2>
 800308e:	3214      	adds	r2, #20
 8003090:	4293      	cmp	r3, r2
 8003092:	d17e      	bne.n	8003192 <HAL_DMA_Abort+0x2be>
 8003094:	e077      	b.n	8003186 <HAL_DMA_Abort+0x2b2>
 8003096:	4b43      	ldr	r3, [pc, #268]	@ (80031a4 <HAL_DMA_Abort+0x2d0>)
 8003098:	429c      	cmp	r4, r3
 800309a:	d085      	beq.n	8002fa8 <HAL_DMA_Abort+0xd4>
 800309c:	3318      	adds	r3, #24
 800309e:	429c      	cmp	r4, r3
 80030a0:	d082      	beq.n	8002fa8 <HAL_DMA_Abort+0xd4>
 80030a2:	3318      	adds	r3, #24
 80030a4:	429c      	cmp	r4, r3
 80030a6:	f43f af7f 	beq.w	8002fa8 <HAL_DMA_Abort+0xd4>
 80030aa:	3318      	adds	r3, #24
 80030ac:	429c      	cmp	r4, r3
 80030ae:	f43f af7b 	beq.w	8002fa8 <HAL_DMA_Abort+0xd4>
 80030b2:	3318      	adds	r3, #24
 80030b4:	429c      	cmp	r4, r3
 80030b6:	f43f af77 	beq.w	8002fa8 <HAL_DMA_Abort+0xd4>
 80030ba:	3318      	adds	r3, #24
 80030bc:	429c      	cmp	r4, r3
 80030be:	f43f af73 	beq.w	8002fa8 <HAL_DMA_Abort+0xd4>
 80030c2:	3318      	adds	r3, #24
 80030c4:	429c      	cmp	r4, r3
 80030c6:	f43f af6f 	beq.w	8002fa8 <HAL_DMA_Abort+0xd4>
 80030ca:	f503 7356 	add.w	r3, r3, #856	@ 0x358
 80030ce:	429c      	cmp	r4, r3
 80030d0:	f43f af6a 	beq.w	8002fa8 <HAL_DMA_Abort+0xd4>
 80030d4:	3318      	adds	r3, #24
 80030d6:	429c      	cmp	r4, r3
 80030d8:	f43f af66 	beq.w	8002fa8 <HAL_DMA_Abort+0xd4>
 80030dc:	3318      	adds	r3, #24
 80030de:	429c      	cmp	r4, r3
 80030e0:	f43f af62 	beq.w	8002fa8 <HAL_DMA_Abort+0xd4>
 80030e4:	3318      	adds	r3, #24
 80030e6:	429c      	cmp	r4, r3
 80030e8:	f43f af5e 	beq.w	8002fa8 <HAL_DMA_Abort+0xd4>
 80030ec:	3318      	adds	r3, #24
 80030ee:	429c      	cmp	r4, r3
 80030f0:	f43f af5a 	beq.w	8002fa8 <HAL_DMA_Abort+0xd4>
 80030f4:	3318      	adds	r3, #24
 80030f6:	429c      	cmp	r4, r3
 80030f8:	f43f af56 	beq.w	8002fa8 <HAL_DMA_Abort+0xd4>
 80030fc:	3318      	adds	r3, #24
 80030fe:	429c      	cmp	r4, r3
 8003100:	f43f af52 	beq.w	8002fa8 <HAL_DMA_Abort+0xd4>
 8003104:	3318      	adds	r3, #24
 8003106:	429c      	cmp	r4, r3
 8003108:	f43f af4e 	beq.w	8002fa8 <HAL_DMA_Abort+0xd4>
 800310c:	e729      	b.n	8002f62 <HAL_DMA_Abort+0x8e>
 800310e:	4b25      	ldr	r3, [pc, #148]	@ (80031a4 <HAL_DMA_Abort+0x2d0>)
 8003110:	429c      	cmp	r4, r3
 8003112:	f43f af51 	beq.w	8002fb8 <HAL_DMA_Abort+0xe4>
 8003116:	3318      	adds	r3, #24
 8003118:	429c      	cmp	r4, r3
 800311a:	f43f af4d 	beq.w	8002fb8 <HAL_DMA_Abort+0xe4>
 800311e:	3318      	adds	r3, #24
 8003120:	429c      	cmp	r4, r3
 8003122:	f43f af49 	beq.w	8002fb8 <HAL_DMA_Abort+0xe4>
 8003126:	3318      	adds	r3, #24
 8003128:	429c      	cmp	r4, r3
 800312a:	f43f af45 	beq.w	8002fb8 <HAL_DMA_Abort+0xe4>
 800312e:	3318      	adds	r3, #24
 8003130:	429c      	cmp	r4, r3
 8003132:	f43f af41 	beq.w	8002fb8 <HAL_DMA_Abort+0xe4>
 8003136:	3318      	adds	r3, #24
 8003138:	429c      	cmp	r4, r3
 800313a:	f43f af3d 	beq.w	8002fb8 <HAL_DMA_Abort+0xe4>
 800313e:	3318      	adds	r3, #24
 8003140:	429c      	cmp	r4, r3
 8003142:	f43f af39 	beq.w	8002fb8 <HAL_DMA_Abort+0xe4>
 8003146:	f503 7356 	add.w	r3, r3, #856	@ 0x358
 800314a:	429c      	cmp	r4, r3
 800314c:	f43f af34 	beq.w	8002fb8 <HAL_DMA_Abort+0xe4>
 8003150:	3318      	adds	r3, #24
 8003152:	429c      	cmp	r4, r3
 8003154:	f43f af30 	beq.w	8002fb8 <HAL_DMA_Abort+0xe4>
 8003158:	3318      	adds	r3, #24
 800315a:	429c      	cmp	r4, r3
 800315c:	f43f af2c 	beq.w	8002fb8 <HAL_DMA_Abort+0xe4>
 8003160:	e72a      	b.n	8002fb8 <HAL_DMA_Abort+0xe4>
 8003162:	f7fe fc5d 	bl	8001a20 <HAL_GetTick>
 8003166:	1bc0      	subs	r0, r0, r7
 8003168:	2805      	cmp	r0, #5
 800316a:	f67f af29 	bls.w	8002fc0 <HAL_DMA_Abort+0xec>
 800316e:	2320      	movs	r3, #32
 8003170:	656b      	str	r3, [r5, #84]	@ 0x54
 8003172:	2303      	movs	r3, #3
 8003174:	f885 3035 	strb.w	r3, [r5, #53]	@ 0x35
 8003178:	e6b8      	b.n	8002eec <HAL_DMA_Abort+0x18>
 800317a:	213f      	movs	r1, #63	@ 0x3f
 800317c:	42b3      	cmp	r3, r6
 800317e:	fa01 f202 	lsl.w	r2, r1, r2
 8003182:	6082      	str	r2, [r0, #8]
 8003184:	d112      	bne.n	80031ac <HAL_DMA_Abort+0x2d8>
 8003186:	e9d5 3219 	ldrd	r3, r2, [r5, #100]	@ 0x64
 800318a:	605a      	str	r2, [r3, #4]
 800318c:	6eeb      	ldr	r3, [r5, #108]	@ 0x6c
 800318e:	2b00      	cmp	r3, #0
 8003190:	d13b      	bne.n	800320a <HAL_DMA_Abort+0x336>
 8003192:	2301      	movs	r3, #1
 8003194:	2000      	movs	r0, #0
 8003196:	f885 3035 	strb.w	r3, [r5, #53]	@ 0x35
 800319a:	f885 0034 	strb.w	r0, [r5, #52]	@ 0x34
 800319e:	e6a9      	b.n	8002ef4 <HAL_DMA_Abort+0x20>
 80031a0:	40020010 	.word	0x40020010
 80031a4:	40020028 	.word	0x40020028
 80031a8:	58025408 	.word	0x58025408
 80031ac:	4a1b      	ldr	r2, [pc, #108]	@ (800321c <HAL_DMA_Abort+0x348>)
 80031ae:	4293      	cmp	r3, r2
 80031b0:	d0e9      	beq.n	8003186 <HAL_DMA_Abort+0x2b2>
 80031b2:	3218      	adds	r2, #24
 80031b4:	4293      	cmp	r3, r2
 80031b6:	d0e6      	beq.n	8003186 <HAL_DMA_Abort+0x2b2>
 80031b8:	3218      	adds	r2, #24
 80031ba:	4293      	cmp	r3, r2
 80031bc:	d0e3      	beq.n	8003186 <HAL_DMA_Abort+0x2b2>
 80031be:	3218      	adds	r2, #24
 80031c0:	4293      	cmp	r3, r2
 80031c2:	d0e0      	beq.n	8003186 <HAL_DMA_Abort+0x2b2>
 80031c4:	3218      	adds	r2, #24
 80031c6:	4293      	cmp	r3, r2
 80031c8:	d0dd      	beq.n	8003186 <HAL_DMA_Abort+0x2b2>
 80031ca:	3218      	adds	r2, #24
 80031cc:	4293      	cmp	r3, r2
 80031ce:	d0da      	beq.n	8003186 <HAL_DMA_Abort+0x2b2>
 80031d0:	3218      	adds	r2, #24
 80031d2:	4293      	cmp	r3, r2
 80031d4:	d0d7      	beq.n	8003186 <HAL_DMA_Abort+0x2b2>
 80031d6:	f502 7256 	add.w	r2, r2, #856	@ 0x358
 80031da:	4293      	cmp	r3, r2
 80031dc:	d0d3      	beq.n	8003186 <HAL_DMA_Abort+0x2b2>
 80031de:	3218      	adds	r2, #24
 80031e0:	4293      	cmp	r3, r2
 80031e2:	d0d0      	beq.n	8003186 <HAL_DMA_Abort+0x2b2>
 80031e4:	3218      	adds	r2, #24
 80031e6:	4293      	cmp	r3, r2
 80031e8:	d0cd      	beq.n	8003186 <HAL_DMA_Abort+0x2b2>
 80031ea:	3218      	adds	r2, #24
 80031ec:	4293      	cmp	r3, r2
 80031ee:	d0ca      	beq.n	8003186 <HAL_DMA_Abort+0x2b2>
 80031f0:	3218      	adds	r2, #24
 80031f2:	4293      	cmp	r3, r2
 80031f4:	d0c7      	beq.n	8003186 <HAL_DMA_Abort+0x2b2>
 80031f6:	3218      	adds	r2, #24
 80031f8:	4293      	cmp	r3, r2
 80031fa:	d0c4      	beq.n	8003186 <HAL_DMA_Abort+0x2b2>
 80031fc:	3218      	adds	r2, #24
 80031fe:	4293      	cmp	r3, r2
 8003200:	d0c1      	beq.n	8003186 <HAL_DMA_Abort+0x2b2>
 8003202:	3218      	adds	r2, #24
 8003204:	4293      	cmp	r3, r2
 8003206:	d0be      	beq.n	8003186 <HAL_DMA_Abort+0x2b2>
 8003208:	e727      	b.n	800305a <HAL_DMA_Abort+0x186>
 800320a:	681a      	ldr	r2, [r3, #0]
 800320c:	f422 7280 	bic.w	r2, r2, #256	@ 0x100
 8003210:	601a      	str	r2, [r3, #0]
 8003212:	e9d5 321c 	ldrd	r3, r2, [r5, #112]	@ 0x70
 8003216:	605a      	str	r2, [r3, #4]
 8003218:	e7bb      	b.n	8003192 <HAL_DMA_Abort+0x2be>
 800321a:	bf00      	nop
 800321c:	40020028 	.word	0x40020028

08003220 <HAL_DMA_Abort_IT>:
 8003220:	b508      	push	{r3, lr}
 8003222:	b128      	cbz	r0, 8003230 <HAL_DMA_Abort_IT+0x10>
 8003224:	f890 3035 	ldrb.w	r3, [r0, #53]	@ 0x35
 8003228:	2b02      	cmp	r3, #2
 800322a:	d003      	beq.n	8003234 <HAL_DMA_Abort_IT+0x14>
 800322c:	2380      	movs	r3, #128	@ 0x80
 800322e:	6543      	str	r3, [r0, #84]	@ 0x54
 8003230:	2001      	movs	r0, #1
 8003232:	e05d      	b.n	80032f0 <HAL_DMA_Abort_IT+0xd0>
 8003234:	6803      	ldr	r3, [r0, #0]
 8003236:	4a3f      	ldr	r2, [pc, #252]	@ (8003334 <HAL_DMA_Abort_IT+0x114>)
 8003238:	4293      	cmp	r3, r2
 800323a:	d051      	beq.n	80032e0 <HAL_DMA_Abort_IT+0xc0>
 800323c:	3218      	adds	r2, #24
 800323e:	4293      	cmp	r3, r2
 8003240:	d04e      	beq.n	80032e0 <HAL_DMA_Abort_IT+0xc0>
 8003242:	3218      	adds	r2, #24
 8003244:	4293      	cmp	r3, r2
 8003246:	d04b      	beq.n	80032e0 <HAL_DMA_Abort_IT+0xc0>
 8003248:	3218      	adds	r2, #24
 800324a:	4293      	cmp	r3, r2
 800324c:	d048      	beq.n	80032e0 <HAL_DMA_Abort_IT+0xc0>
 800324e:	3218      	adds	r2, #24
 8003250:	4293      	cmp	r3, r2
 8003252:	d045      	beq.n	80032e0 <HAL_DMA_Abort_IT+0xc0>
 8003254:	3218      	adds	r2, #24
 8003256:	4293      	cmp	r3, r2
 8003258:	d042      	beq.n	80032e0 <HAL_DMA_Abort_IT+0xc0>
 800325a:	3218      	adds	r2, #24
 800325c:	4293      	cmp	r3, r2
 800325e:	d03f      	beq.n	80032e0 <HAL_DMA_Abort_IT+0xc0>
 8003260:	3218      	adds	r2, #24
 8003262:	4293      	cmp	r3, r2
 8003264:	d03c      	beq.n	80032e0 <HAL_DMA_Abort_IT+0xc0>
 8003266:	f502 7256 	add.w	r2, r2, #856	@ 0x358
 800326a:	4293      	cmp	r3, r2
 800326c:	d038      	beq.n	80032e0 <HAL_DMA_Abort_IT+0xc0>
 800326e:	3218      	adds	r2, #24
 8003270:	4293      	cmp	r3, r2
 8003272:	d035      	beq.n	80032e0 <HAL_DMA_Abort_IT+0xc0>
 8003274:	3218      	adds	r2, #24
 8003276:	4293      	cmp	r3, r2
 8003278:	d032      	beq.n	80032e0 <HAL_DMA_Abort_IT+0xc0>
 800327a:	3218      	adds	r2, #24
 800327c:	4293      	cmp	r3, r2
 800327e:	d02f      	beq.n	80032e0 <HAL_DMA_Abort_IT+0xc0>
 8003280:	3218      	adds	r2, #24
 8003282:	4293      	cmp	r3, r2
 8003284:	d02c      	beq.n	80032e0 <HAL_DMA_Abort_IT+0xc0>
 8003286:	3218      	adds	r2, #24
 8003288:	4293      	cmp	r3, r2
 800328a:	d029      	beq.n	80032e0 <HAL_DMA_Abort_IT+0xc0>
 800328c:	3218      	adds	r2, #24
 800328e:	4293      	cmp	r3, r2
 8003290:	d026      	beq.n	80032e0 <HAL_DMA_Abort_IT+0xc0>
 8003292:	3218      	adds	r2, #24
 8003294:	4293      	cmp	r3, r2
 8003296:	d023      	beq.n	80032e0 <HAL_DMA_Abort_IT+0xc0>
 8003298:	681a      	ldr	r2, [r3, #0]
 800329a:	f022 020e 	bic.w	r2, r2, #14
 800329e:	601a      	str	r2, [r3, #0]
 80032a0:	681a      	ldr	r2, [r3, #0]
 80032a2:	f022 0201 	bic.w	r2, r2, #1
 80032a6:	601a      	str	r2, [r3, #0]
 80032a8:	4a23      	ldr	r2, [pc, #140]	@ (8003338 <HAL_DMA_Abort_IT+0x118>)
 80032aa:	4293      	cmp	r3, r2
 80032ac:	d121      	bne.n	80032f2 <HAL_DMA_Abort_IT+0xd2>
 80032ae:	6e02      	ldr	r2, [r0, #96]	@ 0x60
 80032b0:	6813      	ldr	r3, [r2, #0]
 80032b2:	f423 7380 	bic.w	r3, r3, #256	@ 0x100
 80032b6:	6013      	str	r3, [r2, #0]
 80032b8:	e9d0 1316 	ldrd	r1, r3, [r0, #88]	@ 0x58
 80032bc:	f003 021f 	and.w	r2, r3, #31
 80032c0:	2301      	movs	r3, #1
 80032c2:	4093      	lsls	r3, r2
 80032c4:	604b      	str	r3, [r1, #4]
 80032c6:	e9d0 3219 	ldrd	r3, r2, [r0, #100]	@ 0x64
 80032ca:	605a      	str	r2, [r3, #4]
 80032cc:	6ec3      	ldr	r3, [r0, #108]	@ 0x6c
 80032ce:	b32b      	cbz	r3, 800331c <HAL_DMA_Abort_IT+0xfc>
 80032d0:	681a      	ldr	r2, [r3, #0]
 80032d2:	f422 7280 	bic.w	r2, r2, #256	@ 0x100
 80032d6:	601a      	str	r2, [r3, #0]
 80032d8:	e9d0 321c 	ldrd	r3, r2, [r0, #112]	@ 0x70
 80032dc:	605a      	str	r2, [r3, #4]
 80032de:	e01d      	b.n	800331c <HAL_DMA_Abort_IT+0xfc>
 80032e0:	2204      	movs	r2, #4
 80032e2:	f880 2035 	strb.w	r2, [r0, #53]	@ 0x35
 80032e6:	681a      	ldr	r2, [r3, #0]
 80032e8:	f022 0201 	bic.w	r2, r2, #1
 80032ec:	601a      	str	r2, [r3, #0]
 80032ee:	2000      	movs	r0, #0
 80032f0:	bd08      	pop	{r3, pc}
 80032f2:	4a12      	ldr	r2, [pc, #72]	@ (800333c <HAL_DMA_Abort_IT+0x11c>)
 80032f4:	4293      	cmp	r3, r2
 80032f6:	d0da      	beq.n	80032ae <HAL_DMA_Abort_IT+0x8e>
 80032f8:	3214      	adds	r2, #20
 80032fa:	4293      	cmp	r3, r2
 80032fc:	d0d7      	beq.n	80032ae <HAL_DMA_Abort_IT+0x8e>
 80032fe:	3214      	adds	r2, #20
 8003300:	4293      	cmp	r3, r2
 8003302:	d0d4      	beq.n	80032ae <HAL_DMA_Abort_IT+0x8e>
 8003304:	3214      	adds	r2, #20
 8003306:	4293      	cmp	r3, r2
 8003308:	d0d1      	beq.n	80032ae <HAL_DMA_Abort_IT+0x8e>
 800330a:	3214      	adds	r2, #20
 800330c:	4293      	cmp	r3, r2
 800330e:	d0ce      	beq.n	80032ae <HAL_DMA_Abort_IT+0x8e>
 8003310:	3214      	adds	r2, #20
 8003312:	4293      	cmp	r3, r2
 8003314:	d0cb      	beq.n	80032ae <HAL_DMA_Abort_IT+0x8e>
 8003316:	3214      	adds	r2, #20
 8003318:	4293      	cmp	r3, r2
 800331a:	d0c8      	beq.n	80032ae <HAL_DMA_Abort_IT+0x8e>
 800331c:	2301      	movs	r3, #1
 800331e:	f880 3035 	strb.w	r3, [r0, #53]	@ 0x35
 8003322:	2300      	movs	r3, #0
 8003324:	f880 3034 	strb.w	r3, [r0, #52]	@ 0x34
 8003328:	6d03      	ldr	r3, [r0, #80]	@ 0x50
 800332a:	2b00      	cmp	r3, #0
 800332c:	d0df      	beq.n	80032ee <HAL_DMA_Abort_IT+0xce>
 800332e:	4798      	blx	r3
 8003330:	e7dd      	b.n	80032ee <HAL_DMA_Abort_IT+0xce>
 8003332:	bf00      	nop
 8003334:	40020010 	.word	0x40020010
 8003338:	58025408 	.word	0x58025408
 800333c:	5802541c 	.word	0x5802541c

08003340 <HAL_DMA_IRQHandler>:
 8003340:	2300      	movs	r3, #0
 8003342:	e92d 41f3 	stmdb	sp!, {r0, r1, r4, r5, r6, r7, r8, lr}
 8003346:	9301      	str	r3, [sp, #4]
 8003348:	4604      	mov	r4, r0
 800334a:	4b29      	ldr	r3, [pc, #164]	@ (80033f0 <HAL_DMA_IRQHandler+0xb0>)
 800334c:	4e29      	ldr	r6, [pc, #164]	@ (80033f4 <HAL_DMA_IRQHandler+0xb4>)
 800334e:	681f      	ldr	r7, [r3, #0]
 8003350:	6803      	ldr	r3, [r0, #0]
 8003352:	6d85      	ldr	r5, [r0, #88]	@ 0x58
 8003354:	42b3      	cmp	r3, r6
 8003356:	f8d5 8000 	ldr.w	r8, [r5]
 800335a:	f8d5 c000 	ldr.w	ip, [r5]
 800335e:	d04f      	beq.n	8003400 <HAL_DMA_IRQHandler+0xc0>
 8003360:	4a25      	ldr	r2, [pc, #148]	@ (80033f8 <HAL_DMA_IRQHandler+0xb8>)
 8003362:	4293      	cmp	r3, r2
 8003364:	d04c      	beq.n	8003400 <HAL_DMA_IRQHandler+0xc0>
 8003366:	3218      	adds	r2, #24
 8003368:	4293      	cmp	r3, r2
 800336a:	d049      	beq.n	8003400 <HAL_DMA_IRQHandler+0xc0>
 800336c:	3218      	adds	r2, #24
 800336e:	4293      	cmp	r3, r2
 8003370:	d046      	beq.n	8003400 <HAL_DMA_IRQHandler+0xc0>
 8003372:	3218      	adds	r2, #24
 8003374:	4293      	cmp	r3, r2
 8003376:	d043      	beq.n	8003400 <HAL_DMA_IRQHandler+0xc0>
 8003378:	3218      	adds	r2, #24
 800337a:	4293      	cmp	r3, r2
 800337c:	d040      	beq.n	8003400 <HAL_DMA_IRQHandler+0xc0>
 800337e:	3218      	adds	r2, #24
 8003380:	4293      	cmp	r3, r2
 8003382:	d03d      	beq.n	8003400 <HAL_DMA_IRQHandler+0xc0>
 8003384:	3218      	adds	r2, #24
 8003386:	4293      	cmp	r3, r2
 8003388:	d03a      	beq.n	8003400 <HAL_DMA_IRQHandler+0xc0>
 800338a:	f502 7256 	add.w	r2, r2, #856	@ 0x358
 800338e:	4293      	cmp	r3, r2
 8003390:	d036      	beq.n	8003400 <HAL_DMA_IRQHandler+0xc0>
 8003392:	3218      	adds	r2, #24
 8003394:	4293      	cmp	r3, r2
 8003396:	d033      	beq.n	8003400 <HAL_DMA_IRQHandler+0xc0>
 8003398:	3218      	adds	r2, #24
 800339a:	4293      	cmp	r3, r2
 800339c:	d030      	beq.n	8003400 <HAL_DMA_IRQHandler+0xc0>
 800339e:	3218      	adds	r2, #24
 80033a0:	4293      	cmp	r3, r2
 80033a2:	d02d      	beq.n	8003400 <HAL_DMA_IRQHandler+0xc0>
 80033a4:	3218      	adds	r2, #24
 80033a6:	4293      	cmp	r3, r2
 80033a8:	d02a      	beq.n	8003400 <HAL_DMA_IRQHandler+0xc0>
 80033aa:	3218      	adds	r2, #24
 80033ac:	4293      	cmp	r3, r2
 80033ae:	d027      	beq.n	8003400 <HAL_DMA_IRQHandler+0xc0>
 80033b0:	3218      	adds	r2, #24
 80033b2:	4293      	cmp	r3, r2
 80033b4:	d024      	beq.n	8003400 <HAL_DMA_IRQHandler+0xc0>
 80033b6:	3218      	adds	r2, #24
 80033b8:	4293      	cmp	r3, r2
 80033ba:	d021      	beq.n	8003400 <HAL_DMA_IRQHandler+0xc0>
 80033bc:	4a0f      	ldr	r2, [pc, #60]	@ (80033fc <HAL_DMA_IRQHandler+0xbc>)
 80033be:	4293      	cmp	r3, r2
 80033c0:	f040 8209 	bne.w	80037d6 <HAL_DMA_IRQHandler+0x496>
 80033c4:	6de1      	ldr	r1, [r4, #92]	@ 0x5c
 80033c6:	2004      	movs	r0, #4
 80033c8:	681a      	ldr	r2, [r3, #0]
 80033ca:	f001 011f 	and.w	r1, r1, #31
 80033ce:	4088      	lsls	r0, r1
 80033d0:	ea10 0f0c 	tst.w	r0, ip
 80033d4:	f000 8226 	beq.w	8003824 <HAL_DMA_IRQHandler+0x4e4>
 80033d8:	0756      	lsls	r6, r2, #29
 80033da:	f140 8223 	bpl.w	8003824 <HAL_DMA_IRQHandler+0x4e4>
 80033de:	0411      	lsls	r1, r2, #16
 80033e0:	6068      	str	r0, [r5, #4]
 80033e2:	f140 8217 	bpl.w	8003814 <HAL_DMA_IRQHandler+0x4d4>
 80033e6:	03d3      	lsls	r3, r2, #15
 80033e8:	f100 821a 	bmi.w	8003820 <HAL_DMA_IRQHandler+0x4e0>
 80033ec:	6ca3      	ldr	r3, [r4, #72]	@ 0x48
 80033ee:	e17e      	b.n	80036ee <HAL_DMA_IRQHandler+0x3ae>
 80033f0:	24000004 	.word	0x24000004
 80033f4:	40020010 	.word	0x40020010
 80033f8:	40020028 	.word	0x40020028
 80033fc:	58025408 	.word	0x58025408
 8003400:	6de2      	ldr	r2, [r4, #92]	@ 0x5c
 8003402:	2008      	movs	r0, #8
 8003404:	f002 021f 	and.w	r2, r2, #31
 8003408:	4090      	lsls	r0, r2
 800340a:	ea10 0f08 	tst.w	r0, r8
 800340e:	d03d      	beq.n	800348c <HAL_DMA_IRQHandler+0x14c>
 8003410:	42b3      	cmp	r3, r6
 8003412:	d02e      	beq.n	8003472 <HAL_DMA_IRQHandler+0x132>
 8003414:	4984      	ldr	r1, [pc, #528]	@ (8003628 <HAL_DMA_IRQHandler+0x2e8>)
 8003416:	428b      	cmp	r3, r1
 8003418:	d02b      	beq.n	8003472 <HAL_DMA_IRQHandler+0x132>
 800341a:	3118      	adds	r1, #24
 800341c:	428b      	cmp	r3, r1
 800341e:	d028      	beq.n	8003472 <HAL_DMA_IRQHandler+0x132>
 8003420:	3118      	adds	r1, #24
 8003422:	428b      	cmp	r3, r1
 8003424:	d025      	beq.n	8003472 <HAL_DMA_IRQHandler+0x132>
 8003426:	3118      	adds	r1, #24
 8003428:	428b      	cmp	r3, r1
 800342a:	d022      	beq.n	8003472 <HAL_DMA_IRQHandler+0x132>
 800342c:	3118      	adds	r1, #24
 800342e:	428b      	cmp	r3, r1
 8003430:	d01f      	beq.n	8003472 <HAL_DMA_IRQHandler+0x132>
 8003432:	3118      	adds	r1, #24
 8003434:	428b      	cmp	r3, r1
 8003436:	d01c      	beq.n	8003472 <HAL_DMA_IRQHandler+0x132>
 8003438:	3118      	adds	r1, #24
 800343a:	428b      	cmp	r3, r1
 800343c:	d019      	beq.n	8003472 <HAL_DMA_IRQHandler+0x132>
 800343e:	f501 7156 	add.w	r1, r1, #856	@ 0x358
 8003442:	428b      	cmp	r3, r1
 8003444:	d015      	beq.n	8003472 <HAL_DMA_IRQHandler+0x132>
 8003446:	3118      	adds	r1, #24
 8003448:	428b      	cmp	r3, r1
 800344a:	d012      	beq.n	8003472 <HAL_DMA_IRQHandler+0x132>
 800344c:	3118      	adds	r1, #24
 800344e:	428b      	cmp	r3, r1
 8003450:	d00f      	beq.n	8003472 <HAL_DMA_IRQHandler+0x132>
 8003452:	3118      	adds	r1, #24
 8003454:	428b      	cmp	r3, r1
 8003456:	d00c      	beq.n	8003472 <HAL_DMA_IRQHandler+0x132>
 8003458:	3118      	adds	r1, #24
 800345a:	428b      	cmp	r3, r1
 800345c:	d009      	beq.n	8003472 <HAL_DMA_IRQHandler+0x132>
 800345e:	3118      	adds	r1, #24
 8003460:	428b      	cmp	r3, r1
 8003462:	d006      	beq.n	8003472 <HAL_DMA_IRQHandler+0x132>
 8003464:	3118      	adds	r1, #24
 8003466:	428b      	cmp	r3, r1
 8003468:	d003      	beq.n	8003472 <HAL_DMA_IRQHandler+0x132>
 800346a:	3118      	adds	r1, #24
 800346c:	428b      	cmp	r3, r1
 800346e:	f040 80c1 	bne.w	80035f4 <HAL_DMA_IRQHandler+0x2b4>
 8003472:	6819      	ldr	r1, [r3, #0]
 8003474:	f3c1 0180 	ubfx	r1, r1, #2, #1
 8003478:	b141      	cbz	r1, 800348c <HAL_DMA_IRQHandler+0x14c>
 800347a:	6819      	ldr	r1, [r3, #0]
 800347c:	f021 0104 	bic.w	r1, r1, #4
 8003480:	6019      	str	r1, [r3, #0]
 8003482:	60a8      	str	r0, [r5, #8]
 8003484:	6d61      	ldr	r1, [r4, #84]	@ 0x54
 8003486:	f041 0101 	orr.w	r1, r1, #1
 800348a:	6561      	str	r1, [r4, #84]	@ 0x54
 800348c:	fa28 f102 	lsr.w	r1, r8, r2
 8003490:	07c8      	lsls	r0, r1, #31
 8003492:	d534      	bpl.n	80034fe <HAL_DMA_IRQHandler+0x1be>
 8003494:	42b3      	cmp	r3, r6
 8003496:	d02e      	beq.n	80034f6 <HAL_DMA_IRQHandler+0x1b6>
 8003498:	4963      	ldr	r1, [pc, #396]	@ (8003628 <HAL_DMA_IRQHandler+0x2e8>)
 800349a:	428b      	cmp	r3, r1
 800349c:	d02b      	beq.n	80034f6 <HAL_DMA_IRQHandler+0x1b6>
 800349e:	3118      	adds	r1, #24
 80034a0:	428b      	cmp	r3, r1
 80034a2:	d028      	beq.n	80034f6 <HAL_DMA_IRQHandler+0x1b6>
 80034a4:	3118      	adds	r1, #24
 80034a6:	428b      	cmp	r3, r1
 80034a8:	d025      	beq.n	80034f6 <HAL_DMA_IRQHandler+0x1b6>
 80034aa:	3118      	adds	r1, #24
 80034ac:	428b      	cmp	r3, r1
 80034ae:	d022      	beq.n	80034f6 <HAL_DMA_IRQHandler+0x1b6>
 80034b0:	3118      	adds	r1, #24
 80034b2:	428b      	cmp	r3, r1
 80034b4:	d01f      	beq.n	80034f6 <HAL_DMA_IRQHandler+0x1b6>
 80034b6:	3118      	adds	r1, #24
 80034b8:	428b      	cmp	r3, r1
 80034ba:	d01c      	beq.n	80034f6 <HAL_DMA_IRQHandler+0x1b6>
 80034bc:	3118      	adds	r1, #24
 80034be:	428b      	cmp	r3, r1
 80034c0:	d019      	beq.n	80034f6 <HAL_DMA_IRQHandler+0x1b6>
 80034c2:	f501 7156 	add.w	r1, r1, #856	@ 0x358
 80034c6:	428b      	cmp	r3, r1
 80034c8:	d015      	beq.n	80034f6 <HAL_DMA_IRQHandler+0x1b6>
 80034ca:	3118      	adds	r1, #24
 80034cc:	428b      	cmp	r3, r1
 80034ce:	d012      	beq.n	80034f6 <HAL_DMA_IRQHandler+0x1b6>
 80034d0:	3118      	adds	r1, #24
 80034d2:	428b      	cmp	r3, r1
 80034d4:	d00f      	beq.n	80034f6 <HAL_DMA_IRQHandler+0x1b6>
 80034d6:	3118      	adds	r1, #24
 80034d8:	428b      	cmp	r3, r1
 80034da:	d00c      	beq.n	80034f6 <HAL_DMA_IRQHandler+0x1b6>
 80034dc:	3118      	adds	r1, #24
 80034de:	428b      	cmp	r3, r1
 80034e0:	d009      	beq.n	80034f6 <HAL_DMA_IRQHandler+0x1b6>
 80034e2:	3118      	adds	r1, #24
 80034e4:	428b      	cmp	r3, r1
 80034e6:	d006      	beq.n	80034f6 <HAL_DMA_IRQHandler+0x1b6>
 80034e8:	3118      	adds	r1, #24
 80034ea:	428b      	cmp	r3, r1
 80034ec:	d003      	beq.n	80034f6 <HAL_DMA_IRQHandler+0x1b6>
 80034ee:	3118      	adds	r1, #24
 80034f0:	428b      	cmp	r3, r1
 80034f2:	f040 8083 	bne.w	80035fc <HAL_DMA_IRQHandler+0x2bc>
 80034f6:	6959      	ldr	r1, [r3, #20]
 80034f8:	0609      	lsls	r1, r1, #24
 80034fa:	f100 8081 	bmi.w	8003600 <HAL_DMA_IRQHandler+0x2c0>
 80034fe:	2104      	movs	r1, #4
 8003500:	4091      	lsls	r1, r2
 8003502:	ea11 0f08 	tst.w	r1, r8
 8003506:	d032      	beq.n	800356e <HAL_DMA_IRQHandler+0x22e>
 8003508:	42b3      	cmp	r3, r6
 800350a:	d02d      	beq.n	8003568 <HAL_DMA_IRQHandler+0x228>
 800350c:	4846      	ldr	r0, [pc, #280]	@ (8003628 <HAL_DMA_IRQHandler+0x2e8>)
 800350e:	4283      	cmp	r3, r0
 8003510:	d02a      	beq.n	8003568 <HAL_DMA_IRQHandler+0x228>
 8003512:	3018      	adds	r0, #24
 8003514:	4283      	cmp	r3, r0
 8003516:	d027      	beq.n	8003568 <HAL_DMA_IRQHandler+0x228>
 8003518:	3018      	adds	r0, #24
 800351a:	4283      	cmp	r3, r0
 800351c:	d024      	beq.n	8003568 <HAL_DMA_IRQHandler+0x228>
 800351e:	3018      	adds	r0, #24
 8003520:	4283      	cmp	r3, r0
 8003522:	d021      	beq.n	8003568 <HAL_DMA_IRQHandler+0x228>
 8003524:	3018      	adds	r0, #24
 8003526:	4283      	cmp	r3, r0
 8003528:	d01e      	beq.n	8003568 <HAL_DMA_IRQHandler+0x228>
 800352a:	3018      	adds	r0, #24
 800352c:	4283      	cmp	r3, r0
 800352e:	d01b      	beq.n	8003568 <HAL_DMA_IRQHandler+0x228>
 8003530:	3018      	adds	r0, #24
 8003532:	4283      	cmp	r3, r0
 8003534:	d018      	beq.n	8003568 <HAL_DMA_IRQHandler+0x228>
 8003536:	f500 7056 	add.w	r0, r0, #856	@ 0x358
 800353a:	4283      	cmp	r3, r0
 800353c:	d014      	beq.n	8003568 <HAL_DMA_IRQHandler+0x228>
 800353e:	3018      	adds	r0, #24
 8003540:	4283      	cmp	r3, r0
 8003542:	d011      	beq.n	8003568 <HAL_DMA_IRQHandler+0x228>
 8003544:	3018      	adds	r0, #24
 8003546:	4283      	cmp	r3, r0
 8003548:	d00e      	beq.n	8003568 <HAL_DMA_IRQHandler+0x228>
 800354a:	3018      	adds	r0, #24
 800354c:	4283      	cmp	r3, r0
 800354e:	d00b      	beq.n	8003568 <HAL_DMA_IRQHandler+0x228>
 8003550:	3018      	adds	r0, #24
 8003552:	4283      	cmp	r3, r0
 8003554:	d008      	beq.n	8003568 <HAL_DMA_IRQHandler+0x228>
 8003556:	3018      	adds	r0, #24
 8003558:	4283      	cmp	r3, r0
 800355a:	d005      	beq.n	8003568 <HAL_DMA_IRQHandler+0x228>
 800355c:	3018      	adds	r0, #24
 800355e:	4283      	cmp	r3, r0
 8003560:	d002      	beq.n	8003568 <HAL_DMA_IRQHandler+0x228>
 8003562:	3018      	adds	r0, #24
 8003564:	4283      	cmp	r3, r0
 8003566:	d153      	bne.n	8003610 <HAL_DMA_IRQHandler+0x2d0>
 8003568:	6818      	ldr	r0, [r3, #0]
 800356a:	0780      	lsls	r0, r0, #30
 800356c:	d452      	bmi.n	8003614 <HAL_DMA_IRQHandler+0x2d4>
 800356e:	2110      	movs	r1, #16
 8003570:	4091      	lsls	r1, r2
 8003572:	ea11 0f08 	tst.w	r1, r8
 8003576:	d05d      	beq.n	8003634 <HAL_DMA_IRQHandler+0x2f4>
 8003578:	42b3      	cmp	r3, r6
 800357a:	d02d      	beq.n	80035d8 <HAL_DMA_IRQHandler+0x298>
 800357c:	4a2a      	ldr	r2, [pc, #168]	@ (8003628 <HAL_DMA_IRQHandler+0x2e8>)
 800357e:	4293      	cmp	r3, r2
 8003580:	d02a      	beq.n	80035d8 <HAL_DMA_IRQHandler+0x298>
 8003582:	3218      	adds	r2, #24
 8003584:	4293      	cmp	r3, r2
 8003586:	d027      	beq.n	80035d8 <HAL_DMA_IRQHandler+0x298>
 8003588:	3218      	adds	r2, #24
 800358a:	4293      	cmp	r3, r2
 800358c:	d024      	beq.n	80035d8 <HAL_DMA_IRQHandler+0x298>
 800358e:	3218      	adds	r2, #24
 8003590:	4293      	cmp	r3, r2
 8003592:	d021      	beq.n	80035d8 <HAL_DMA_IRQHandler+0x298>
 8003594:	3218      	adds	r2, #24
 8003596:	4293      	cmp	r3, r2
 8003598:	d01e      	beq.n	80035d8 <HAL_DMA_IRQHandler+0x298>
 800359a:	3218      	adds	r2, #24
 800359c:	4293      	cmp	r3, r2
 800359e:	d01b      	beq.n	80035d8 <HAL_DMA_IRQHandler+0x298>
 80035a0:	3218      	adds	r2, #24
 80035a2:	4293      	cmp	r3, r2
 80035a4:	d018      	beq.n	80035d8 <HAL_DMA_IRQHandler+0x298>
 80035a6:	f502 7256 	add.w	r2, r2, #856	@ 0x358
 80035aa:	4293      	cmp	r3, r2
 80035ac:	d014      	beq.n	80035d8 <HAL_DMA_IRQHandler+0x298>
 80035ae:	3218      	adds	r2, #24
 80035b0:	4293      	cmp	r3, r2
 80035b2:	d011      	beq.n	80035d8 <HAL_DMA_IRQHandler+0x298>
 80035b4:	3218      	adds	r2, #24
 80035b6:	4293      	cmp	r3, r2
 80035b8:	d00e      	beq.n	80035d8 <HAL_DMA_IRQHandler+0x298>
 80035ba:	3218      	adds	r2, #24
 80035bc:	4293      	cmp	r3, r2
 80035be:	d00b      	beq.n	80035d8 <HAL_DMA_IRQHandler+0x298>
 80035c0:	3218      	adds	r2, #24
 80035c2:	4293      	cmp	r3, r2
 80035c4:	d008      	beq.n	80035d8 <HAL_DMA_IRQHandler+0x298>
 80035c6:	3218      	adds	r2, #24
 80035c8:	4293      	cmp	r3, r2
 80035ca:	d005      	beq.n	80035d8 <HAL_DMA_IRQHandler+0x298>
 80035cc:	3218      	adds	r2, #24
 80035ce:	4293      	cmp	r3, r2
 80035d0:	d002      	beq.n	80035d8 <HAL_DMA_IRQHandler+0x298>
 80035d2:	3218      	adds	r2, #24
 80035d4:	4293      	cmp	r3, r2
 80035d6:	d123      	bne.n	8003620 <HAL_DMA_IRQHandler+0x2e0>
 80035d8:	681a      	ldr	r2, [r3, #0]
 80035da:	f3c2 02c0 	ubfx	r2, r2, #3, #1
 80035de:	b34a      	cbz	r2, 8003634 <HAL_DMA_IRQHandler+0x2f4>
 80035e0:	60a9      	str	r1, [r5, #8]
 80035e2:	681a      	ldr	r2, [r3, #0]
 80035e4:	0350      	lsls	r0, r2, #13
 80035e6:	f140 808a 	bpl.w	80036fe <HAL_DMA_IRQHandler+0x3be>
 80035ea:	681b      	ldr	r3, [r3, #0]
 80035ec:	0319      	lsls	r1, r3, #12
 80035ee:	d41d      	bmi.n	800362c <HAL_DMA_IRQHandler+0x2ec>
 80035f0:	6c23      	ldr	r3, [r4, #64]	@ 0x40
 80035f2:	e01c      	b.n	800362e <HAL_DMA_IRQHandler+0x2ee>
 80035f4:	6819      	ldr	r1, [r3, #0]
 80035f6:	f3c1 01c0 	ubfx	r1, r1, #3, #1
 80035fa:	e73d      	b.n	8003478 <HAL_DMA_IRQHandler+0x138>
 80035fc:	6819      	ldr	r1, [r3, #0]
 80035fe:	e77e      	b.n	80034fe <HAL_DMA_IRQHandler+0x1be>
 8003600:	2101      	movs	r1, #1
 8003602:	4091      	lsls	r1, r2
 8003604:	60a9      	str	r1, [r5, #8]
 8003606:	6d61      	ldr	r1, [r4, #84]	@ 0x54
 8003608:	f041 0102 	orr.w	r1, r1, #2
 800360c:	6561      	str	r1, [r4, #84]	@ 0x54
 800360e:	e776      	b.n	80034fe <HAL_DMA_IRQHandler+0x1be>
 8003610:	6819      	ldr	r1, [r3, #0]
 8003612:	e7ac      	b.n	800356e <HAL_DMA_IRQHandler+0x22e>
 8003614:	60a9      	str	r1, [r5, #8]
 8003616:	6d61      	ldr	r1, [r4, #84]	@ 0x54
 8003618:	f041 0104 	orr.w	r1, r1, #4
 800361c:	6561      	str	r1, [r4, #84]	@ 0x54
 800361e:	e7a6      	b.n	800356e <HAL_DMA_IRQHandler+0x22e>
 8003620:	681a      	ldr	r2, [r3, #0]
 8003622:	f3c2 0280 	ubfx	r2, r2, #2, #1
 8003626:	e7da      	b.n	80035de <HAL_DMA_IRQHandler+0x29e>
 8003628:	40020028 	.word	0x40020028
 800362c:	6ca3      	ldr	r3, [r4, #72]	@ 0x48
 800362e:	b10b      	cbz	r3, 8003634 <HAL_DMA_IRQHandler+0x2f4>
 8003630:	4620      	mov	r0, r4
 8003632:	4798      	blx	r3
 8003634:	6de1      	ldr	r1, [r4, #92]	@ 0x5c
 8003636:	2020      	movs	r0, #32
 8003638:	f001 011f 	and.w	r1, r1, #31
 800363c:	4088      	lsls	r0, r1
 800363e:	ea10 0f08 	tst.w	r0, r8
 8003642:	d072      	beq.n	800372a <HAL_DMA_IRQHandler+0x3ea>
 8003644:	6823      	ldr	r3, [r4, #0]
 8003646:	42b3      	cmp	r3, r6
 8003648:	d02d      	beq.n	80036a6 <HAL_DMA_IRQHandler+0x366>
 800364a:	4a8d      	ldr	r2, [pc, #564]	@ (8003880 <HAL_DMA_IRQHandler+0x540>)
 800364c:	4293      	cmp	r3, r2
 800364e:	d02a      	beq.n	80036a6 <HAL_DMA_IRQHandler+0x366>
 8003650:	3218      	adds	r2, #24
 8003652:	4293      	cmp	r3, r2
 8003654:	d027      	beq.n	80036a6 <HAL_DMA_IRQHandler+0x366>
 8003656:	3218      	adds	r2, #24
 8003658:	4293      	cmp	r3, r2
 800365a:	d024      	beq.n	80036a6 <HAL_DMA_IRQHandler+0x366>
 800365c:	3218      	adds	r2, #24
 800365e:	4293      	cmp	r3, r2
 8003660:	d021      	beq.n	80036a6 <HAL_DMA_IRQHandler+0x366>
 8003662:	3218      	adds	r2, #24
 8003664:	4293      	cmp	r3, r2
 8003666:	d01e      	beq.n	80036a6 <HAL_DMA_IRQHandler+0x366>
 8003668:	3218      	adds	r2, #24
 800366a:	4293      	cmp	r3, r2
 800366c:	d01b      	beq.n	80036a6 <HAL_DMA_IRQHandler+0x366>
 800366e:	3218      	adds	r2, #24
 8003670:	4293      	cmp	r3, r2
 8003672:	d018      	beq.n	80036a6 <HAL_DMA_IRQHandler+0x366>
 8003674:	f502 7256 	add.w	r2, r2, #856	@ 0x358
 8003678:	4293      	cmp	r3, r2
 800367a:	d014      	beq.n	80036a6 <HAL_DMA_IRQHandler+0x366>
 800367c:	3218      	adds	r2, #24
 800367e:	4293      	cmp	r3, r2
 8003680:	d011      	beq.n	80036a6 <HAL_DMA_IRQHandler+0x366>
 8003682:	3218      	adds	r2, #24
 8003684:	4293      	cmp	r3, r2
 8003686:	d00e      	beq.n	80036a6 <HAL_DMA_IRQHandler+0x366>
 8003688:	3218      	adds	r2, #24
 800368a:	4293      	cmp	r3, r2
 800368c:	d00b      	beq.n	80036a6 <HAL_DMA_IRQHandler+0x366>
 800368e:	3218      	adds	r2, #24
 8003690:	4293      	cmp	r3, r2
 8003692:	d008      	beq.n	80036a6 <HAL_DMA_IRQHandler+0x366>
 8003694:	3218      	adds	r2, #24
 8003696:	4293      	cmp	r3, r2
 8003698:	d005      	beq.n	80036a6 <HAL_DMA_IRQHandler+0x366>
 800369a:	3218      	adds	r2, #24
 800369c:	4293      	cmp	r3, r2
 800369e:	d002      	beq.n	80036a6 <HAL_DMA_IRQHandler+0x366>
 80036a0:	3218      	adds	r2, #24
 80036a2:	4293      	cmp	r3, r2
 80036a4:	d134      	bne.n	8003710 <HAL_DMA_IRQHandler+0x3d0>
 80036a6:	681a      	ldr	r2, [r3, #0]
 80036a8:	f3c2 1200 	ubfx	r2, r2, #4, #1
 80036ac:	2a00      	cmp	r2, #0
 80036ae:	d03c      	beq.n	800372a <HAL_DMA_IRQHandler+0x3ea>
 80036b0:	60a8      	str	r0, [r5, #8]
 80036b2:	f894 2035 	ldrb.w	r2, [r4, #53]	@ 0x35
 80036b6:	2a04      	cmp	r2, #4
 80036b8:	681a      	ldr	r2, [r3, #0]
 80036ba:	d12d      	bne.n	8003718 <HAL_DMA_IRQHandler+0x3d8>
 80036bc:	f022 0216 	bic.w	r2, r2, #22
 80036c0:	601a      	str	r2, [r3, #0]
 80036c2:	695a      	ldr	r2, [r3, #20]
 80036c4:	f022 0280 	bic.w	r2, r2, #128	@ 0x80
 80036c8:	615a      	str	r2, [r3, #20]
 80036ca:	6c22      	ldr	r2, [r4, #64]	@ 0x40
 80036cc:	b90a      	cbnz	r2, 80036d2 <HAL_DMA_IRQHandler+0x392>
 80036ce:	6ca2      	ldr	r2, [r4, #72]	@ 0x48
 80036d0:	b11a      	cbz	r2, 80036da <HAL_DMA_IRQHandler+0x39a>
 80036d2:	681a      	ldr	r2, [r3, #0]
 80036d4:	f022 0208 	bic.w	r2, r2, #8
 80036d8:	601a      	str	r2, [r3, #0]
 80036da:	233f      	movs	r3, #63	@ 0x3f
 80036dc:	408b      	lsls	r3, r1
 80036de:	60ab      	str	r3, [r5, #8]
 80036e0:	2301      	movs	r3, #1
 80036e2:	f884 3035 	strb.w	r3, [r4, #53]	@ 0x35
 80036e6:	2300      	movs	r3, #0
 80036e8:	f884 3034 	strb.w	r3, [r4, #52]	@ 0x34
 80036ec:	6d23      	ldr	r3, [r4, #80]	@ 0x50
 80036ee:	2b00      	cmp	r3, #0
 80036f0:	f000 808d 	beq.w	800380e <HAL_DMA_IRQHandler+0x4ce>
 80036f4:	4620      	mov	r0, r4
 80036f6:	b002      	add	sp, #8
 80036f8:	e8bd 41f0 	ldmia.w	sp!, {r4, r5, r6, r7, r8, lr}
 80036fc:	4718      	bx	r3
 80036fe:	681a      	ldr	r2, [r3, #0]
 8003700:	05d2      	lsls	r2, r2, #23
 8003702:	f53f af75 	bmi.w	80035f0 <HAL_DMA_IRQHandler+0x2b0>
 8003706:	681a      	ldr	r2, [r3, #0]
 8003708:	f022 0208 	bic.w	r2, r2, #8
 800370c:	601a      	str	r2, [r3, #0]
 800370e:	e76f      	b.n	80035f0 <HAL_DMA_IRQHandler+0x2b0>
 8003710:	681a      	ldr	r2, [r3, #0]
 8003712:	f3c2 0240 	ubfx	r2, r2, #1, #1
 8003716:	e7c9      	b.n	80036ac <HAL_DMA_IRQHandler+0x36c>
 8003718:	0355      	lsls	r5, r2, #13
 800371a:	d54d      	bpl.n	80037b8 <HAL_DMA_IRQHandler+0x478>
 800371c:	681b      	ldr	r3, [r3, #0]
 800371e:	0318      	lsls	r0, r3, #12
 8003720:	d457      	bmi.n	80037d2 <HAL_DMA_IRQHandler+0x492>
 8003722:	6c63      	ldr	r3, [r4, #68]	@ 0x44
 8003724:	b10b      	cbz	r3, 800372a <HAL_DMA_IRQHandler+0x3ea>
 8003726:	4620      	mov	r0, r4
 8003728:	4798      	blx	r3
 800372a:	6d63      	ldr	r3, [r4, #84]	@ 0x54
 800372c:	2b00      	cmp	r3, #0
 800372e:	d06e      	beq.n	800380e <HAL_DMA_IRQHandler+0x4ce>
 8003730:	6d63      	ldr	r3, [r4, #84]	@ 0x54
 8003732:	07d9      	lsls	r1, r3, #31
 8003734:	d53e      	bpl.n	80037b4 <HAL_DMA_IRQHandler+0x474>
 8003736:	2304      	movs	r3, #4
 8003738:	f884 3035 	strb.w	r3, [r4, #53]	@ 0x35
 800373c:	6823      	ldr	r3, [r4, #0]
 800373e:	42b3      	cmp	r3, r6
 8003740:	d01e      	beq.n	8003780 <HAL_DMA_IRQHandler+0x440>
 8003742:	4a4f      	ldr	r2, [pc, #316]	@ (8003880 <HAL_DMA_IRQHandler+0x540>)
 8003744:	4293      	cmp	r3, r2
 8003746:	d01b      	beq.n	8003780 <HAL_DMA_IRQHandler+0x440>
 8003748:	3218      	adds	r2, #24
 800374a:	4293      	cmp	r3, r2
 800374c:	d018      	beq.n	8003780 <HAL_DMA_IRQHandler+0x440>
 800374e:	3218      	adds	r2, #24
 8003750:	4293      	cmp	r3, r2
 8003752:	d015      	beq.n	8003780 <HAL_DMA_IRQHandler+0x440>
 8003754:	3218      	adds	r2, #24
 8003756:	4293      	cmp	r3, r2
 8003758:	d012      	beq.n	8003780 <HAL_DMA_IRQHandler+0x440>
 800375a:	3218      	adds	r2, #24
 800375c:	4293      	cmp	r3, r2
 800375e:	d00f      	beq.n	8003780 <HAL_DMA_IRQHandler+0x440>
 8003760:	3218      	adds	r2, #24
 8003762:	4293      	cmp	r3, r2
 8003764:	d00c      	beq.n	8003780 <HAL_DMA_IRQHandler+0x440>
 8003766:	3218      	adds	r2, #24
 8003768:	4293      	cmp	r3, r2
 800376a:	d009      	beq.n	8003780 <HAL_DMA_IRQHandler+0x440>
 800376c:	f502 7256 	add.w	r2, r2, #856	@ 0x358
 8003770:	4293      	cmp	r3, r2
 8003772:	d005      	beq.n	8003780 <HAL_DMA_IRQHandler+0x440>
 8003774:	3218      	adds	r2, #24
 8003776:	4293      	cmp	r3, r2
 8003778:	d002      	beq.n	8003780 <HAL_DMA_IRQHandler+0x440>
 800377a:	3218      	adds	r2, #24
 800377c:	4293      	cmp	r3, r2
 800377e:	d0ff      	beq.n	8003780 <HAL_DMA_IRQHandler+0x440>
 8003780:	f44f 5116 	mov.w	r1, #9600	@ 0x2580
 8003784:	681a      	ldr	r2, [r3, #0]
 8003786:	fbb7 f1f1 	udiv	r1, r7, r1
 800378a:	f022 0201 	bic.w	r2, r2, #1
 800378e:	601a      	str	r2, [r3, #0]
 8003790:	9a01      	ldr	r2, [sp, #4]
 8003792:	3201      	adds	r2, #1
 8003794:	428a      	cmp	r2, r1
 8003796:	9201      	str	r2, [sp, #4]
 8003798:	d802      	bhi.n	80037a0 <HAL_DMA_IRQHandler+0x460>
 800379a:	681a      	ldr	r2, [r3, #0]
 800379c:	07d2      	lsls	r2, r2, #31
 800379e:	d4f7      	bmi.n	8003790 <HAL_DMA_IRQHandler+0x450>
 80037a0:	681b      	ldr	r3, [r3, #0]
 80037a2:	07df      	lsls	r7, r3, #31
 80037a4:	bf4c      	ite	mi
 80037a6:	2303      	movmi	r3, #3
 80037a8:	2301      	movpl	r3, #1
 80037aa:	f884 3035 	strb.w	r3, [r4, #53]	@ 0x35
 80037ae:	2300      	movs	r3, #0
 80037b0:	f884 3034 	strb.w	r3, [r4, #52]	@ 0x34
 80037b4:	6ce3      	ldr	r3, [r4, #76]	@ 0x4c
 80037b6:	e79a      	b.n	80036ee <HAL_DMA_IRQHandler+0x3ae>
 80037b8:	681a      	ldr	r2, [r3, #0]
 80037ba:	f412 7280 	ands.w	r2, r2, #256	@ 0x100
 80037be:	d108      	bne.n	80037d2 <HAL_DMA_IRQHandler+0x492>
 80037c0:	6819      	ldr	r1, [r3, #0]
 80037c2:	f021 0110 	bic.w	r1, r1, #16
 80037c6:	6019      	str	r1, [r3, #0]
 80037c8:	2301      	movs	r3, #1
 80037ca:	f884 2034 	strb.w	r2, [r4, #52]	@ 0x34
 80037ce:	f884 3035 	strb.w	r3, [r4, #53]	@ 0x35
 80037d2:	6be3      	ldr	r3, [r4, #60]	@ 0x3c
 80037d4:	e7a6      	b.n	8003724 <HAL_DMA_IRQHandler+0x3e4>
 80037d6:	4a2b      	ldr	r2, [pc, #172]	@ (8003884 <HAL_DMA_IRQHandler+0x544>)
 80037d8:	4293      	cmp	r3, r2
 80037da:	f43f adf3 	beq.w	80033c4 <HAL_DMA_IRQHandler+0x84>
 80037de:	3214      	adds	r2, #20
 80037e0:	4293      	cmp	r3, r2
 80037e2:	f43f adef 	beq.w	80033c4 <HAL_DMA_IRQHandler+0x84>
 80037e6:	3214      	adds	r2, #20
 80037e8:	4293      	cmp	r3, r2
 80037ea:	f43f adeb 	beq.w	80033c4 <HAL_DMA_IRQHandler+0x84>
 80037ee:	3214      	adds	r2, #20
 80037f0:	4293      	cmp	r3, r2
 80037f2:	f43f ade7 	beq.w	80033c4 <HAL_DMA_IRQHandler+0x84>
 80037f6:	3214      	adds	r2, #20
 80037f8:	4293      	cmp	r3, r2
 80037fa:	f43f ade3 	beq.w	80033c4 <HAL_DMA_IRQHandler+0x84>
 80037fe:	3214      	adds	r2, #20
 8003800:	4293      	cmp	r3, r2
 8003802:	f43f addf 	beq.w	80033c4 <HAL_DMA_IRQHandler+0x84>
 8003806:	3214      	adds	r2, #20
 8003808:	4293      	cmp	r3, r2
 800380a:	f43f addb 	beq.w	80033c4 <HAL_DMA_IRQHandler+0x84>
 800380e:	b002      	add	sp, #8
 8003810:	e8bd 81f0 	ldmia.w	sp!, {r4, r5, r6, r7, r8, pc}
 8003814:	0697      	lsls	r7, r2, #26
 8003816:	d403      	bmi.n	8003820 <HAL_DMA_IRQHandler+0x4e0>
 8003818:	681a      	ldr	r2, [r3, #0]
 800381a:	f022 0204 	bic.w	r2, r2, #4
 800381e:	601a      	str	r2, [r3, #0]
 8003820:	6c23      	ldr	r3, [r4, #64]	@ 0x40
 8003822:	e764      	b.n	80036ee <HAL_DMA_IRQHandler+0x3ae>
 8003824:	2002      	movs	r0, #2
 8003826:	4088      	lsls	r0, r1
 8003828:	ea10 0f0c 	tst.w	r0, ip
 800382c:	d016      	beq.n	800385c <HAL_DMA_IRQHandler+0x51c>
 800382e:	0796      	lsls	r6, r2, #30
 8003830:	d514      	bpl.n	800385c <HAL_DMA_IRQHandler+0x51c>
 8003832:	6068      	str	r0, [r5, #4]
 8003834:	0410      	lsls	r0, r2, #16
 8003836:	d503      	bpl.n	8003840 <HAL_DMA_IRQHandler+0x500>
 8003838:	03d1      	lsls	r1, r2, #15
 800383a:	d40d      	bmi.n	8003858 <HAL_DMA_IRQHandler+0x518>
 800383c:	6c63      	ldr	r3, [r4, #68]	@ 0x44
 800383e:	e756      	b.n	80036ee <HAL_DMA_IRQHandler+0x3ae>
 8003840:	f012 0220 	ands.w	r2, r2, #32
 8003844:	d108      	bne.n	8003858 <HAL_DMA_IRQHandler+0x518>
 8003846:	6819      	ldr	r1, [r3, #0]
 8003848:	f021 010a 	bic.w	r1, r1, #10
 800384c:	6019      	str	r1, [r3, #0]
 800384e:	2301      	movs	r3, #1
 8003850:	f884 2034 	strb.w	r2, [r4, #52]	@ 0x34
 8003854:	f884 3035 	strb.w	r3, [r4, #53]	@ 0x35
 8003858:	6be3      	ldr	r3, [r4, #60]	@ 0x3c
 800385a:	e748      	b.n	80036ee <HAL_DMA_IRQHandler+0x3ae>
 800385c:	2008      	movs	r0, #8
 800385e:	4088      	lsls	r0, r1
 8003860:	ea10 0f0c 	tst.w	r0, ip
 8003864:	d0d3      	beq.n	800380e <HAL_DMA_IRQHandler+0x4ce>
 8003866:	0712      	lsls	r2, r2, #28
 8003868:	d5d1      	bpl.n	800380e <HAL_DMA_IRQHandler+0x4ce>
 800386a:	681a      	ldr	r2, [r3, #0]
 800386c:	f022 020e 	bic.w	r2, r2, #14
 8003870:	601a      	str	r2, [r3, #0]
 8003872:	2301      	movs	r3, #1
 8003874:	fa03 f101 	lsl.w	r1, r3, r1
 8003878:	6069      	str	r1, [r5, #4]
 800387a:	6563      	str	r3, [r4, #84]	@ 0x54
 800387c:	e795      	b.n	80037aa <HAL_DMA_IRQHandler+0x46a>
 800387e:	bf00      	nop
 8003880:	40020028 	.word	0x40020028
 8003884:	5802541c 	.word	0x5802541c

08003888 <HAL_DMA_GetState>:
 8003888:	f890 0035 	ldrb.w	r0, [r0, #53]	@ 0x35
 800388c:	4770      	bx	lr

0800388e <HAL_DMA_GetError>:
 800388e:	6d40      	ldr	r0, [r0, #84]	@ 0x54
 8003890:	4770      	bx	lr
	...

08003894 <HAL_GPIO_Init>:
 8003894:	e92d 4ff7 	stmdb	sp!, {r0, r1, r2, r4, r5, r6, r7, r8, r9, sl, fp, lr}
 8003898:	2300      	movs	r3, #0
 800389a:	f8df 91c4 	ldr.w	r9, [pc, #452]	@ 8003a60 <HAL_GPIO_Init+0x1cc>
 800389e:	f04f 44b0 	mov.w	r4, #1476395008	@ 0x58000000
 80038a2:	680a      	ldr	r2, [r1, #0]
 80038a4:	fa32 f503 	lsrs.w	r5, r2, r3
 80038a8:	d102      	bne.n	80038b0 <HAL_GPIO_Init+0x1c>
 80038aa:	b003      	add	sp, #12
 80038ac:	e8bd 8ff0 	ldmia.w	sp!, {r4, r5, r6, r7, r8, r9, sl, fp, pc}
 80038b0:	2501      	movs	r5, #1
 80038b2:	fa05 f803 	lsl.w	r8, r5, r3
 80038b6:	ea18 0202 	ands.w	r2, r8, r2
 80038ba:	f000 80bb 	beq.w	8003a34 <HAL_GPIO_Init+0x1a0>
 80038be:	684e      	ldr	r6, [r1, #4]
 80038c0:	2703      	movs	r7, #3
 80038c2:	ea4f 0e43 	mov.w	lr, r3, lsl #1
 80038c6:	f006 0503 	and.w	r5, r6, #3
 80038ca:	fa07 fc0e 	lsl.w	ip, r7, lr
 80038ce:	1e6f      	subs	r7, r5, #1
 80038d0:	ea6f 0c0c 	mvn.w	ip, ip
 80038d4:	2f01      	cmp	r7, #1
 80038d6:	d834      	bhi.n	8003942 <HAL_GPIO_Init+0xae>
 80038d8:	6887      	ldr	r7, [r0, #8]
 80038da:	ea07 0a0c 	and.w	sl, r7, ip
 80038de:	68cf      	ldr	r7, [r1, #12]
 80038e0:	fa07 f70e 	lsl.w	r7, r7, lr
 80038e4:	ea47 070a 	orr.w	r7, r7, sl
 80038e8:	6087      	str	r7, [r0, #8]
 80038ea:	6847      	ldr	r7, [r0, #4]
 80038ec:	ea27 0808 	bic.w	r8, r7, r8
 80038f0:	f3c6 1700 	ubfx	r7, r6, #4, #1
 80038f4:	409f      	lsls	r7, r3
 80038f6:	ea47 0708 	orr.w	r7, r7, r8
 80038fa:	6047      	str	r7, [r0, #4]
 80038fc:	68c7      	ldr	r7, [r0, #12]
 80038fe:	2d02      	cmp	r5, #2
 8003900:	ea07 080c 	and.w	r8, r7, ip
 8003904:	688f      	ldr	r7, [r1, #8]
 8003906:	fa07 f70e 	lsl.w	r7, r7, lr
 800390a:	ea47 0708 	orr.w	r7, r7, r8
 800390e:	60c7      	str	r7, [r0, #12]
 8003910:	d119      	bne.n	8003946 <HAL_GPIO_Init+0xb2>
 8003912:	ea4f 08d3 	mov.w	r8, r3, lsr #3
 8003916:	f003 0a07 	and.w	sl, r3, #7
 800391a:	f04f 0b0f 	mov.w	fp, #15
 800391e:	eb00 0888 	add.w	r8, r0, r8, lsl #2
 8003922:	ea4f 0a8a 	mov.w	sl, sl, lsl #2
 8003926:	f8d8 7020 	ldr.w	r7, [r8, #32]
 800392a:	fa0b fb0a 	lsl.w	fp, fp, sl
 800392e:	ea27 0b0b 	bic.w	fp, r7, fp
 8003932:	690f      	ldr	r7, [r1, #16]
 8003934:	fa07 f70a 	lsl.w	r7, r7, sl
 8003938:	ea47 070b 	orr.w	r7, r7, fp
 800393c:	f8c8 7020 	str.w	r7, [r8, #32]
 8003940:	e001      	b.n	8003946 <HAL_GPIO_Init+0xb2>
 8003942:	2d03      	cmp	r5, #3
 8003944:	d1da      	bne.n	80038fc <HAL_GPIO_Init+0x68>
 8003946:	6807      	ldr	r7, [r0, #0]
 8003948:	fa05 f50e 	lsl.w	r5, r5, lr
 800394c:	f416 3f40 	tst.w	r6, #196608	@ 0x30000
 8003950:	ea07 070c 	and.w	r7, r7, ip
 8003954:	ea45 0507 	orr.w	r5, r5, r7
 8003958:	6005      	str	r5, [r0, #0]
 800395a:	d06b      	beq.n	8003a34 <HAL_GPIO_Init+0x1a0>
 800395c:	f8d9 50f4 	ldr.w	r5, [r9, #244]	@ 0xf4
 8003960:	f023 0703 	bic.w	r7, r3, #3
 8003964:	f003 0c03 	and.w	ip, r3, #3
 8003968:	f04f 0e0f 	mov.w	lr, #15
 800396c:	f045 0502 	orr.w	r5, r5, #2
 8003970:	f107 47b0 	add.w	r7, r7, #1476395008	@ 0x58000000
 8003974:	ea4f 0c8c 	mov.w	ip, ip, lsl #2
 8003978:	f8c9 50f4 	str.w	r5, [r9, #244]	@ 0xf4
 800397c:	f507 6780 	add.w	r7, r7, #1024	@ 0x400
 8003980:	f8d9 50f4 	ldr.w	r5, [r9, #244]	@ 0xf4
 8003984:	fa0e fe0c 	lsl.w	lr, lr, ip
 8003988:	f005 0502 	and.w	r5, r5, #2
 800398c:	9501      	str	r5, [sp, #4]
 800398e:	9d01      	ldr	r5, [sp, #4]
 8003990:	68bd      	ldr	r5, [r7, #8]
 8003992:	ea25 0e0e 	bic.w	lr, r5, lr
 8003996:	4d31      	ldr	r5, [pc, #196]	@ (8003a5c <HAL_GPIO_Init+0x1c8>)
 8003998:	42a8      	cmp	r0, r5
 800399a:	d04d      	beq.n	8003a38 <HAL_GPIO_Init+0x1a4>
 800399c:	f505 6580 	add.w	r5, r5, #1024	@ 0x400
 80039a0:	42a8      	cmp	r0, r5
 80039a2:	d04b      	beq.n	8003a3c <HAL_GPIO_Init+0x1a8>
 80039a4:	f505 6580 	add.w	r5, r5, #1024	@ 0x400
 80039a8:	42a8      	cmp	r0, r5
 80039aa:	d049      	beq.n	8003a40 <HAL_GPIO_Init+0x1ac>
 80039ac:	f505 6580 	add.w	r5, r5, #1024	@ 0x400
 80039b0:	42a8      	cmp	r0, r5
 80039b2:	d047      	beq.n	8003a44 <HAL_GPIO_Init+0x1b0>
 80039b4:	f505 6580 	add.w	r5, r5, #1024	@ 0x400
 80039b8:	42a8      	cmp	r0, r5
 80039ba:	d045      	beq.n	8003a48 <HAL_GPIO_Init+0x1b4>
 80039bc:	f505 6580 	add.w	r5, r5, #1024	@ 0x400
 80039c0:	42a8      	cmp	r0, r5
 80039c2:	d043      	beq.n	8003a4c <HAL_GPIO_Init+0x1b8>
 80039c4:	f505 6580 	add.w	r5, r5, #1024	@ 0x400
 80039c8:	42a8      	cmp	r0, r5
 80039ca:	d041      	beq.n	8003a50 <HAL_GPIO_Init+0x1bc>
 80039cc:	f505 6580 	add.w	r5, r5, #1024	@ 0x400
 80039d0:	42a8      	cmp	r0, r5
 80039d2:	d03f      	beq.n	8003a54 <HAL_GPIO_Init+0x1c0>
 80039d4:	f505 6580 	add.w	r5, r5, #1024	@ 0x400
 80039d8:	42a8      	cmp	r0, r5
 80039da:	d03d      	beq.n	8003a58 <HAL_GPIO_Init+0x1c4>
 80039dc:	f505 6580 	add.w	r5, r5, #1024	@ 0x400
 80039e0:	42a8      	cmp	r0, r5
 80039e2:	bf14      	ite	ne
 80039e4:	250a      	movne	r5, #10
 80039e6:	2509      	moveq	r5, #9
 80039e8:	fa05 f50c 	lsl.w	r5, r5, ip
 80039ec:	f416 1f80 	tst.w	r6, #1048576	@ 0x100000
 80039f0:	ea45 050e 	orr.w	r5, r5, lr
 80039f4:	60bd      	str	r5, [r7, #8]
 80039f6:	ea6f 0702 	mvn.w	r7, r2
 80039fa:	6825      	ldr	r5, [r4, #0]
 80039fc:	bf0c      	ite	eq
 80039fe:	403d      	andeq	r5, r7
 8003a00:	4315      	orrne	r5, r2
 8003a02:	f416 1f00 	tst.w	r6, #2097152	@ 0x200000
 8003a06:	6025      	str	r5, [r4, #0]
 8003a08:	6865      	ldr	r5, [r4, #4]
 8003a0a:	bf0c      	ite	eq
 8003a0c:	403d      	andeq	r5, r7
 8003a0e:	4315      	orrne	r5, r2
 8003a10:	f416 3f00 	tst.w	r6, #131072	@ 0x20000
 8003a14:	6065      	str	r5, [r4, #4]
 8003a16:	f8d4 5084 	ldr.w	r5, [r4, #132]	@ 0x84
 8003a1a:	bf0c      	ite	eq
 8003a1c:	403d      	andeq	r5, r7
 8003a1e:	4315      	orrne	r5, r2
 8003a20:	03f6      	lsls	r6, r6, #15
 8003a22:	f8c4 5084 	str.w	r5, [r4, #132]	@ 0x84
 8003a26:	f8d4 5080 	ldr.w	r5, [r4, #128]	@ 0x80
 8003a2a:	bf54      	ite	pl
 8003a2c:	403d      	andpl	r5, r7
 8003a2e:	4315      	orrmi	r5, r2
 8003a30:	f8c4 5080 	str.w	r5, [r4, #128]	@ 0x80
 8003a34:	3301      	adds	r3, #1
 8003a36:	e734      	b.n	80038a2 <HAL_GPIO_Init+0xe>
 8003a38:	2500      	movs	r5, #0
 8003a3a:	e7d5      	b.n	80039e8 <HAL_GPIO_Init+0x154>
 8003a3c:	2501      	movs	r5, #1
 8003a3e:	e7d3      	b.n	80039e8 <HAL_GPIO_Init+0x154>
 8003a40:	2502      	movs	r5, #2
 8003a42:	e7d1      	b.n	80039e8 <HAL_GPIO_Init+0x154>
 8003a44:	2503      	movs	r5, #3
 8003a46:	e7cf      	b.n	80039e8 <HAL_GPIO_Init+0x154>
 8003a48:	2504      	movs	r5, #4
 8003a4a:	e7cd      	b.n	80039e8 <HAL_GPIO_Init+0x154>
 8003a4c:	2505      	movs	r5, #5
 8003a4e:	e7cb      	b.n	80039e8 <HAL_GPIO_Init+0x154>
 8003a50:	2506      	movs	r5, #6
 8003a52:	e7c9      	b.n	80039e8 <HAL_GPIO_Init+0x154>
 8003a54:	2507      	movs	r5, #7
 8003a56:	e7c7      	b.n	80039e8 <HAL_GPIO_Init+0x154>
 8003a58:	2508      	movs	r5, #8
 8003a5a:	e7c5      	b.n	80039e8 <HAL_GPIO_Init+0x154>
 8003a5c:	58020000 	.word	0x58020000
 8003a60:	58024400 	.word	0x58024400

08003a64 <HAL_GPIO_WritePin>:
 8003a64:	b10a      	cbz	r2, 8003a6a <HAL_GPIO_WritePin+0x6>
 8003a66:	6181      	str	r1, [r0, #24]
 8003a68:	4770      	bx	lr
 8003a6a:	0409      	lsls	r1, r1, #16
 8003a6c:	e7fb      	b.n	8003a66 <HAL_GPIO_WritePin+0x2>

08003a6e <HAL_GPIO_TogglePin>:
 8003a6e:	6943      	ldr	r3, [r0, #20]
 8003a70:	ea01 0203 	and.w	r2, r1, r3
 8003a74:	ea21 0103 	bic.w	r1, r1, r3
 8003a78:	ea41 4102 	orr.w	r1, r1, r2, lsl #16
 8003a7c:	6181      	str	r1, [r0, #24]
 8003a7e:	4770      	bx	lr

08003a80 <I2C_Flush_TXDR>:
 8003a80:	6803      	ldr	r3, [r0, #0]
 8003a82:	699a      	ldr	r2, [r3, #24]
 8003a84:	0791      	lsls	r1, r2, #30
 8003a86:	d501      	bpl.n	8003a8c <I2C_Flush_TXDR+0xc>
 8003a88:	2200      	movs	r2, #0
 8003a8a:	629a      	str	r2, [r3, #40]	@ 0x28
 8003a8c:	699a      	ldr	r2, [r3, #24]
 8003a8e:	07d2      	lsls	r2, r2, #31
 8003a90:	d403      	bmi.n	8003a9a <I2C_Flush_TXDR+0x1a>
 8003a92:	699a      	ldr	r2, [r3, #24]
 8003a94:	f042 0201 	orr.w	r2, r2, #1
 8003a98:	619a      	str	r2, [r3, #24]
 8003a9a:	4770      	bx	lr

08003a9c <I2C_TransferConfig>:
 8003a9c:	b530      	push	{r4, r5, lr}
 8003a9e:	9d03      	ldr	r5, [sp, #12]
 8003aa0:	f3c1 0109 	ubfx	r1, r1, #0, #10
 8003aa4:	6804      	ldr	r4, [r0, #0]
 8003aa6:	432b      	orrs	r3, r5
 8003aa8:	6860      	ldr	r0, [r4, #4]
 8003aaa:	ea43 4302 	orr.w	r3, r3, r2, lsl #16
 8003aae:	4a05      	ldr	r2, [pc, #20]	@ (8003ac4 <I2C_TransferConfig+0x28>)
 8003ab0:	430b      	orrs	r3, r1
 8003ab2:	ea42 5255 	orr.w	r2, r2, r5, lsr #21
 8003ab6:	f023 4300 	bic.w	r3, r3, #2147483648	@ 0x80000000
 8003aba:	ea20 0002 	bic.w	r0, r0, r2
 8003abe:	4303      	orrs	r3, r0
 8003ac0:	6063      	str	r3, [r4, #4]
 8003ac2:	bd30      	pop	{r4, r5, pc}
 8003ac4:	03ff63ff 	.word	0x03ff63ff

08003ac8 <I2C_Enable_IRQ>:
 8003ac8:	4a1e      	ldr	r2, [pc, #120]	@ (8003b44 <I2C_Enable_IRQ+0x7c>)
 8003aca:	6b43      	ldr	r3, [r0, #52]	@ 0x34
 8003acc:	4293      	cmp	r3, r2
 8003ace:	f001 0202 	and.w	r2, r1, #2
 8003ad2:	b570      	push	{r4, r5, r6, lr}
 8003ad4:	b20d      	sxth	r5, r1
 8003ad6:	f001 0401 	and.w	r4, r1, #1
 8003ada:	d01d      	beq.n	8003b18 <I2C_Enable_IRQ+0x50>
 8003adc:	4e1a      	ldr	r6, [pc, #104]	@ (8003b48 <I2C_Enable_IRQ+0x80>)
 8003ade:	42b3      	cmp	r3, r6
 8003ae0:	d01a      	beq.n	8003b18 <I2C_Enable_IRQ+0x50>
 8003ae2:	4e1a      	ldr	r6, [pc, #104]	@ (8003b4c <I2C_Enable_IRQ+0x84>)
 8003ae4:	42b3      	cmp	r3, r6
 8003ae6:	d017      	beq.n	8003b18 <I2C_Enable_IRQ+0x50>
 8003ae8:	2d00      	cmp	r5, #0
 8003aea:	bfac      	ite	ge
 8003aec:	2300      	movge	r3, #0
 8003aee:	23b8      	movlt	r3, #184	@ 0xb8
 8003af0:	b10c      	cbz	r4, 8003af6 <I2C_Enable_IRQ+0x2e>
 8003af2:	f043 03f2 	orr.w	r3, r3, #242	@ 0xf2
 8003af6:	b10a      	cbz	r2, 8003afc <I2C_Enable_IRQ+0x34>
 8003af8:	f043 03f4 	orr.w	r3, r3, #244	@ 0xf4
 8003afc:	2910      	cmp	r1, #16
 8003afe:	d102      	bne.n	8003b06 <I2C_Enable_IRQ+0x3e>
 8003b00:	f043 0390 	orr.w	r3, r3, #144	@ 0x90
 8003b04:	e003      	b.n	8003b0e <I2C_Enable_IRQ+0x46>
 8003b06:	2920      	cmp	r1, #32
 8003b08:	d101      	bne.n	8003b0e <I2C_Enable_IRQ+0x46>
 8003b0a:	f043 0320 	orr.w	r3, r3, #32
 8003b0e:	6801      	ldr	r1, [r0, #0]
 8003b10:	680a      	ldr	r2, [r1, #0]
 8003b12:	4313      	orrs	r3, r2
 8003b14:	600b      	str	r3, [r1, #0]
 8003b16:	bd70      	pop	{r4, r5, r6, pc}
 8003b18:	2d00      	cmp	r5, #0
 8003b1a:	bfac      	ite	ge
 8003b1c:	2300      	movge	r3, #0
 8003b1e:	23b8      	movlt	r3, #184	@ 0xb8
 8003b20:	b10c      	cbz	r4, 8003b26 <I2C_Enable_IRQ+0x5e>
 8003b22:	f043 03f2 	orr.w	r3, r3, #242	@ 0xf2
 8003b26:	b10a      	cbz	r2, 8003b2c <I2C_Enable_IRQ+0x64>
 8003b28:	f043 03f4 	orr.w	r3, r3, #244	@ 0xf4
 8003b2c:	2910      	cmp	r1, #16
 8003b2e:	d0e7      	beq.n	8003b00 <I2C_Enable_IRQ+0x38>
 8003b30:	2920      	cmp	r1, #32
 8003b32:	d102      	bne.n	8003b3a <I2C_Enable_IRQ+0x72>
 8003b34:	f043 0360 	orr.w	r3, r3, #96	@ 0x60
 8003b38:	e7e9      	b.n	8003b0e <I2C_Enable_IRQ+0x46>
 8003b3a:	2940      	cmp	r1, #64	@ 0x40
 8003b3c:	bf08      	it	eq
 8003b3e:	f043 0340 	orreq.w	r3, r3, #64	@ 0x40
 8003b42:	e7e4      	b.n	8003b0e <I2C_Enable_IRQ+0x46>
 8003b44:	08004261 	.word	0x08004261
 8003b48:	08004701 	.word	0x08004701
 8003b4c:	08004139 	.word	0x08004139

08003b50 <I2C_Disable_IRQ>:
 8003b50:	f011 0301 	ands.w	r3, r1, #1
 8003b54:	d007      	beq.n	8003b66 <I2C_Disable_IRQ+0x16>
 8003b56:	f890 3041 	ldrb.w	r3, [r0, #65]	@ 0x41
 8003b5a:	f003 0328 	and.w	r3, r3, #40	@ 0x28
 8003b5e:	2b28      	cmp	r3, #40	@ 0x28
 8003b60:	bf14      	ite	ne
 8003b62:	23f2      	movne	r3, #242	@ 0xf2
 8003b64:	2342      	moveq	r3, #66	@ 0x42
 8003b66:	078a      	lsls	r2, r1, #30
 8003b68:	d509      	bpl.n	8003b7e <I2C_Disable_IRQ+0x2e>
 8003b6a:	f890 2041 	ldrb.w	r2, [r0, #65]	@ 0x41
 8003b6e:	f002 0228 	and.w	r2, r2, #40	@ 0x28
 8003b72:	2a28      	cmp	r2, #40	@ 0x28
 8003b74:	bf0c      	ite	eq
 8003b76:	f043 0344 	orreq.w	r3, r3, #68	@ 0x44
 8003b7a:	f043 03f4 	orrne.w	r3, r3, #244	@ 0xf4
 8003b7e:	040a      	lsls	r2, r1, #16
 8003b80:	6801      	ldr	r1, [r0, #0]
 8003b82:	bf48      	it	mi
 8003b84:	f043 03b8 	orrmi.w	r3, r3, #184	@ 0xb8
 8003b88:	680a      	ldr	r2, [r1, #0]
 8003b8a:	ea22 0303 	bic.w	r3, r2, r3
 8003b8e:	600b      	str	r3, [r1, #0]
 8003b90:	4770      	bx	lr

08003b92 <HAL_I2C_Init>:
 8003b92:	b510      	push	{r4, lr}
 8003b94:	4604      	mov	r4, r0
 8003b96:	2800      	cmp	r0, #0
 8003b98:	d04e      	beq.n	8003c38 <HAL_I2C_Init+0xa6>
 8003b9a:	f890 3041 	ldrb.w	r3, [r0, #65]	@ 0x41
 8003b9e:	f003 02ff 	and.w	r2, r3, #255	@ 0xff
 8003ba2:	b91b      	cbnz	r3, 8003bac <HAL_I2C_Init+0x1a>
 8003ba4:	f880 2040 	strb.w	r2, [r0, #64]	@ 0x40
 8003ba8:	f7fd fba2 	bl	80012f0 <HAL_I2C_MspInit>
 8003bac:	2324      	movs	r3, #36	@ 0x24
 8003bae:	f884 3041 	strb.w	r3, [r4, #65]	@ 0x41
 8003bb2:	6823      	ldr	r3, [r4, #0]
 8003bb4:	681a      	ldr	r2, [r3, #0]
 8003bb6:	f022 0201 	bic.w	r2, r2, #1
 8003bba:	601a      	str	r2, [r3, #0]
 8003bbc:	6862      	ldr	r2, [r4, #4]
 8003bbe:	f022 6270 	bic.w	r2, r2, #251658240	@ 0xf000000
 8003bc2:	611a      	str	r2, [r3, #16]
 8003bc4:	689a      	ldr	r2, [r3, #8]
 8003bc6:	f422 4200 	bic.w	r2, r2, #32768	@ 0x8000
 8003bca:	609a      	str	r2, [r3, #8]
 8003bcc:	e9d4 2102 	ldrd	r2, r1, [r4, #8]
 8003bd0:	2901      	cmp	r1, #1
 8003bd2:	d106      	bne.n	8003be2 <HAL_I2C_Init+0x50>
 8003bd4:	f442 4200 	orr.w	r2, r2, #32768	@ 0x8000
 8003bd8:	609a      	str	r2, [r3, #8]
 8003bda:	685a      	ldr	r2, [r3, #4]
 8003bdc:	f422 6200 	bic.w	r2, r2, #2048	@ 0x800
 8003be0:	e007      	b.n	8003bf2 <HAL_I2C_Init+0x60>
 8003be2:	f442 4204 	orr.w	r2, r2, #33792	@ 0x8400
 8003be6:	2902      	cmp	r1, #2
 8003be8:	609a      	str	r2, [r3, #8]
 8003bea:	d1f6      	bne.n	8003bda <HAL_I2C_Init+0x48>
 8003bec:	685a      	ldr	r2, [r3, #4]
 8003bee:	f442 6200 	orr.w	r2, r2, #2048	@ 0x800
 8003bf2:	605a      	str	r2, [r3, #4]
 8003bf4:	2000      	movs	r0, #0
 8003bf6:	685a      	ldr	r2, [r3, #4]
 8003bf8:	f042 7200 	orr.w	r2, r2, #33554432	@ 0x2000000
 8003bfc:	f442 4200 	orr.w	r2, r2, #32768	@ 0x8000
 8003c00:	605a      	str	r2, [r3, #4]
 8003c02:	68da      	ldr	r2, [r3, #12]
 8003c04:	f422 4200 	bic.w	r2, r2, #32768	@ 0x8000
 8003c08:	60da      	str	r2, [r3, #12]
 8003c0a:	e9d4 2104 	ldrd	r2, r1, [r4, #16]
 8003c0e:	430a      	orrs	r2, r1
 8003c10:	69a1      	ldr	r1, [r4, #24]
 8003c12:	ea42 2201 	orr.w	r2, r2, r1, lsl #8
 8003c16:	60da      	str	r2, [r3, #12]
 8003c18:	e9d4 2107 	ldrd	r2, r1, [r4, #28]
 8003c1c:	430a      	orrs	r2, r1
 8003c1e:	601a      	str	r2, [r3, #0]
 8003c20:	681a      	ldr	r2, [r3, #0]
 8003c22:	f042 0201 	orr.w	r2, r2, #1
 8003c26:	601a      	str	r2, [r3, #0]
 8003c28:	2320      	movs	r3, #32
 8003c2a:	6460      	str	r0, [r4, #68]	@ 0x44
 8003c2c:	f884 3041 	strb.w	r3, [r4, #65]	@ 0x41
 8003c30:	6320      	str	r0, [r4, #48]	@ 0x30
 8003c32:	f884 0042 	strb.w	r0, [r4, #66]	@ 0x42
 8003c36:	bd10      	pop	{r4, pc}
 8003c38:	2001      	movs	r0, #1
 8003c3a:	e7fc      	b.n	8003c36 <HAL_I2C_Init+0xa4>

08003c3c <HAL_I2C_Mem_Write_DMA>:
 8003c3c:	e92d 41f3 	stmdb	sp!, {r0, r1, r4, r5, r6, r7, r8, lr}
 8003c40:	4604      	mov	r4, r0
 8003c42:	461f      	mov	r7, r3
 8003c44:	460e      	mov	r6, r1
 8003c46:	f8bd 0024 	ldrh.w	r0, [sp, #36]	@ 0x24
 8003c4a:	f894 3041 	ldrb.w	r3, [r4, #65]	@ 0x41
 8003c4e:	9908      	ldr	r1, [sp, #32]
 8003c50:	2b20      	cmp	r3, #32
 8003c52:	d175      	bne.n	8003d40 <HAL_I2C_Mem_Write_DMA+0x104>
 8003c54:	b101      	cbz	r1, 8003c58 <HAL_I2C_Mem_Write_DMA+0x1c>
 8003c56:	b938      	cbnz	r0, 8003c68 <HAL_I2C_Mem_Write_DMA+0x2c>
 8003c58:	f44f 7300 	mov.w	r3, #512	@ 0x200
 8003c5c:	6463      	str	r3, [r4, #68]	@ 0x44
 8003c5e:	2501      	movs	r5, #1
 8003c60:	4628      	mov	r0, r5
 8003c62:	b002      	add	sp, #8
 8003c64:	e8bd 81f0 	ldmia.w	sp!, {r4, r5, r6, r7, r8, pc}
 8003c68:	6825      	ldr	r5, [r4, #0]
 8003c6a:	69ab      	ldr	r3, [r5, #24]
 8003c6c:	f413 4300 	ands.w	r3, r3, #32768	@ 0x8000
 8003c70:	d166      	bne.n	8003d40 <HAL_I2C_Mem_Write_DMA+0x104>
 8003c72:	f894 c040 	ldrb.w	ip, [r4, #64]	@ 0x40
 8003c76:	f1bc 0f01 	cmp.w	ip, #1
 8003c7a:	d061      	beq.n	8003d40 <HAL_I2C_Mem_Write_DMA+0x104>
 8003c7c:	f04f 0c01 	mov.w	ip, #1
 8003c80:	6261      	str	r1, [r4, #36]	@ 0x24
 8003c82:	f884 c040 	strb.w	ip, [r4, #64]	@ 0x40
 8003c86:	f04f 0c21 	mov.w	ip, #33	@ 0x21
 8003c8a:	f884 c041 	strb.w	ip, [r4, #65]	@ 0x41
 8003c8e:	f04f 0c40 	mov.w	ip, #64	@ 0x40
 8003c92:	f884 c042 	strb.w	ip, [r4, #66]	@ 0x42
 8003c96:	6463      	str	r3, [r4, #68]	@ 0x44
 8003c98:	4b2a      	ldr	r3, [pc, #168]	@ (8003d44 <HAL_I2C_Mem_Write_DMA+0x108>)
 8003c9a:	8560      	strh	r0, [r4, #42]	@ 0x2a
 8003c9c:	62e3      	str	r3, [r4, #44]	@ 0x2c
 8003c9e:	4b2a      	ldr	r3, [pc, #168]	@ (8003d48 <HAL_I2C_Mem_Write_DMA+0x10c>)
 8003ca0:	64e6      	str	r6, [r4, #76]	@ 0x4c
 8003ca2:	6363      	str	r3, [r4, #52]	@ 0x34
 8003ca4:	8d63      	ldrh	r3, [r4, #42]	@ 0x2a
 8003ca6:	b29b      	uxth	r3, r3
 8003ca8:	2bff      	cmp	r3, #255	@ 0xff
 8003caa:	d82b      	bhi.n	8003d04 <HAL_I2C_Mem_Write_DMA+0xc8>
 8003cac:	8d63      	ldrh	r3, [r4, #42]	@ 0x2a
 8003cae:	b29b      	uxth	r3, r3
 8003cb0:	2f01      	cmp	r7, #1
 8003cb2:	b2d0      	uxtb	r0, r2
 8003cb4:	8523      	strh	r3, [r4, #40]	@ 0x28
 8003cb6:	d127      	bne.n	8003d08 <HAL_I2C_Mem_Write_DMA+0xcc>
 8003cb8:	f04f 32ff 	mov.w	r2, #4294967295
 8003cbc:	62a8      	str	r0, [r5, #40]	@ 0x28
 8003cbe:	6522      	str	r2, [r4, #80]	@ 0x50
 8003cc0:	6ba0      	ldr	r0, [r4, #56]	@ 0x38
 8003cc2:	b328      	cbz	r0, 8003d10 <HAL_I2C_Mem_Write_DMA+0xd4>
 8003cc4:	4a21      	ldr	r2, [pc, #132]	@ (8003d4c <HAL_I2C_Mem_Write_DMA+0x110>)
 8003cc6:	f04f 0800 	mov.w	r8, #0
 8003cca:	63c2      	str	r2, [r0, #60]	@ 0x3c
 8003ccc:	4a20      	ldr	r2, [pc, #128]	@ (8003d50 <HAL_I2C_Mem_Write_DMA+0x114>)
 8003cce:	f8c0 8040 	str.w	r8, [r0, #64]	@ 0x40
 8003cd2:	64c2      	str	r2, [r0, #76]	@ 0x4c
 8003cd4:	f105 0228 	add.w	r2, r5, #40	@ 0x28
 8003cd8:	f8c0 8050 	str.w	r8, [r0, #80]	@ 0x50
 8003cdc:	f7fe ffe0 	bl	8002ca0 <HAL_DMA_Start_IT>
 8003ce0:	4605      	mov	r5, r0
 8003ce2:	bb08      	cbnz	r0, 8003d28 <HAL_I2C_Mem_Write_DMA+0xec>
 8003ce4:	4b1b      	ldr	r3, [pc, #108]	@ (8003d54 <HAL_I2C_Mem_Write_DMA+0x118>)
 8003ce6:	4631      	mov	r1, r6
 8003ce8:	4620      	mov	r0, r4
 8003cea:	b2fa      	uxtb	r2, r7
 8003cec:	9300      	str	r3, [sp, #0]
 8003cee:	f04f 7380 	mov.w	r3, #16777216	@ 0x1000000
 8003cf2:	f7ff fed3 	bl	8003a9c <I2C_TransferConfig>
 8003cf6:	2101      	movs	r1, #1
 8003cf8:	4620      	mov	r0, r4
 8003cfa:	f884 5040 	strb.w	r5, [r4, #64]	@ 0x40
 8003cfe:	f7ff fee3 	bl	8003ac8 <I2C_Enable_IRQ>
 8003d02:	e7ad      	b.n	8003c60 <HAL_I2C_Mem_Write_DMA+0x24>
 8003d04:	23ff      	movs	r3, #255	@ 0xff
 8003d06:	e7d3      	b.n	8003cb0 <HAL_I2C_Mem_Write_DMA+0x74>
 8003d08:	0a12      	lsrs	r2, r2, #8
 8003d0a:	62aa      	str	r2, [r5, #40]	@ 0x28
 8003d0c:	6520      	str	r0, [r4, #80]	@ 0x50
 8003d0e:	e7d7      	b.n	8003cc0 <HAL_I2C_Mem_Write_DMA+0x84>
 8003d10:	2320      	movs	r3, #32
 8003d12:	f884 0040 	strb.w	r0, [r4, #64]	@ 0x40
 8003d16:	f884 3041 	strb.w	r3, [r4, #65]	@ 0x41
 8003d1a:	f884 0042 	strb.w	r0, [r4, #66]	@ 0x42
 8003d1e:	6c63      	ldr	r3, [r4, #68]	@ 0x44
 8003d20:	f043 0380 	orr.w	r3, r3, #128	@ 0x80
 8003d24:	6463      	str	r3, [r4, #68]	@ 0x44
 8003d26:	e79a      	b.n	8003c5e <HAL_I2C_Mem_Write_DMA+0x22>
 8003d28:	2320      	movs	r3, #32
 8003d2a:	f884 8040 	strb.w	r8, [r4, #64]	@ 0x40
 8003d2e:	f884 3041 	strb.w	r3, [r4, #65]	@ 0x41
 8003d32:	f884 8042 	strb.w	r8, [r4, #66]	@ 0x42
 8003d36:	6c63      	ldr	r3, [r4, #68]	@ 0x44
 8003d38:	f043 0310 	orr.w	r3, r3, #16
 8003d3c:	6463      	str	r3, [r4, #68]	@ 0x44
 8003d3e:	e78e      	b.n	8003c5e <HAL_I2C_Mem_Write_DMA+0x22>
 8003d40:	2502      	movs	r5, #2
 8003d42:	e78d      	b.n	8003c60 <HAL_I2C_Mem_Write_DMA+0x24>
 8003d44:	ffff0000 	.word	0xffff0000
 8003d48:	08004139 	.word	0x08004139
 8003d4c:	08004449 	.word	0x08004449
 8003d50:	08004365 	.word	0x08004365
 8003d54:	80002000 	.word	0x80002000

08003d58 <HAL_I2C_EV_IRQHandler>:
 8003d58:	6802      	ldr	r2, [r0, #0]
 8003d5a:	6b43      	ldr	r3, [r0, #52]	@ 0x34
 8003d5c:	6991      	ldr	r1, [r2, #24]
 8003d5e:	6812      	ldr	r2, [r2, #0]
 8003d60:	b103      	cbz	r3, 8003d64 <HAL_I2C_EV_IRQHandler+0xc>
 8003d62:	4718      	bx	r3
 8003d64:	4770      	bx	lr

08003d66 <HAL_I2C_MasterTxCpltCallback>:
 8003d66:	4770      	bx	lr

08003d68 <HAL_I2C_MasterRxCpltCallback>:
 8003d68:	4770      	bx	lr

08003d6a <I2C_ITMasterSeqCplt>:
 8003d6a:	b538      	push	{r3, r4, r5, lr}
 8003d6c:	2500      	movs	r5, #0
 8003d6e:	f880 5042 	strb.w	r5, [r0, #66]	@ 0x42
 8003d72:	f890 3041 	ldrb.w	r3, [r0, #65]	@ 0x41
 8003d76:	2b21      	cmp	r3, #33	@ 0x21
 8003d78:	f04f 0320 	mov.w	r3, #32
 8003d7c:	f880 3041 	strb.w	r3, [r0, #65]	@ 0x41
 8003d80:	d10a      	bne.n	8003d98 <I2C_ITMasterSeqCplt+0x2e>
 8003d82:	2311      	movs	r3, #17
 8003d84:	2101      	movs	r1, #1
 8003d86:	6345      	str	r5, [r0, #52]	@ 0x34
 8003d88:	6303      	str	r3, [r0, #48]	@ 0x30
 8003d8a:	f7ff fee1 	bl	8003b50 <I2C_Disable_IRQ>
 8003d8e:	f880 5040 	strb.w	r5, [r0, #64]	@ 0x40
 8003d92:	f7ff ffe8 	bl	8003d66 <HAL_I2C_MasterTxCpltCallback>
 8003d96:	bd38      	pop	{r3, r4, r5, pc}
 8003d98:	2312      	movs	r3, #18
 8003d9a:	2102      	movs	r1, #2
 8003d9c:	6345      	str	r5, [r0, #52]	@ 0x34
 8003d9e:	6303      	str	r3, [r0, #48]	@ 0x30
 8003da0:	f7ff fed6 	bl	8003b50 <I2C_Disable_IRQ>
 8003da4:	f880 5040 	strb.w	r5, [r0, #64]	@ 0x40
 8003da8:	f7ff ffde 	bl	8003d68 <HAL_I2C_MasterRxCpltCallback>
 8003dac:	e7f3      	b.n	8003d96 <I2C_ITMasterSeqCplt+0x2c>

08003dae <HAL_I2C_SlaveTxCpltCallback>:
 8003dae:	4770      	bx	lr

08003db0 <HAL_I2C_SlaveRxCpltCallback>:
 8003db0:	4770      	bx	lr

08003db2 <I2C_ITSlaveSeqCplt>:
 8003db2:	b508      	push	{r3, lr}
 8003db4:	6803      	ldr	r3, [r0, #0]
 8003db6:	2100      	movs	r1, #0
 8003db8:	681a      	ldr	r2, [r3, #0]
 8003dba:	f880 1042 	strb.w	r1, [r0, #66]	@ 0x42
 8003dbe:	0451      	lsls	r1, r2, #17
 8003dc0:	d515      	bpl.n	8003dee <I2C_ITSlaveSeqCplt+0x3c>
 8003dc2:	681a      	ldr	r2, [r3, #0]
 8003dc4:	f422 4280 	bic.w	r2, r2, #16384	@ 0x4000
 8003dc8:	601a      	str	r2, [r3, #0]
 8003dca:	f890 3041 	ldrb.w	r3, [r0, #65]	@ 0x41
 8003dce:	2b29      	cmp	r3, #41	@ 0x29
 8003dd0:	d113      	bne.n	8003dfa <I2C_ITSlaveSeqCplt+0x48>
 8003dd2:	2328      	movs	r3, #40	@ 0x28
 8003dd4:	2101      	movs	r1, #1
 8003dd6:	f880 3041 	strb.w	r3, [r0, #65]	@ 0x41
 8003dda:	2321      	movs	r3, #33	@ 0x21
 8003ddc:	6303      	str	r3, [r0, #48]	@ 0x30
 8003dde:	f7ff feb7 	bl	8003b50 <I2C_Disable_IRQ>
 8003de2:	2300      	movs	r3, #0
 8003de4:	f880 3040 	strb.w	r3, [r0, #64]	@ 0x40
 8003de8:	f7ff ffe1 	bl	8003dae <HAL_I2C_SlaveTxCpltCallback>
 8003dec:	bd08      	pop	{r3, pc}
 8003dee:	0412      	lsls	r2, r2, #16
 8003df0:	d5eb      	bpl.n	8003dca <I2C_ITSlaveSeqCplt+0x18>
 8003df2:	681a      	ldr	r2, [r3, #0]
 8003df4:	f422 4200 	bic.w	r2, r2, #32768	@ 0x8000
 8003df8:	e7e6      	b.n	8003dc8 <I2C_ITSlaveSeqCplt+0x16>
 8003dfa:	f890 3041 	ldrb.w	r3, [r0, #65]	@ 0x41
 8003dfe:	2b2a      	cmp	r3, #42	@ 0x2a
 8003e00:	d1f4      	bne.n	8003dec <I2C_ITSlaveSeqCplt+0x3a>
 8003e02:	2328      	movs	r3, #40	@ 0x28
 8003e04:	2102      	movs	r1, #2
 8003e06:	f880 3041 	strb.w	r3, [r0, #65]	@ 0x41
 8003e0a:	2322      	movs	r3, #34	@ 0x22
 8003e0c:	6303      	str	r3, [r0, #48]	@ 0x30
 8003e0e:	f7ff fe9f 	bl	8003b50 <I2C_Disable_IRQ>
 8003e12:	2300      	movs	r3, #0
 8003e14:	f880 3040 	strb.w	r3, [r0, #64]	@ 0x40
 8003e18:	f7ff ffca 	bl	8003db0 <HAL_I2C_SlaveRxCpltCallback>
 8003e1c:	e7e6      	b.n	8003dec <I2C_ITSlaveSeqCplt+0x3a>

08003e1e <HAL_I2C_AddrCallback>:
 8003e1e:	4770      	bx	lr

08003e20 <I2C_ITAddrCplt.constprop.0>:
 8003e20:	f890 2041 	ldrb.w	r2, [r0, #65]	@ 0x41
 8003e24:	f002 0228 	and.w	r2, r2, #40	@ 0x28
 8003e28:	2a28      	cmp	r2, #40	@ 0x28
 8003e2a:	b5f8      	push	{r3, r4, r5, r6, r7, lr}
 8003e2c:	6803      	ldr	r3, [r0, #0]
 8003e2e:	d135      	bne.n	8003e9c <I2C_ITAddrCplt.constprop.0+0x7c>
 8003e30:	699e      	ldr	r6, [r3, #24]
 8003e32:	68c2      	ldr	r2, [r0, #12]
 8003e34:	699d      	ldr	r5, [r3, #24]
 8003e36:	f3c6 4600 	ubfx	r6, r6, #16, #1
 8003e3a:	2a02      	cmp	r2, #2
 8003e3c:	6899      	ldr	r1, [r3, #8]
 8003e3e:	ea4f 4515 	mov.w	r5, r5, lsr #16
 8003e42:	68df      	ldr	r7, [r3, #12]
 8003e44:	f005 05fe 	and.w	r5, r5, #254	@ 0xfe
 8003e48:	d11f      	bne.n	8003e8a <I2C_ITAddrCplt.constprop.0+0x6a>
 8003e4a:	ea85 15d1 	eor.w	r5, r5, r1, lsr #7
 8003e4e:	f3c1 0209 	ubfx	r2, r1, #0, #10
 8003e52:	f015 0506 	ands.w	r5, r5, #6
 8003e56:	d10e      	bne.n	8003e76 <I2C_ITAddrCplt.constprop.0+0x56>
 8003e58:	6c81      	ldr	r1, [r0, #72]	@ 0x48
 8003e5a:	3101      	adds	r1, #1
 8003e5c:	6481      	str	r1, [r0, #72]	@ 0x48
 8003e5e:	6c81      	ldr	r1, [r0, #72]	@ 0x48
 8003e60:	2902      	cmp	r1, #2
 8003e62:	d107      	bne.n	8003e74 <I2C_ITAddrCplt.constprop.0+0x54>
 8003e64:	2108      	movs	r1, #8
 8003e66:	6485      	str	r5, [r0, #72]	@ 0x48
 8003e68:	61d9      	str	r1, [r3, #28]
 8003e6a:	f880 5040 	strb.w	r5, [r0, #64]	@ 0x40
 8003e6e:	4631      	mov	r1, r6
 8003e70:	f7ff ffd5 	bl	8003e1e <HAL_I2C_AddrCallback>
 8003e74:	bdf8      	pop	{r3, r4, r5, r6, r7, pc}
 8003e76:	f44f 4100 	mov.w	r1, #32768	@ 0x8000
 8003e7a:	f7ff fe69 	bl	8003b50 <I2C_Disable_IRQ>
 8003e7e:	2300      	movs	r3, #0
 8003e80:	f007 02fe 	and.w	r2, r7, #254	@ 0xfe
 8003e84:	f880 3040 	strb.w	r3, [r0, #64]	@ 0x40
 8003e88:	e7f1      	b.n	8003e6e <I2C_ITAddrCplt.constprop.0+0x4e>
 8003e8a:	f44f 4100 	mov.w	r1, #32768	@ 0x8000
 8003e8e:	f7ff fe5f 	bl	8003b50 <I2C_Disable_IRQ>
 8003e92:	2300      	movs	r3, #0
 8003e94:	462a      	mov	r2, r5
 8003e96:	f880 3040 	strb.w	r3, [r0, #64]	@ 0x40
 8003e9a:	e7e8      	b.n	8003e6e <I2C_ITAddrCplt.constprop.0+0x4e>
 8003e9c:	2208      	movs	r2, #8
 8003e9e:	61da      	str	r2, [r3, #28]
 8003ea0:	2300      	movs	r3, #0
 8003ea2:	f880 3040 	strb.w	r3, [r0, #64]	@ 0x40
 8003ea6:	e7e5      	b.n	8003e74 <I2C_ITAddrCplt.constprop.0+0x54>

08003ea8 <HAL_I2C_ListenCpltCallback>:
 8003ea8:	4770      	bx	lr
	...

08003eac <I2C_ITListenCplt>:
 8003eac:	b508      	push	{r3, lr}
 8003eae:	4b16      	ldr	r3, [pc, #88]	@ (8003f08 <I2C_ITListenCplt+0x5c>)
 8003eb0:	2220      	movs	r2, #32
 8003eb2:	62c3      	str	r3, [r0, #44]	@ 0x2c
 8003eb4:	2300      	movs	r3, #0
 8003eb6:	6303      	str	r3, [r0, #48]	@ 0x30
 8003eb8:	6343      	str	r3, [r0, #52]	@ 0x34
 8003eba:	f880 2041 	strb.w	r2, [r0, #65]	@ 0x41
 8003ebe:	f880 3042 	strb.w	r3, [r0, #66]	@ 0x42
 8003ec2:	074b      	lsls	r3, r1, #29
 8003ec4:	d512      	bpl.n	8003eec <I2C_ITListenCplt+0x40>
 8003ec6:	6803      	ldr	r3, [r0, #0]
 8003ec8:	6a5a      	ldr	r2, [r3, #36]	@ 0x24
 8003eca:	6a43      	ldr	r3, [r0, #36]	@ 0x24
 8003ecc:	701a      	strb	r2, [r3, #0]
 8003ece:	6a43      	ldr	r3, [r0, #36]	@ 0x24
 8003ed0:	3301      	adds	r3, #1
 8003ed2:	6243      	str	r3, [r0, #36]	@ 0x24
 8003ed4:	8d03      	ldrh	r3, [r0, #40]	@ 0x28
 8003ed6:	b14b      	cbz	r3, 8003eec <I2C_ITListenCplt+0x40>
 8003ed8:	3b01      	subs	r3, #1
 8003eda:	8503      	strh	r3, [r0, #40]	@ 0x28
 8003edc:	8d43      	ldrh	r3, [r0, #42]	@ 0x2a
 8003ede:	3b01      	subs	r3, #1
 8003ee0:	b29b      	uxth	r3, r3
 8003ee2:	8543      	strh	r3, [r0, #42]	@ 0x2a
 8003ee4:	6c43      	ldr	r3, [r0, #68]	@ 0x44
 8003ee6:	f043 0304 	orr.w	r3, r3, #4
 8003eea:	6443      	str	r3, [r0, #68]	@ 0x44
 8003eec:	f248 0103 	movw	r1, #32771	@ 0x8003
 8003ef0:	f7ff fe2e 	bl	8003b50 <I2C_Disable_IRQ>
 8003ef4:	6803      	ldr	r3, [r0, #0]
 8003ef6:	2210      	movs	r2, #16
 8003ef8:	61da      	str	r2, [r3, #28]
 8003efa:	2300      	movs	r3, #0
 8003efc:	f880 3040 	strb.w	r3, [r0, #64]	@ 0x40
 8003f00:	f7ff ffd2 	bl	8003ea8 <HAL_I2C_ListenCpltCallback>
 8003f04:	bd08      	pop	{r3, pc}
 8003f06:	bf00      	nop
 8003f08:	ffff0000 	.word	0xffff0000

08003f0c <HAL_I2C_MemTxCpltCallback>:
 8003f0c:	4770      	bx	lr

08003f0e <HAL_I2C_MemRxCpltCallback>:
 8003f0e:	4770      	bx	lr

08003f10 <HAL_I2C_ErrorCallback>:
 8003f10:	4770      	bx	lr

08003f12 <HAL_I2C_AbortCpltCallback>:
 8003f12:	4770      	bx	lr

08003f14 <I2C_TreatErrorCallback>:
 8003f14:	f890 2041 	ldrb.w	r2, [r0, #65]	@ 0x41
 8003f18:	2a60      	cmp	r2, #96	@ 0x60
 8003f1a:	f04f 0200 	mov.w	r2, #0
 8003f1e:	b508      	push	{r3, lr}
 8003f20:	d108      	bne.n	8003f34 <I2C_TreatErrorCallback+0x20>
 8003f22:	2120      	movs	r1, #32
 8003f24:	f880 2040 	strb.w	r2, [r0, #64]	@ 0x40
 8003f28:	f880 1041 	strb.w	r1, [r0, #65]	@ 0x41
 8003f2c:	6302      	str	r2, [r0, #48]	@ 0x30
 8003f2e:	f7ff fff0 	bl	8003f12 <HAL_I2C_AbortCpltCallback>
 8003f32:	bd08      	pop	{r3, pc}
 8003f34:	6302      	str	r2, [r0, #48]	@ 0x30
 8003f36:	f880 2040 	strb.w	r2, [r0, #64]	@ 0x40
 8003f3a:	f7ff ffe9 	bl	8003f10 <HAL_I2C_ErrorCallback>
 8003f3e:	e7f8      	b.n	8003f32 <I2C_TreatErrorCallback+0x1e>

08003f40 <I2C_ITError>:
 8003f40:	b570      	push	{r4, r5, r6, lr}
 8003f42:	2200      	movs	r2, #0
 8003f44:	f890 3041 	ldrb.w	r3, [r0, #65]	@ 0x41
 8003f48:	4d3c      	ldr	r5, [pc, #240]	@ (800403c <I2C_ITError+0xfc>)
 8003f4a:	4604      	mov	r4, r0
 8003f4c:	f880 2042 	strb.w	r2, [r0, #66]	@ 0x42
 8003f50:	3b28      	subs	r3, #40	@ 0x28
 8003f52:	62c5      	str	r5, [r0, #44]	@ 0x2c
 8003f54:	8542      	strh	r2, [r0, #42]	@ 0x2a
 8003f56:	2b02      	cmp	r3, #2
 8003f58:	6c42      	ldr	r2, [r0, #68]	@ 0x44
 8003f5a:	ea42 0201 	orr.w	r2, r2, r1
 8003f5e:	6442      	str	r2, [r0, #68]	@ 0x44
 8003f60:	d82a      	bhi.n	8003fb8 <I2C_ITError+0x78>
 8003f62:	2103      	movs	r1, #3
 8003f64:	f7ff fdf4 	bl	8003b50 <I2C_Disable_IRQ>
 8003f68:	2328      	movs	r3, #40	@ 0x28
 8003f6a:	f880 3041 	strb.w	r3, [r0, #65]	@ 0x41
 8003f6e:	4b34      	ldr	r3, [pc, #208]	@ (8004040 <I2C_ITError+0x100>)
 8003f70:	6ba0      	ldr	r0, [r4, #56]	@ 0x38
 8003f72:	6363      	str	r3, [r4, #52]	@ 0x34
 8003f74:	6b23      	ldr	r3, [r4, #48]	@ 0x30
 8003f76:	2800      	cmp	r0, #0
 8003f78:	d041      	beq.n	8003ffe <I2C_ITError+0xbe>
 8003f7a:	2b11      	cmp	r3, #17
 8003f7c:	d001      	beq.n	8003f82 <I2C_ITError+0x42>
 8003f7e:	2b21      	cmp	r3, #33	@ 0x21
 8003f80:	d13d      	bne.n	8003ffe <I2C_ITError+0xbe>
 8003f82:	6823      	ldr	r3, [r4, #0]
 8003f84:	681a      	ldr	r2, [r3, #0]
 8003f86:	0451      	lsls	r1, r2, #17
 8003f88:	d503      	bpl.n	8003f92 <I2C_ITError+0x52>
 8003f8a:	681a      	ldr	r2, [r3, #0]
 8003f8c:	f422 4280 	bic.w	r2, r2, #16384	@ 0x4000
 8003f90:	601a      	str	r2, [r3, #0]
 8003f92:	f7ff fc79 	bl	8003888 <HAL_DMA_GetState>
 8003f96:	2801      	cmp	r0, #1
 8003f98:	d02c      	beq.n	8003ff4 <I2C_ITError+0xb4>
 8003f9a:	4b2a      	ldr	r3, [pc, #168]	@ (8004044 <I2C_ITError+0x104>)
 8003f9c:	6ba0      	ldr	r0, [r4, #56]	@ 0x38
 8003f9e:	6503      	str	r3, [r0, #80]	@ 0x50
 8003fa0:	2300      	movs	r3, #0
 8003fa2:	f884 3040 	strb.w	r3, [r4, #64]	@ 0x40
 8003fa6:	f7ff f93b 	bl	8003220 <HAL_DMA_Abort_IT>
 8003faa:	2800      	cmp	r0, #0
 8003fac:	d045      	beq.n	800403a <I2C_ITError+0xfa>
 8003fae:	6ba0      	ldr	r0, [r4, #56]	@ 0x38
 8003fb0:	6d03      	ldr	r3, [r0, #80]	@ 0x50
 8003fb2:	e8bd 4070 	ldmia.w	sp!, {r4, r5, r6, lr}
 8003fb6:	4718      	bx	r3
 8003fb8:	f248 0103 	movw	r1, #32771	@ 0x8003
 8003fbc:	f7ff fdc8 	bl	8003b50 <I2C_Disable_IRQ>
 8003fc0:	f7ff fd5e 	bl	8003a80 <I2C_Flush_TXDR>
 8003fc4:	f890 3041 	ldrb.w	r3, [r0, #65]	@ 0x41
 8003fc8:	2b60      	cmp	r3, #96	@ 0x60
 8003fca:	d011      	beq.n	8003ff0 <I2C_ITError+0xb0>
 8003fcc:	2320      	movs	r3, #32
 8003fce:	f880 3041 	strb.w	r3, [r0, #65]	@ 0x41
 8003fd2:	6803      	ldr	r3, [r0, #0]
 8003fd4:	699a      	ldr	r2, [r3, #24]
 8003fd6:	0695      	lsls	r5, r2, #26
 8003fd8:	d50a      	bpl.n	8003ff0 <I2C_ITError+0xb0>
 8003fda:	699a      	ldr	r2, [r3, #24]
 8003fdc:	06d0      	lsls	r0, r2, #27
 8003fde:	d505      	bpl.n	8003fec <I2C_ITError+0xac>
 8003fe0:	2210      	movs	r2, #16
 8003fe2:	61da      	str	r2, [r3, #28]
 8003fe4:	6c62      	ldr	r2, [r4, #68]	@ 0x44
 8003fe6:	f042 0204 	orr.w	r2, r2, #4
 8003fea:	6462      	str	r2, [r4, #68]	@ 0x44
 8003fec:	2220      	movs	r2, #32
 8003fee:	61da      	str	r2, [r3, #28]
 8003ff0:	2300      	movs	r3, #0
 8003ff2:	e7bd      	b.n	8003f70 <I2C_ITError+0x30>
 8003ff4:	4620      	mov	r0, r4
 8003ff6:	e8bd 4070 	ldmia.w	sp!, {r4, r5, r6, lr}
 8003ffa:	f7ff bf8b 	b.w	8003f14 <I2C_TreatErrorCallback>
 8003ffe:	6be0      	ldr	r0, [r4, #60]	@ 0x3c
 8004000:	2800      	cmp	r0, #0
 8004002:	d0f7      	beq.n	8003ff4 <I2C_ITError+0xb4>
 8004004:	2b12      	cmp	r3, #18
 8004006:	d001      	beq.n	800400c <I2C_ITError+0xcc>
 8004008:	2b22      	cmp	r3, #34	@ 0x22
 800400a:	d1f3      	bne.n	8003ff4 <I2C_ITError+0xb4>
 800400c:	6823      	ldr	r3, [r4, #0]
 800400e:	681a      	ldr	r2, [r3, #0]
 8004010:	0412      	lsls	r2, r2, #16
 8004012:	d503      	bpl.n	800401c <I2C_ITError+0xdc>
 8004014:	681a      	ldr	r2, [r3, #0]
 8004016:	f422 4200 	bic.w	r2, r2, #32768	@ 0x8000
 800401a:	601a      	str	r2, [r3, #0]
 800401c:	f7ff fc34 	bl	8003888 <HAL_DMA_GetState>
 8004020:	2801      	cmp	r0, #1
 8004022:	d0e7      	beq.n	8003ff4 <I2C_ITError+0xb4>
 8004024:	4b07      	ldr	r3, [pc, #28]	@ (8004044 <I2C_ITError+0x104>)
 8004026:	6be0      	ldr	r0, [r4, #60]	@ 0x3c
 8004028:	6503      	str	r3, [r0, #80]	@ 0x50
 800402a:	2300      	movs	r3, #0
 800402c:	f884 3040 	strb.w	r3, [r4, #64]	@ 0x40
 8004030:	f7ff f8f6 	bl	8003220 <HAL_DMA_Abort_IT>
 8004034:	b108      	cbz	r0, 800403a <I2C_ITError+0xfa>
 8004036:	6be0      	ldr	r0, [r4, #60]	@ 0x3c
 8004038:	e7ba      	b.n	8003fb0 <I2C_ITError+0x70>
 800403a:	bd70      	pop	{r4, r5, r6, pc}
 800403c:	ffff0000 	.word	0xffff0000
 8004040:	08004899 	.word	0x08004899
 8004044:	080049ab 	.word	0x080049ab

08004048 <I2C_ITMasterCplt>:
 8004048:	b573      	push	{r0, r1, r4, r5, r6, lr}
 800404a:	2320      	movs	r3, #32
 800404c:	6805      	ldr	r5, [r0, #0]
 800404e:	4604      	mov	r4, r0
 8004050:	460e      	mov	r6, r1
 8004052:	61eb      	str	r3, [r5, #28]
 8004054:	f890 3041 	ldrb.w	r3, [r0, #65]	@ 0x41
 8004058:	2b21      	cmp	r3, #33	@ 0x21
 800405a:	d136      	bne.n	80040ca <I2C_ITMasterCplt+0x82>
 800405c:	2101      	movs	r1, #1
 800405e:	f7ff fd77 	bl	8003b50 <I2C_Disable_IRQ>
 8004062:	2311      	movs	r3, #17
 8004064:	6323      	str	r3, [r4, #48]	@ 0x30
 8004066:	686b      	ldr	r3, [r5, #4]
 8004068:	06f2      	lsls	r2, r6, #27
 800406a:	f023 73ff 	bic.w	r3, r3, #33423360	@ 0x1fe0000
 800406e:	f423 338b 	bic.w	r3, r3, #71168	@ 0x11600
 8004072:	f423 73ff 	bic.w	r3, r3, #510	@ 0x1fe
 8004076:	f023 0301 	bic.w	r3, r3, #1
 800407a:	606b      	str	r3, [r5, #4]
 800407c:	f04f 0300 	mov.w	r3, #0
 8004080:	6363      	str	r3, [r4, #52]	@ 0x34
 8004082:	f5a3 3380 	sub.w	r3, r3, #65536	@ 0x10000
 8004086:	62e3      	str	r3, [r4, #44]	@ 0x2c
 8004088:	d505      	bpl.n	8004096 <I2C_ITMasterCplt+0x4e>
 800408a:	2310      	movs	r3, #16
 800408c:	61eb      	str	r3, [r5, #28]
 800408e:	6c63      	ldr	r3, [r4, #68]	@ 0x44
 8004090:	f043 0304 	orr.w	r3, r3, #4
 8004094:	6463      	str	r3, [r4, #68]	@ 0x44
 8004096:	f894 3041 	ldrb.w	r3, [r4, #65]	@ 0x41
 800409a:	2b60      	cmp	r3, #96	@ 0x60
 800409c:	d105      	bne.n	80040aa <I2C_ITMasterCplt+0x62>
 800409e:	0773      	lsls	r3, r6, #29
 80040a0:	d503      	bpl.n	80040aa <I2C_ITMasterCplt+0x62>
 80040a2:	6a6b      	ldr	r3, [r5, #36]	@ 0x24
 80040a4:	b2db      	uxtb	r3, r3
 80040a6:	9301      	str	r3, [sp, #4]
 80040a8:	9b01      	ldr	r3, [sp, #4]
 80040aa:	4620      	mov	r0, r4
 80040ac:	f7ff fce8 	bl	8003a80 <I2C_Flush_TXDR>
 80040b0:	6c63      	ldr	r3, [r4, #68]	@ 0x44
 80040b2:	f894 2041 	ldrb.w	r2, [r4, #65]	@ 0x41
 80040b6:	2a60      	cmp	r2, #96	@ 0x60
 80040b8:	d000      	beq.n	80040bc <I2C_ITMasterCplt+0x74>
 80040ba:	b17b      	cbz	r3, 80040dc <I2C_ITMasterCplt+0x94>
 80040bc:	6c61      	ldr	r1, [r4, #68]	@ 0x44
 80040be:	4620      	mov	r0, r4
 80040c0:	b002      	add	sp, #8
 80040c2:	e8bd 4070 	ldmia.w	sp!, {r4, r5, r6, lr}
 80040c6:	f7ff bf3b 	b.w	8003f40 <I2C_ITError>
 80040ca:	f890 3041 	ldrb.w	r3, [r0, #65]	@ 0x41
 80040ce:	2b22      	cmp	r3, #34	@ 0x22
 80040d0:	d1c9      	bne.n	8004066 <I2C_ITMasterCplt+0x1e>
 80040d2:	2102      	movs	r1, #2
 80040d4:	f7ff fd3c 	bl	8003b50 <I2C_Disable_IRQ>
 80040d8:	2312      	movs	r3, #18
 80040da:	e7c3      	b.n	8004064 <I2C_ITMasterCplt+0x1c>
 80040dc:	f894 2041 	ldrb.w	r2, [r4, #65]	@ 0x41
 80040e0:	2a21      	cmp	r2, #33	@ 0x21
 80040e2:	d112      	bne.n	800410a <I2C_ITMasterCplt+0xc2>
 80040e4:	2220      	movs	r2, #32
 80040e6:	f884 3040 	strb.w	r3, [r4, #64]	@ 0x40
 80040ea:	f884 2041 	strb.w	r2, [r4, #65]	@ 0x41
 80040ee:	6323      	str	r3, [r4, #48]	@ 0x30
 80040f0:	f894 2042 	ldrb.w	r2, [r4, #66]	@ 0x42
 80040f4:	f884 3042 	strb.w	r3, [r4, #66]	@ 0x42
 80040f8:	2a40      	cmp	r2, #64	@ 0x40
 80040fa:	d103      	bne.n	8004104 <I2C_ITMasterCplt+0xbc>
 80040fc:	f7ff ff06 	bl	8003f0c <HAL_I2C_MemTxCpltCallback>
 8004100:	b002      	add	sp, #8
 8004102:	bd70      	pop	{r4, r5, r6, pc}
 8004104:	f7ff fe2f 	bl	8003d66 <HAL_I2C_MasterTxCpltCallback>
 8004108:	e7fa      	b.n	8004100 <I2C_ITMasterCplt+0xb8>
 800410a:	f894 2041 	ldrb.w	r2, [r4, #65]	@ 0x41
 800410e:	2a22      	cmp	r2, #34	@ 0x22
 8004110:	d1f6      	bne.n	8004100 <I2C_ITMasterCplt+0xb8>
 8004112:	2220      	movs	r2, #32
 8004114:	f884 3040 	strb.w	r3, [r4, #64]	@ 0x40
 8004118:	f884 2041 	strb.w	r2, [r4, #65]	@ 0x41
 800411c:	6323      	str	r3, [r4, #48]	@ 0x30
 800411e:	f894 2042 	ldrb.w	r2, [r4, #66]	@ 0x42
 8004122:	f884 3042 	strb.w	r3, [r4, #66]	@ 0x42
 8004126:	2a40      	cmp	r2, #64	@ 0x40
 8004128:	d102      	bne.n	8004130 <I2C_ITMasterCplt+0xe8>
 800412a:	f7ff fef0 	bl	8003f0e <HAL_I2C_MemRxCpltCallback>
 800412e:	e7e7      	b.n	8004100 <I2C_ITMasterCplt+0xb8>
 8004130:	f7ff fe1a 	bl	8003d68 <HAL_I2C_MasterRxCpltCallback>
 8004134:	e7e4      	b.n	8004100 <I2C_ITMasterCplt+0xb8>
	...

08004138 <I2C_Mem_ISR_DMA>:
 8004138:	b513      	push	{r0, r1, r4, lr}
 800413a:	f890 3040 	ldrb.w	r3, [r0, #64]	@ 0x40
 800413e:	4604      	mov	r4, r0
 8004140:	2b01      	cmp	r3, #1
 8004142:	f000 8086 	beq.w	8004252 <I2C_Mem_ISR_DMA+0x11a>
 8004146:	2301      	movs	r3, #1
 8004148:	f880 3040 	strb.w	r3, [r0, #64]	@ 0x40
 800414c:	06cb      	lsls	r3, r1, #27
 800414e:	d512      	bpl.n	8004176 <I2C_Mem_ISR_DMA+0x3e>
 8004150:	06d3      	lsls	r3, r2, #27
 8004152:	d510      	bpl.n	8004176 <I2C_Mem_ISR_DMA+0x3e>
 8004154:	6803      	ldr	r3, [r0, #0]
 8004156:	2210      	movs	r2, #16
 8004158:	2120      	movs	r1, #32
 800415a:	61da      	str	r2, [r3, #28]
 800415c:	6c43      	ldr	r3, [r0, #68]	@ 0x44
 800415e:	f043 0304 	orr.w	r3, r3, #4
 8004162:	6443      	str	r3, [r0, #68]	@ 0x44
 8004164:	f7ff fcb0 	bl	8003ac8 <I2C_Enable_IRQ>
 8004168:	f7ff fc8a 	bl	8003a80 <I2C_Flush_TXDR>
 800416c:	2000      	movs	r0, #0
 800416e:	f884 0040 	strb.w	r0, [r4, #64]	@ 0x40
 8004172:	b002      	add	sp, #8
 8004174:	bd10      	pop	{r4, pc}
 8004176:	0788      	lsls	r0, r1, #30
 8004178:	d508      	bpl.n	800418c <I2C_Mem_ISR_DMA+0x54>
 800417a:	0793      	lsls	r3, r2, #30
 800417c:	d506      	bpl.n	800418c <I2C_Mem_ISR_DMA+0x54>
 800417e:	6823      	ldr	r3, [r4, #0]
 8004180:	6d22      	ldr	r2, [r4, #80]	@ 0x50
 8004182:	629a      	str	r2, [r3, #40]	@ 0x28
 8004184:	f04f 33ff 	mov.w	r3, #4294967295
 8004188:	6523      	str	r3, [r4, #80]	@ 0x50
 800418a:	e7ef      	b.n	800416c <I2C_Mem_ISR_DMA+0x34>
 800418c:	0608      	lsls	r0, r1, #24
 800418e:	d536      	bpl.n	80041fe <I2C_Mem_ISR_DMA+0xc6>
 8004190:	0653      	lsls	r3, r2, #25
 8004192:	d534      	bpl.n	80041fe <I2C_Mem_ISR_DMA+0xc6>
 8004194:	2101      	movs	r1, #1
 8004196:	4620      	mov	r0, r4
 8004198:	f7ff fcda 	bl	8003b50 <I2C_Disable_IRQ>
 800419c:	2110      	movs	r1, #16
 800419e:	f7ff fc93 	bl	8003ac8 <I2C_Enable_IRQ>
 80041a2:	8d63      	ldrh	r3, [r4, #42]	@ 0x2a
 80041a4:	b29b      	uxth	r3, r3
 80041a6:	b333      	cbz	r3, 80041f6 <I2C_Mem_ISR_DMA+0xbe>
 80041a8:	8d63      	ldrh	r3, [r4, #42]	@ 0x2a
 80041aa:	b29b      	uxth	r3, r3
 80041ac:	2bff      	cmp	r3, #255	@ 0xff
 80041ae:	d918      	bls.n	80041e2 <I2C_Mem_ISR_DMA+0xaa>
 80041b0:	22ff      	movs	r2, #255	@ 0xff
 80041b2:	6ce1      	ldr	r1, [r4, #76]	@ 0x4c
 80041b4:	2300      	movs	r3, #0
 80041b6:	8522      	strh	r2, [r4, #40]	@ 0x28
 80041b8:	9300      	str	r3, [sp, #0]
 80041ba:	f04f 7380 	mov.w	r3, #16777216	@ 0x1000000
 80041be:	b289      	uxth	r1, r1
 80041c0:	f7ff fc6c 	bl	8003a9c <I2C_TransferConfig>
 80041c4:	8d63      	ldrh	r3, [r4, #42]	@ 0x2a
 80041c6:	8d22      	ldrh	r2, [r4, #40]	@ 0x28
 80041c8:	1a9b      	subs	r3, r3, r2
 80041ca:	b29b      	uxth	r3, r3
 80041cc:	8563      	strh	r3, [r4, #42]	@ 0x2a
 80041ce:	f894 2041 	ldrb.w	r2, [r4, #65]	@ 0x41
 80041d2:	6823      	ldr	r3, [r4, #0]
 80041d4:	2a22      	cmp	r2, #34	@ 0x22
 80041d6:	681a      	ldr	r2, [r3, #0]
 80041d8:	d130      	bne.n	800423c <I2C_Mem_ISR_DMA+0x104>
 80041da:	f442 4200 	orr.w	r2, r2, #32768	@ 0x8000
 80041de:	601a      	str	r2, [r3, #0]
 80041e0:	e7c4      	b.n	800416c <I2C_Mem_ISR_DMA+0x34>
 80041e2:	8d62      	ldrh	r2, [r4, #42]	@ 0x2a
 80041e4:	2300      	movs	r3, #0
 80041e6:	6ce1      	ldr	r1, [r4, #76]	@ 0x4c
 80041e8:	b292      	uxth	r2, r2
 80041ea:	8522      	strh	r2, [r4, #40]	@ 0x28
 80041ec:	9300      	str	r3, [sp, #0]
 80041ee:	b2d2      	uxtb	r2, r2
 80041f0:	f04f 7300 	mov.w	r3, #33554432	@ 0x2000000
 80041f4:	e7e3      	b.n	80041be <I2C_Mem_ISR_DMA+0x86>
 80041f6:	2140      	movs	r1, #64	@ 0x40
 80041f8:	f7ff fea2 	bl	8003f40 <I2C_ITError>
 80041fc:	e7b6      	b.n	800416c <I2C_Mem_ISR_DMA+0x34>
 80041fe:	0648      	lsls	r0, r1, #25
 8004200:	d51f      	bpl.n	8004242 <I2C_Mem_ISR_DMA+0x10a>
 8004202:	0653      	lsls	r3, r2, #25
 8004204:	d51d      	bpl.n	8004242 <I2C_Mem_ISR_DMA+0x10a>
 8004206:	2101      	movs	r1, #1
 8004208:	4620      	mov	r0, r4
 800420a:	f7ff fca1 	bl	8003b50 <I2C_Disable_IRQ>
 800420e:	2110      	movs	r1, #16
 8004210:	f7ff fc5a 	bl	8003ac8 <I2C_Enable_IRQ>
 8004214:	f894 1041 	ldrb.w	r1, [r4, #65]	@ 0x41
 8004218:	4a0f      	ldr	r2, [pc, #60]	@ (8004258 <I2C_Mem_ISR_DMA+0x120>)
 800421a:	4b10      	ldr	r3, [pc, #64]	@ (800425c <I2C_Mem_ISR_DMA+0x124>)
 800421c:	2922      	cmp	r1, #34	@ 0x22
 800421e:	bf18      	it	ne
 8004220:	4613      	movne	r3, r2
 8004222:	8d62      	ldrh	r2, [r4, #42]	@ 0x2a
 8004224:	b292      	uxth	r2, r2
 8004226:	2aff      	cmp	r2, #255	@ 0xff
 8004228:	d903      	bls.n	8004232 <I2C_Mem_ISR_DMA+0xfa>
 800422a:	22ff      	movs	r2, #255	@ 0xff
 800422c:	6ce1      	ldr	r1, [r4, #76]	@ 0x4c
 800422e:	8522      	strh	r2, [r4, #40]	@ 0x28
 8004230:	e7c2      	b.n	80041b8 <I2C_Mem_ISR_DMA+0x80>
 8004232:	8d62      	ldrh	r2, [r4, #42]	@ 0x2a
 8004234:	6ce1      	ldr	r1, [r4, #76]	@ 0x4c
 8004236:	b292      	uxth	r2, r2
 8004238:	8522      	strh	r2, [r4, #40]	@ 0x28
 800423a:	e7d7      	b.n	80041ec <I2C_Mem_ISR_DMA+0xb4>
 800423c:	f442 4280 	orr.w	r2, r2, #16384	@ 0x4000
 8004240:	e7cd      	b.n	80041de <I2C_Mem_ISR_DMA+0xa6>
 8004242:	0688      	lsls	r0, r1, #26
 8004244:	d592      	bpl.n	800416c <I2C_Mem_ISR_DMA+0x34>
 8004246:	0693      	lsls	r3, r2, #26
 8004248:	d590      	bpl.n	800416c <I2C_Mem_ISR_DMA+0x34>
 800424a:	4620      	mov	r0, r4
 800424c:	f7ff fefc 	bl	8004048 <I2C_ITMasterCplt>
 8004250:	e78c      	b.n	800416c <I2C_Mem_ISR_DMA+0x34>
 8004252:	2002      	movs	r0, #2
 8004254:	e78d      	b.n	8004172 <I2C_Mem_ISR_DMA+0x3a>
 8004256:	bf00      	nop
 8004258:	80002000 	.word	0x80002000
 800425c:	80002400 	.word	0x80002400

08004260 <I2C_Master_ISR_DMA>:
 8004260:	b573      	push	{r0, r1, r4, r5, r6, lr}
 8004262:	f890 3040 	ldrb.w	r3, [r0, #64]	@ 0x40
 8004266:	4604      	mov	r4, r0
 8004268:	2b01      	cmp	r3, #1
 800426a:	d079      	beq.n	8004360 <I2C_Master_ISR_DMA+0x100>
 800426c:	2301      	movs	r3, #1
 800426e:	f880 3040 	strb.w	r3, [r0, #64]	@ 0x40
 8004272:	06cb      	lsls	r3, r1, #27
 8004274:	d512      	bpl.n	800429c <I2C_Master_ISR_DMA+0x3c>
 8004276:	06d6      	lsls	r6, r2, #27
 8004278:	d510      	bpl.n	800429c <I2C_Master_ISR_DMA+0x3c>
 800427a:	6803      	ldr	r3, [r0, #0]
 800427c:	2210      	movs	r2, #16
 800427e:	2120      	movs	r1, #32
 8004280:	61da      	str	r2, [r3, #28]
 8004282:	6c43      	ldr	r3, [r0, #68]	@ 0x44
 8004284:	f043 0304 	orr.w	r3, r3, #4
 8004288:	6443      	str	r3, [r0, #68]	@ 0x44
 800428a:	f7ff fc1d 	bl	8003ac8 <I2C_Enable_IRQ>
 800428e:	f7ff fbf7 	bl	8003a80 <I2C_Flush_TXDR>
 8004292:	2000      	movs	r0, #0
 8004294:	f884 0040 	strb.w	r0, [r4, #64]	@ 0x40
 8004298:	b002      	add	sp, #8
 800429a:	bd70      	pop	{r4, r5, r6, pc}
 800429c:	060d      	lsls	r5, r1, #24
 800429e:	d542      	bpl.n	8004326 <I2C_Master_ISR_DMA+0xc6>
 80042a0:	0650      	lsls	r0, r2, #25
 80042a2:	d540      	bpl.n	8004326 <I2C_Master_ISR_DMA+0xc6>
 80042a4:	6825      	ldr	r5, [r4, #0]
 80042a6:	682b      	ldr	r3, [r5, #0]
 80042a8:	f023 0340 	bic.w	r3, r3, #64	@ 0x40
 80042ac:	602b      	str	r3, [r5, #0]
 80042ae:	8d63      	ldrh	r3, [r4, #42]	@ 0x2a
 80042b0:	b29b      	uxth	r3, r3
 80042b2:	b363      	cbz	r3, 800430e <I2C_Master_ISR_DMA+0xae>
 80042b4:	6869      	ldr	r1, [r5, #4]
 80042b6:	8d63      	ldrh	r3, [r4, #42]	@ 0x2a
 80042b8:	f3c1 0109 	ubfx	r1, r1, #0, #10
 80042bc:	b29b      	uxth	r3, r3
 80042be:	2bff      	cmp	r3, #255	@ 0xff
 80042c0:	d91a      	bls.n	80042f8 <I2C_Master_ISR_DMA+0x98>
 80042c2:	23ff      	movs	r3, #255	@ 0xff
 80042c4:	8523      	strh	r3, [r4, #40]	@ 0x28
 80042c6:	f04f 7380 	mov.w	r3, #16777216	@ 0x1000000
 80042ca:	2200      	movs	r2, #0
 80042cc:	8d26      	ldrh	r6, [r4, #40]	@ 0x28
 80042ce:	4620      	mov	r0, r4
 80042d0:	9200      	str	r2, [sp, #0]
 80042d2:	f894 2028 	ldrb.w	r2, [r4, #40]	@ 0x28
 80042d6:	f7ff fbe1 	bl	8003a9c <I2C_TransferConfig>
 80042da:	8d63      	ldrh	r3, [r4, #42]	@ 0x2a
 80042dc:	1b9b      	subs	r3, r3, r6
 80042de:	b29b      	uxth	r3, r3
 80042e0:	8563      	strh	r3, [r4, #42]	@ 0x2a
 80042e2:	f894 3041 	ldrb.w	r3, [r4, #65]	@ 0x41
 80042e6:	2b22      	cmp	r3, #34	@ 0x22
 80042e8:	682b      	ldr	r3, [r5, #0]
 80042ea:	bf0c      	ite	eq
 80042ec:	f443 4300 	orreq.w	r3, r3, #32768	@ 0x8000
 80042f0:	f443 4380 	orrne.w	r3, r3, #16384	@ 0x4000
 80042f4:	602b      	str	r3, [r5, #0]
 80042f6:	e7cc      	b.n	8004292 <I2C_Master_ISR_DMA+0x32>
 80042f8:	8d63      	ldrh	r3, [r4, #42]	@ 0x2a
 80042fa:	8523      	strh	r3, [r4, #40]	@ 0x28
 80042fc:	6ae3      	ldr	r3, [r4, #44]	@ 0x2c
 80042fe:	f513 3f80 	cmn.w	r3, #65536	@ 0x10000
 8004302:	d001      	beq.n	8004308 <I2C_Master_ISR_DMA+0xa8>
 8004304:	6ae3      	ldr	r3, [r4, #44]	@ 0x2c
 8004306:	e7e0      	b.n	80042ca <I2C_Master_ISR_DMA+0x6a>
 8004308:	f04f 7300 	mov.w	r3, #33554432	@ 0x2000000
 800430c:	e7dd      	b.n	80042ca <I2C_Master_ISR_DMA+0x6a>
 800430e:	686b      	ldr	r3, [r5, #4]
 8004310:	019a      	lsls	r2, r3, #6
 8004312:	d403      	bmi.n	800431c <I2C_Master_ISR_DMA+0xbc>
 8004314:	4620      	mov	r0, r4
 8004316:	f7ff fd28 	bl	8003d6a <I2C_ITMasterSeqCplt>
 800431a:	e7ba      	b.n	8004292 <I2C_Master_ISR_DMA+0x32>
 800431c:	2140      	movs	r1, #64	@ 0x40
 800431e:	4620      	mov	r0, r4
 8004320:	f7ff fe0e 	bl	8003f40 <I2C_ITError>
 8004324:	e7b5      	b.n	8004292 <I2C_Master_ISR_DMA+0x32>
 8004326:	064b      	lsls	r3, r1, #25
 8004328:	d512      	bpl.n	8004350 <I2C_Master_ISR_DMA+0xf0>
 800432a:	0656      	lsls	r6, r2, #25
 800432c:	d510      	bpl.n	8004350 <I2C_Master_ISR_DMA+0xf0>
 800432e:	8d63      	ldrh	r3, [r4, #42]	@ 0x2a
 8004330:	b29b      	uxth	r3, r3
 8004332:	2b00      	cmp	r3, #0
 8004334:	d1f2      	bne.n	800431c <I2C_Master_ISR_DMA+0xbc>
 8004336:	6823      	ldr	r3, [r4, #0]
 8004338:	685a      	ldr	r2, [r3, #4]
 800433a:	0195      	lsls	r5, r2, #6
 800433c:	d4a9      	bmi.n	8004292 <I2C_Master_ISR_DMA+0x32>
 800433e:	6ae2      	ldr	r2, [r4, #44]	@ 0x2c
 8004340:	f512 3f80 	cmn.w	r2, #65536	@ 0x10000
 8004344:	d1e6      	bne.n	8004314 <I2C_Master_ISR_DMA+0xb4>
 8004346:	685a      	ldr	r2, [r3, #4]
 8004348:	f442 4280 	orr.w	r2, r2, #16384	@ 0x4000
 800434c:	605a      	str	r2, [r3, #4]
 800434e:	e7a0      	b.n	8004292 <I2C_Master_ISR_DMA+0x32>
 8004350:	0688      	lsls	r0, r1, #26
 8004352:	d59e      	bpl.n	8004292 <I2C_Master_ISR_DMA+0x32>
 8004354:	0693      	lsls	r3, r2, #26
 8004356:	d59c      	bpl.n	8004292 <I2C_Master_ISR_DMA+0x32>
 8004358:	4620      	mov	r0, r4
 800435a:	f7ff fe75 	bl	8004048 <I2C_ITMasterCplt>
 800435e:	e798      	b.n	8004292 <I2C_Master_ISR_DMA+0x32>
 8004360:	2002      	movs	r0, #2
 8004362:	e799      	b.n	8004298 <I2C_Master_ISR_DMA+0x38>

08004364 <I2C_DMAError>:
 8004364:	b538      	push	{r3, r4, r5, lr}
 8004366:	6b85      	ldr	r5, [r0, #56]	@ 0x38
 8004368:	6bac      	ldr	r4, [r5, #56]	@ 0x38
 800436a:	b354      	cbz	r4, 80043c2 <I2C_DMAError+0x5e>
 800436c:	6823      	ldr	r3, [r4, #0]
 800436e:	4a35      	ldr	r2, [pc, #212]	@ (8004444 <I2C_DMAError+0xe0>)
 8004370:	4293      	cmp	r3, r2
 8004372:	d021      	beq.n	80043b8 <I2C_DMAError+0x54>
 8004374:	3218      	adds	r2, #24
 8004376:	4293      	cmp	r3, r2
 8004378:	d01e      	beq.n	80043b8 <I2C_DMAError+0x54>
 800437a:	3218      	adds	r2, #24
 800437c:	4293      	cmp	r3, r2
 800437e:	d01b      	beq.n	80043b8 <I2C_DMAError+0x54>
 8004380:	3218      	adds	r2, #24
 8004382:	4293      	cmp	r3, r2
 8004384:	d018      	beq.n	80043b8 <I2C_DMAError+0x54>
 8004386:	3218      	adds	r2, #24
 8004388:	4293      	cmp	r3, r2
 800438a:	d015      	beq.n	80043b8 <I2C_DMAError+0x54>
 800438c:	3218      	adds	r2, #24
 800438e:	4293      	cmp	r3, r2
 8004390:	d012      	beq.n	80043b8 <I2C_DMAError+0x54>
 8004392:	3218      	adds	r2, #24
 8004394:	4293      	cmp	r3, r2
 8004396:	d00f      	beq.n	80043b8 <I2C_DMAError+0x54>
 8004398:	3218      	adds	r2, #24
 800439a:	4293      	cmp	r3, r2
 800439c:	d00c      	beq.n	80043b8 <I2C_DMAError+0x54>
 800439e:	f502 7256 	add.w	r2, r2, #856	@ 0x358
 80043a2:	4293      	cmp	r3, r2
 80043a4:	d008      	beq.n	80043b8 <I2C_DMAError+0x54>
 80043a6:	3218      	adds	r2, #24
 80043a8:	4293      	cmp	r3, r2
 80043aa:	d005      	beq.n	80043b8 <I2C_DMAError+0x54>
 80043ac:	3218      	adds	r2, #24
 80043ae:	4293      	cmp	r3, r2
 80043b0:	d002      	beq.n	80043b8 <I2C_DMAError+0x54>
 80043b2:	3218      	adds	r2, #24
 80043b4:	4293      	cmp	r3, r2
 80043b6:	d0ff      	beq.n	80043b8 <I2C_DMAError+0x54>
 80043b8:	685b      	ldr	r3, [r3, #4]
 80043ba:	fab3 f383 	clz	r3, r3
 80043be:	095b      	lsrs	r3, r3, #5
 80043c0:	461c      	mov	r4, r3
 80043c2:	6beb      	ldr	r3, [r5, #60]	@ 0x3c
 80043c4:	b363      	cbz	r3, 8004420 <I2C_DMAError+0xbc>
 80043c6:	681b      	ldr	r3, [r3, #0]
 80043c8:	4a1e      	ldr	r2, [pc, #120]	@ (8004444 <I2C_DMAError+0xe0>)
 80043ca:	4293      	cmp	r3, r2
 80043cc:	d021      	beq.n	8004412 <I2C_DMAError+0xae>
 80043ce:	3218      	adds	r2, #24
 80043d0:	4293      	cmp	r3, r2
 80043d2:	d01e      	beq.n	8004412 <I2C_DMAError+0xae>
 80043d4:	3218      	adds	r2, #24
 80043d6:	4293      	cmp	r3, r2
 80043d8:	d01b      	beq.n	8004412 <I2C_DMAError+0xae>
 80043da:	3218      	adds	r2, #24
 80043dc:	4293      	cmp	r3, r2
 80043de:	d018      	beq.n	8004412 <I2C_DMAError+0xae>
 80043e0:	3218      	adds	r2, #24
 80043e2:	4293      	cmp	r3, r2
 80043e4:	d015      	beq.n	8004412 <I2C_DMAError+0xae>
 80043e6:	3218      	adds	r2, #24
 80043e8:	4293      	cmp	r3, r2
 80043ea:	d012      	beq.n	8004412 <I2C_DMAError+0xae>
 80043ec:	3218      	adds	r2, #24
 80043ee:	4293      	cmp	r3, r2
 80043f0:	d00f      	beq.n	8004412 <I2C_DMAError+0xae>
 80043f2:	3218      	adds	r2, #24
 80043f4:	4293      	cmp	r3, r2
 80043f6:	d00c      	beq.n	8004412 <I2C_DMAError+0xae>
 80043f8:	f502 7256 	add.w	r2, r2, #856	@ 0x358
 80043fc:	4293      	cmp	r3, r2
 80043fe:	d008      	beq.n	8004412 <I2C_DMAError+0xae>
 8004400:	3218      	adds	r2, #24
 8004402:	4293      	cmp	r3, r2
 8004404:	d005      	beq.n	8004412 <I2C_DMAError+0xae>
 8004406:	3218      	adds	r2, #24
 8004408:	4293      	cmp	r3, r2
 800440a:	d002      	beq.n	8004412 <I2C_DMAError+0xae>
 800440c:	3218      	adds	r2, #24
 800440e:	4293      	cmp	r3, r2
 8004410:	d0ff      	beq.n	8004412 <I2C_DMAError+0xae>
 8004412:	685b      	ldr	r3, [r3, #4]
 8004414:	fab3 f383 	clz	r3, r3
 8004418:	095b      	lsrs	r3, r3, #5
 800441a:	2b00      	cmp	r3, #0
 800441c:	bf18      	it	ne
 800441e:	2401      	movne	r4, #1
 8004420:	f7ff fa35 	bl	800388e <HAL_DMA_GetError>
 8004424:	2802      	cmp	r0, #2
 8004426:	d00b      	beq.n	8004440 <I2C_DMAError+0xdc>
 8004428:	b154      	cbz	r4, 8004440 <I2C_DMAError+0xdc>
 800442a:	682a      	ldr	r2, [r5, #0]
 800442c:	4628      	mov	r0, r5
 800442e:	2110      	movs	r1, #16
 8004430:	6853      	ldr	r3, [r2, #4]
 8004432:	f443 4300 	orr.w	r3, r3, #32768	@ 0x8000
 8004436:	6053      	str	r3, [r2, #4]
 8004438:	e8bd 4038 	ldmia.w	sp!, {r3, r4, r5, lr}
 800443c:	f7ff bd80 	b.w	8003f40 <I2C_ITError>
 8004440:	bd38      	pop	{r3, r4, r5, pc}
 8004442:	bf00      	nop
 8004444:	40020010 	.word	0x40020010

08004448 <I2C_DMAMasterTransmitCplt>:
 8004448:	b510      	push	{r4, lr}
 800444a:	6b84      	ldr	r4, [r0, #56]	@ 0x38
 800444c:	6822      	ldr	r2, [r4, #0]
 800444e:	6813      	ldr	r3, [r2, #0]
 8004450:	f423 4380 	bic.w	r3, r3, #16384	@ 0x4000
 8004454:	6013      	str	r3, [r2, #0]
 8004456:	8d63      	ldrh	r3, [r4, #42]	@ 0x2a
 8004458:	b29b      	uxth	r3, r3
 800445a:	b92b      	cbnz	r3, 8004468 <I2C_DMAMasterTransmitCplt+0x20>
 800445c:	2120      	movs	r1, #32
 800445e:	4620      	mov	r0, r4
 8004460:	e8bd 4010 	ldmia.w	sp!, {r4, lr}
 8004464:	f7ff bb30 	b.w	8003ac8 <I2C_Enable_IRQ>
 8004468:	8d23      	ldrh	r3, [r4, #40]	@ 0x28
 800446a:	6a61      	ldr	r1, [r4, #36]	@ 0x24
 800446c:	4419      	add	r1, r3
 800446e:	8d63      	ldrh	r3, [r4, #42]	@ 0x2a
 8004470:	b29b      	uxth	r3, r3
 8004472:	6261      	str	r1, [r4, #36]	@ 0x24
 8004474:	2bff      	cmp	r3, #255	@ 0xff
 8004476:	d80d      	bhi.n	8004494 <I2C_DMAMasterTransmitCplt+0x4c>
 8004478:	8d63      	ldrh	r3, [r4, #42]	@ 0x2a
 800447a:	b29b      	uxth	r3, r3
 800447c:	3228      	adds	r2, #40	@ 0x28
 800447e:	6ba0      	ldr	r0, [r4, #56]	@ 0x38
 8004480:	8523      	strh	r3, [r4, #40]	@ 0x28
 8004482:	f7fe fc0d 	bl	8002ca0 <HAL_DMA_Start_IT>
 8004486:	b138      	cbz	r0, 8004498 <I2C_DMAMasterTransmitCplt+0x50>
 8004488:	4620      	mov	r0, r4
 800448a:	2110      	movs	r1, #16
 800448c:	e8bd 4010 	ldmia.w	sp!, {r4, lr}
 8004490:	f7ff bd56 	b.w	8003f40 <I2C_ITError>
 8004494:	23ff      	movs	r3, #255	@ 0xff
 8004496:	e7f1      	b.n	800447c <I2C_DMAMasterTransmitCplt+0x34>
 8004498:	2140      	movs	r1, #64	@ 0x40
 800449a:	e7e0      	b.n	800445e <I2C_DMAMasterTransmitCplt+0x16>

0800449c <HAL_I2C_ER_IRQHandler>:
 800449c:	6803      	ldr	r3, [r0, #0]
 800449e:	6999      	ldr	r1, [r3, #24]
 80044a0:	681a      	ldr	r2, [r3, #0]
 80044a2:	b410      	push	{r4}
 80044a4:	05cc      	lsls	r4, r1, #23
 80044a6:	d508      	bpl.n	80044ba <HAL_I2C_ER_IRQHandler+0x1e>
 80044a8:	0614      	lsls	r4, r2, #24
 80044aa:	d506      	bpl.n	80044ba <HAL_I2C_ER_IRQHandler+0x1e>
 80044ac:	6c44      	ldr	r4, [r0, #68]	@ 0x44
 80044ae:	f044 0401 	orr.w	r4, r4, #1
 80044b2:	6444      	str	r4, [r0, #68]	@ 0x44
 80044b4:	f44f 7480 	mov.w	r4, #256	@ 0x100
 80044b8:	61dc      	str	r4, [r3, #28]
 80044ba:	054c      	lsls	r4, r1, #21
 80044bc:	d508      	bpl.n	80044d0 <HAL_I2C_ER_IRQHandler+0x34>
 80044be:	0614      	lsls	r4, r2, #24
 80044c0:	d506      	bpl.n	80044d0 <HAL_I2C_ER_IRQHandler+0x34>
 80044c2:	6c44      	ldr	r4, [r0, #68]	@ 0x44
 80044c4:	f044 0408 	orr.w	r4, r4, #8
 80044c8:	6444      	str	r4, [r0, #68]	@ 0x44
 80044ca:	f44f 6480 	mov.w	r4, #1024	@ 0x400
 80044ce:	61dc      	str	r4, [r3, #28]
 80044d0:	0589      	lsls	r1, r1, #22
 80044d2:	d508      	bpl.n	80044e6 <HAL_I2C_ER_IRQHandler+0x4a>
 80044d4:	0612      	lsls	r2, r2, #24
 80044d6:	d506      	bpl.n	80044e6 <HAL_I2C_ER_IRQHandler+0x4a>
 80044d8:	6c42      	ldr	r2, [r0, #68]	@ 0x44
 80044da:	f042 0202 	orr.w	r2, r2, #2
 80044de:	6442      	str	r2, [r0, #68]	@ 0x44
 80044e0:	f44f 7200 	mov.w	r2, #512	@ 0x200
 80044e4:	61da      	str	r2, [r3, #28]
 80044e6:	6c41      	ldr	r1, [r0, #68]	@ 0x44
 80044e8:	f011 0f0b 	tst.w	r1, #11
 80044ec:	d003      	beq.n	80044f6 <HAL_I2C_ER_IRQHandler+0x5a>
 80044ee:	f85d 4b04 	ldr.w	r4, [sp], #4
 80044f2:	f7ff bd25 	b.w	8003f40 <I2C_ITError>
 80044f6:	f85d 4b04 	ldr.w	r4, [sp], #4
 80044fa:	4770      	bx	lr

080044fc <I2C_ITSlaveCplt.constprop.0>:
 80044fc:	e92d 41f0 	stmdb	sp!, {r4, r5, r6, r7, r8, lr}
 8004500:	6805      	ldr	r5, [r0, #0]
 8004502:	460e      	mov	r6, r1
 8004504:	2120      	movs	r1, #32
 8004506:	4604      	mov	r4, r0
 8004508:	f8d5 8000 	ldr.w	r8, [r5]
 800450c:	6ac7      	ldr	r7, [r0, #44]	@ 0x2c
 800450e:	f890 2041 	ldrb.w	r2, [r0, #65]	@ 0x41
 8004512:	61e9      	str	r1, [r5, #28]
 8004514:	2a21      	cmp	r2, #33	@ 0x21
 8004516:	b2d3      	uxtb	r3, r2
 8004518:	d009      	beq.n	800452e <I2C_ITSlaveCplt.constprop.0+0x32>
 800451a:	3b22      	subs	r3, #34	@ 0x22
 800451c:	2b08      	cmp	r3, #8
 800451e:	d80d      	bhi.n	800453c <I2C_ITSlaveCplt.constprop.0+0x40>
 8004520:	e8df f003 	tbb	[pc, r3]
 8004524:	0c0c0c8e 	.word	0x0c0c0c8e
 8004528:	05940c0c 	.word	0x05940c0c
 800452c:	8e          	.byte	0x8e
 800452d:	00          	.byte	0x00
 800452e:	f248 0101 	movw	r1, #32769	@ 0x8001
 8004532:	4620      	mov	r0, r4
 8004534:	f7ff fb0c 	bl	8003b50 <I2C_Disable_IRQ>
 8004538:	2321      	movs	r3, #33	@ 0x21
 800453a:	6323      	str	r3, [r4, #48]	@ 0x30
 800453c:	686b      	ldr	r3, [r5, #4]
 800453e:	4620      	mov	r0, r4
 8004540:	f443 4300 	orr.w	r3, r3, #32768	@ 0x8000
 8004544:	606b      	str	r3, [r5, #4]
 8004546:	686b      	ldr	r3, [r5, #4]
 8004548:	f023 73ff 	bic.w	r3, r3, #33423360	@ 0x1fe0000
 800454c:	f423 338b 	bic.w	r3, r3, #71168	@ 0x11600
 8004550:	f423 73ff 	bic.w	r3, r3, #510	@ 0x1fe
 8004554:	f023 0301 	bic.w	r3, r3, #1
 8004558:	606b      	str	r3, [r5, #4]
 800455a:	f7ff fa91 	bl	8003a80 <I2C_Flush_TXDR>
 800455e:	f418 4f80 	tst.w	r8, #16384	@ 0x4000
 8004562:	d079      	beq.n	8004658 <I2C_ITSlaveCplt.constprop.0+0x15c>
 8004564:	682b      	ldr	r3, [r5, #0]
 8004566:	f423 4380 	bic.w	r3, r3, #16384	@ 0x4000
 800456a:	602b      	str	r3, [r5, #0]
 800456c:	6ba3      	ldr	r3, [r4, #56]	@ 0x38
 800456e:	b32b      	cbz	r3, 80045bc <I2C_ITSlaveCplt.constprop.0+0xc0>
 8004570:	681b      	ldr	r3, [r3, #0]
 8004572:	4a61      	ldr	r2, [pc, #388]	@ (80046f8 <I2C_ITSlaveCplt.constprop.0+0x1fc>)
 8004574:	4293      	cmp	r3, r2
 8004576:	d01e      	beq.n	80045b6 <I2C_ITSlaveCplt.constprop.0+0xba>
 8004578:	3218      	adds	r2, #24
 800457a:	4293      	cmp	r3, r2
 800457c:	d01b      	beq.n	80045b6 <I2C_ITSlaveCplt.constprop.0+0xba>
 800457e:	3218      	adds	r2, #24
 8004580:	4293      	cmp	r3, r2
 8004582:	d018      	beq.n	80045b6 <I2C_ITSlaveCplt.constprop.0+0xba>
 8004584:	3218      	adds	r2, #24
 8004586:	4293      	cmp	r3, r2
 8004588:	d015      	beq.n	80045b6 <I2C_ITSlaveCplt.constprop.0+0xba>
 800458a:	3218      	adds	r2, #24
 800458c:	4293      	cmp	r3, r2
 800458e:	d012      	beq.n	80045b6 <I2C_ITSlaveCplt.constprop.0+0xba>
 8004590:	3218      	adds	r2, #24
 8004592:	4293      	cmp	r3, r2
 8004594:	d00f      	beq.n	80045b6 <I2C_ITSlaveCplt.constprop.0+0xba>
 8004596:	3218      	adds	r2, #24
 8004598:	4293      	cmp	r3, r2
 800459a:	d00c      	beq.n	80045b6 <I2C_ITSlaveCplt.constprop.0+0xba>
 800459c:	3218      	adds	r2, #24
 800459e:	4293      	cmp	r3, r2
 80045a0:	d009      	beq.n	80045b6 <I2C_ITSlaveCplt.constprop.0+0xba>
 80045a2:	f502 7256 	add.w	r2, r2, #856	@ 0x358
 80045a6:	4293      	cmp	r3, r2
 80045a8:	d005      	beq.n	80045b6 <I2C_ITSlaveCplt.constprop.0+0xba>
 80045aa:	3218      	adds	r2, #24
 80045ac:	4293      	cmp	r3, r2
 80045ae:	d002      	beq.n	80045b6 <I2C_ITSlaveCplt.constprop.0+0xba>
 80045b0:	3218      	adds	r2, #24
 80045b2:	4293      	cmp	r3, r2
 80045b4:	d0ff      	beq.n	80045b6 <I2C_ITSlaveCplt.constprop.0+0xba>
 80045b6:	685b      	ldr	r3, [r3, #4]
 80045b8:	b29b      	uxth	r3, r3
 80045ba:	8563      	strh	r3, [r4, #42]	@ 0x2a
 80045bc:	0772      	lsls	r2, r6, #29
 80045be:	d50f      	bpl.n	80045e0 <I2C_ITSlaveCplt.constprop.0+0xe4>
 80045c0:	6a63      	ldr	r3, [r4, #36]	@ 0x24
 80045c2:	6a6a      	ldr	r2, [r5, #36]	@ 0x24
 80045c4:	701a      	strb	r2, [r3, #0]
 80045c6:	6a63      	ldr	r3, [r4, #36]	@ 0x24
 80045c8:	3301      	adds	r3, #1
 80045ca:	6263      	str	r3, [r4, #36]	@ 0x24
 80045cc:	8d23      	ldrh	r3, [r4, #40]	@ 0x28
 80045ce:	b12b      	cbz	r3, 80045dc <I2C_ITSlaveCplt.constprop.0+0xe0>
 80045d0:	3b01      	subs	r3, #1
 80045d2:	8523      	strh	r3, [r4, #40]	@ 0x28
 80045d4:	8d63      	ldrh	r3, [r4, #42]	@ 0x2a
 80045d6:	3b01      	subs	r3, #1
 80045d8:	b29b      	uxth	r3, r3
 80045da:	8563      	strh	r3, [r4, #42]	@ 0x2a
 80045dc:	f026 0604 	bic.w	r6, r6, #4
 80045e0:	8d63      	ldrh	r3, [r4, #42]	@ 0x2a
 80045e2:	b29b      	uxth	r3, r3
 80045e4:	b11b      	cbz	r3, 80045ee <I2C_ITSlaveCplt.constprop.0+0xf2>
 80045e6:	6c63      	ldr	r3, [r4, #68]	@ 0x44
 80045e8:	f043 0304 	orr.w	r3, r3, #4
 80045ec:	6463      	str	r3, [r4, #68]	@ 0x44
 80045ee:	06f3      	lsls	r3, r6, #27
 80045f0:	d511      	bpl.n	8004616 <I2C_ITSlaveCplt.constprop.0+0x11a>
 80045f2:	f018 0f10 	tst.w	r8, #16
 80045f6:	d00e      	beq.n	8004616 <I2C_ITSlaveCplt.constprop.0+0x11a>
 80045f8:	8d63      	ldrh	r3, [r4, #42]	@ 0x2a
 80045fa:	b29b      	uxth	r3, r3
 80045fc:	2b00      	cmp	r3, #0
 80045fe:	d145      	bne.n	800468c <I2C_ITSlaveCplt.constprop.0+0x190>
 8004600:	f894 3041 	ldrb.w	r3, [r4, #65]	@ 0x41
 8004604:	2b28      	cmp	r3, #40	@ 0x28
 8004606:	d130      	bne.n	800466a <I2C_ITSlaveCplt.constprop.0+0x16e>
 8004608:	f1b7 7f00 	cmp.w	r7, #33554432	@ 0x2000000
 800460c:	d12d      	bne.n	800466a <I2C_ITSlaveCplt.constprop.0+0x16e>
 800460e:	4631      	mov	r1, r6
 8004610:	4620      	mov	r0, r4
 8004612:	f7ff fc4b 	bl	8003eac <I2C_ITListenCplt>
 8004616:	2300      	movs	r3, #0
 8004618:	f884 3042 	strb.w	r3, [r4, #66]	@ 0x42
 800461c:	6c65      	ldr	r5, [r4, #68]	@ 0x44
 800461e:	6363      	str	r3, [r4, #52]	@ 0x34
 8004620:	2d00      	cmp	r5, #0
 8004622:	d042      	beq.n	80046aa <I2C_ITSlaveCplt.constprop.0+0x1ae>
 8004624:	6c61      	ldr	r1, [r4, #68]	@ 0x44
 8004626:	4620      	mov	r0, r4
 8004628:	f7ff fc8a 	bl	8003f40 <I2C_ITError>
 800462c:	f894 3041 	ldrb.w	r3, [r4, #65]	@ 0x41
 8004630:	2b28      	cmp	r3, #40	@ 0x28
 8004632:	d14c      	bne.n	80046ce <I2C_ITSlaveCplt.constprop.0+0x1d2>
 8004634:	4631      	mov	r1, r6
 8004636:	4620      	mov	r0, r4
 8004638:	e8bd 41f0 	ldmia.w	sp!, {r4, r5, r6, r7, r8, lr}
 800463c:	f7ff bc36 	b.w	8003eac <I2C_ITListenCplt>
 8004640:	f248 0102 	movw	r1, #32770	@ 0x8002
 8004644:	f7ff fa84 	bl	8003b50 <I2C_Disable_IRQ>
 8004648:	2322      	movs	r3, #34	@ 0x22
 800464a:	e776      	b.n	800453a <I2C_ITSlaveCplt.constprop.0+0x3e>
 800464c:	f248 0103 	movw	r1, #32771	@ 0x8003
 8004650:	f7ff fa7e 	bl	8003b50 <I2C_Disable_IRQ>
 8004654:	2300      	movs	r3, #0
 8004656:	e770      	b.n	800453a <I2C_ITSlaveCplt.constprop.0+0x3e>
 8004658:	f418 4f00 	tst.w	r8, #32768	@ 0x8000
 800465c:	d0ae      	beq.n	80045bc <I2C_ITSlaveCplt.constprop.0+0xc0>
 800465e:	682b      	ldr	r3, [r5, #0]
 8004660:	f423 4300 	bic.w	r3, r3, #32768	@ 0x8000
 8004664:	602b      	str	r3, [r5, #0]
 8004666:	6be3      	ldr	r3, [r4, #60]	@ 0x3c
 8004668:	e781      	b.n	800456e <I2C_ITSlaveCplt.constprop.0+0x72>
 800466a:	f894 2041 	ldrb.w	r2, [r4, #65]	@ 0x41
 800466e:	6823      	ldr	r3, [r4, #0]
 8004670:	2a29      	cmp	r2, #41	@ 0x29
 8004672:	f04f 0210 	mov.w	r2, #16
 8004676:	61da      	str	r2, [r3, #28]
 8004678:	d1cd      	bne.n	8004616 <I2C_ITSlaveCplt.constprop.0+0x11a>
 800467a:	f517 3f80 	cmn.w	r7, #65536	@ 0x10000
 800467e:	d0ca      	beq.n	8004616 <I2C_ITSlaveCplt.constprop.0+0x11a>
 8004680:	4620      	mov	r0, r4
 8004682:	f7ff f9fd 	bl	8003a80 <I2C_Flush_TXDR>
 8004686:	f7ff fb94 	bl	8003db2 <I2C_ITSlaveSeqCplt>
 800468a:	e7c4      	b.n	8004616 <I2C_ITSlaveCplt.constprop.0+0x11a>
 800468c:	6823      	ldr	r3, [r4, #0]
 800468e:	2210      	movs	r2, #16
 8004690:	61da      	str	r2, [r3, #28]
 8004692:	6c63      	ldr	r3, [r4, #68]	@ 0x44
 8004694:	f043 0304 	orr.w	r3, r3, #4
 8004698:	6463      	str	r3, [r4, #68]	@ 0x44
 800469a:	f037 7380 	bics.w	r3, r7, #16777216	@ 0x1000000
 800469e:	d1ba      	bne.n	8004616 <I2C_ITSlaveCplt.constprop.0+0x11a>
 80046a0:	6c61      	ldr	r1, [r4, #68]	@ 0x44
 80046a2:	4620      	mov	r0, r4
 80046a4:	f7ff fc4c 	bl	8003f40 <I2C_ITError>
 80046a8:	e7b5      	b.n	8004616 <I2C_ITSlaveCplt.constprop.0+0x11a>
 80046aa:	6ae3      	ldr	r3, [r4, #44]	@ 0x2c
 80046ac:	f513 3f80 	cmn.w	r3, #65536	@ 0x10000
 80046b0:	d00f      	beq.n	80046d2 <I2C_ITSlaveCplt.constprop.0+0x1d6>
 80046b2:	4620      	mov	r0, r4
 80046b4:	f7ff fb7d 	bl	8003db2 <I2C_ITSlaveSeqCplt>
 80046b8:	4b10      	ldr	r3, [pc, #64]	@ (80046fc <I2C_ITSlaveCplt.constprop.0+0x200>)
 80046ba:	4620      	mov	r0, r4
 80046bc:	f884 5040 	strb.w	r5, [r4, #64]	@ 0x40
 80046c0:	62e3      	str	r3, [r4, #44]	@ 0x2c
 80046c2:	2320      	movs	r3, #32
 80046c4:	f884 3041 	strb.w	r3, [r4, #65]	@ 0x41
 80046c8:	6325      	str	r5, [r4, #48]	@ 0x30
 80046ca:	f7ff fbed 	bl	8003ea8 <HAL_I2C_ListenCpltCallback>
 80046ce:	e8bd 81f0 	ldmia.w	sp!, {r4, r5, r6, r7, r8, pc}
 80046d2:	f894 3041 	ldrb.w	r3, [r4, #65]	@ 0x41
 80046d6:	4620      	mov	r0, r4
 80046d8:	f884 5040 	strb.w	r5, [r4, #64]	@ 0x40
 80046dc:	2b22      	cmp	r3, #34	@ 0x22
 80046de:	f04f 0320 	mov.w	r3, #32
 80046e2:	f884 3041 	strb.w	r3, [r4, #65]	@ 0x41
 80046e6:	6325      	str	r5, [r4, #48]	@ 0x30
 80046e8:	d102      	bne.n	80046f0 <I2C_ITSlaveCplt.constprop.0+0x1f4>
 80046ea:	f7ff fb61 	bl	8003db0 <HAL_I2C_SlaveRxCpltCallback>
 80046ee:	e7ee      	b.n	80046ce <I2C_ITSlaveCplt.constprop.0+0x1d2>
 80046f0:	f7ff fb5d 	bl	8003dae <HAL_I2C_SlaveTxCpltCallback>
 80046f4:	e7eb      	b.n	80046ce <I2C_ITSlaveCplt.constprop.0+0x1d2>
 80046f6:	bf00      	nop
 80046f8:	40020010 	.word	0x40020010
 80046fc:	ffff0000 	.word	0xffff0000

08004700 <I2C_Slave_ISR_DMA>:
 8004700:	b570      	push	{r4, r5, r6, lr}
 8004702:	f890 3040 	ldrb.w	r3, [r0, #64]	@ 0x40
 8004706:	4604      	mov	r4, r0
 8004708:	460d      	mov	r5, r1
 800470a:	6ac6      	ldr	r6, [r0, #44]	@ 0x2c
 800470c:	2b01      	cmp	r3, #1
 800470e:	f000 80bf 	beq.w	8004890 <I2C_Slave_ISR_DMA+0x190>
 8004712:	2301      	movs	r3, #1
 8004714:	f880 3040 	strb.w	r3, [r0, #64]	@ 0x40
 8004718:	068b      	lsls	r3, r1, #26
 800471a:	d507      	bpl.n	800472c <I2C_Slave_ISR_DMA+0x2c>
 800471c:	0693      	lsls	r3, r2, #26
 800471e:	d505      	bpl.n	800472c <I2C_Slave_ISR_DMA+0x2c>
 8004720:	f7ff feec 	bl	80044fc <I2C_ITSlaveCplt.constprop.0>
 8004724:	2000      	movs	r0, #0
 8004726:	f884 0040 	strb.w	r0, [r4, #64]	@ 0x40
 800472a:	bd70      	pop	{r4, r5, r6, pc}
 800472c:	06e8      	lsls	r0, r5, #27
 800472e:	f140 80a5 	bpl.w	800487c <I2C_Slave_ISR_DMA+0x17c>
 8004732:	06d1      	lsls	r1, r2, #27
 8004734:	f140 80a2 	bpl.w	800487c <I2C_Slave_ISR_DMA+0x17c>
 8004738:	f412 4f40 	tst.w	r2, #49152	@ 0xc000
 800473c:	f000 809a 	beq.w	8004874 <I2C_Slave_ISR_DMA+0x174>
 8004740:	6be3      	ldr	r3, [r4, #60]	@ 0x3c
 8004742:	b34b      	cbz	r3, 8004798 <I2C_Slave_ISR_DMA+0x98>
 8004744:	f412 4000 	ands.w	r0, r2, #32768	@ 0x8000
 8004748:	d027      	beq.n	800479a <I2C_Slave_ISR_DMA+0x9a>
 800474a:	681b      	ldr	r3, [r3, #0]
 800474c:	4951      	ldr	r1, [pc, #324]	@ (8004894 <I2C_Slave_ISR_DMA+0x194>)
 800474e:	428b      	cmp	r3, r1
 8004750:	d01e      	beq.n	8004790 <I2C_Slave_ISR_DMA+0x90>
 8004752:	3118      	adds	r1, #24
 8004754:	428b      	cmp	r3, r1
 8004756:	d01b      	beq.n	8004790 <I2C_Slave_ISR_DMA+0x90>
 8004758:	3118      	adds	r1, #24
 800475a:	428b      	cmp	r3, r1
 800475c:	d018      	beq.n	8004790 <I2C_Slave_ISR_DMA+0x90>
 800475e:	3118      	adds	r1, #24
 8004760:	428b      	cmp	r3, r1
 8004762:	d015      	beq.n	8004790 <I2C_Slave_ISR_DMA+0x90>
 8004764:	3118      	adds	r1, #24
 8004766:	428b      	cmp	r3, r1
 8004768:	d012      	beq.n	8004790 <I2C_Slave_ISR_DMA+0x90>
 800476a:	3118      	adds	r1, #24
 800476c:	428b      	cmp	r3, r1
 800476e:	d00f      	beq.n	8004790 <I2C_Slave_ISR_DMA+0x90>
 8004770:	3118      	adds	r1, #24
 8004772:	428b      	cmp	r3, r1
 8004774:	d00c      	beq.n	8004790 <I2C_Slave_ISR_DMA+0x90>
 8004776:	3118      	adds	r1, #24
 8004778:	428b      	cmp	r3, r1
 800477a:	d009      	beq.n	8004790 <I2C_Slave_ISR_DMA+0x90>
 800477c:	f501 7156 	add.w	r1, r1, #856	@ 0x358
 8004780:	428b      	cmp	r3, r1
 8004782:	d005      	beq.n	8004790 <I2C_Slave_ISR_DMA+0x90>
 8004784:	3118      	adds	r1, #24
 8004786:	428b      	cmp	r3, r1
 8004788:	d002      	beq.n	8004790 <I2C_Slave_ISR_DMA+0x90>
 800478a:	3118      	adds	r1, #24
 800478c:	428b      	cmp	r3, r1
 800478e:	d0ff      	beq.n	8004790 <I2C_Slave_ISR_DMA+0x90>
 8004790:	685b      	ldr	r3, [r3, #4]
 8004792:	fab3 f383 	clz	r3, r3
 8004796:	095b      	lsrs	r3, r3, #5
 8004798:	4618      	mov	r0, r3
 800479a:	6ba3      	ldr	r3, [r4, #56]	@ 0x38
 800479c:	b34b      	cbz	r3, 80047f2 <I2C_Slave_ISR_DMA+0xf2>
 800479e:	0452      	lsls	r2, r2, #17
 80047a0:	d527      	bpl.n	80047f2 <I2C_Slave_ISR_DMA+0xf2>
 80047a2:	681b      	ldr	r3, [r3, #0]
 80047a4:	4a3b      	ldr	r2, [pc, #236]	@ (8004894 <I2C_Slave_ISR_DMA+0x194>)
 80047a6:	4293      	cmp	r3, r2
 80047a8:	d01e      	beq.n	80047e8 <I2C_Slave_ISR_DMA+0xe8>
 80047aa:	3218      	adds	r2, #24
 80047ac:	4293      	cmp	r3, r2
 80047ae:	d01b      	beq.n	80047e8 <I2C_Slave_ISR_DMA+0xe8>
 80047b0:	3218      	adds	r2, #24
 80047b2:	4293      	cmp	r3, r2
 80047b4:	d018      	beq.n	80047e8 <I2C_Slave_ISR_DMA+0xe8>
 80047b6:	3218      	adds	r2, #24
 80047b8:	4293      	cmp	r3, r2
 80047ba:	d015      	beq.n	80047e8 <I2C_Slave_ISR_DMA+0xe8>
 80047bc:	3218      	adds	r2, #24
 80047be:	4293      	cmp	r3, r2
 80047c0:	d012      	beq.n	80047e8 <I2C_Slave_ISR_DMA+0xe8>
 80047c2:	3218      	adds	r2, #24
 80047c4:	4293      	cmp	r3, r2
 80047c6:	d00f      	beq.n	80047e8 <I2C_Slave_ISR_DMA+0xe8>
 80047c8:	3218      	adds	r2, #24
 80047ca:	4293      	cmp	r3, r2
 80047cc:	d00c      	beq.n	80047e8 <I2C_Slave_ISR_DMA+0xe8>
 80047ce:	3218      	adds	r2, #24
 80047d0:	4293      	cmp	r3, r2
 80047d2:	d009      	beq.n	80047e8 <I2C_Slave_ISR_DMA+0xe8>
 80047d4:	f502 7256 	add.w	r2, r2, #856	@ 0x358
 80047d8:	4293      	cmp	r3, r2
 80047da:	d005      	beq.n	80047e8 <I2C_Slave_ISR_DMA+0xe8>
 80047dc:	3218      	adds	r2, #24
 80047de:	4293      	cmp	r3, r2
 80047e0:	d002      	beq.n	80047e8 <I2C_Slave_ISR_DMA+0xe8>
 80047e2:	3218      	adds	r2, #24
 80047e4:	4293      	cmp	r3, r2
 80047e6:	d0ff      	beq.n	80047e8 <I2C_Slave_ISR_DMA+0xe8>
 80047e8:	685b      	ldr	r3, [r3, #4]
 80047ea:	fab3 f383 	clz	r3, r3
 80047ee:	095b      	lsrs	r3, r3, #5
 80047f0:	b90b      	cbnz	r3, 80047f6 <I2C_Slave_ISR_DMA+0xf6>
 80047f2:	2801      	cmp	r0, #1
 80047f4:	d11d      	bne.n	8004832 <I2C_Slave_ISR_DMA+0x132>
 80047f6:	f894 3041 	ldrb.w	r3, [r4, #65]	@ 0x41
 80047fa:	2b28      	cmp	r3, #40	@ 0x28
 80047fc:	d107      	bne.n	800480e <I2C_Slave_ISR_DMA+0x10e>
 80047fe:	f1b6 7f00 	cmp.w	r6, #33554432	@ 0x2000000
 8004802:	d104      	bne.n	800480e <I2C_Slave_ISR_DMA+0x10e>
 8004804:	4629      	mov	r1, r5
 8004806:	4620      	mov	r0, r4
 8004808:	f7ff fb50 	bl	8003eac <I2C_ITListenCplt>
 800480c:	e78a      	b.n	8004724 <I2C_Slave_ISR_DMA+0x24>
 800480e:	f894 2041 	ldrb.w	r2, [r4, #65]	@ 0x41
 8004812:	6823      	ldr	r3, [r4, #0]
 8004814:	2a29      	cmp	r2, #41	@ 0x29
 8004816:	f04f 0210 	mov.w	r2, #16
 800481a:	61da      	str	r2, [r3, #28]
 800481c:	d182      	bne.n	8004724 <I2C_Slave_ISR_DMA+0x24>
 800481e:	f516 3f80 	cmn.w	r6, #65536	@ 0x10000
 8004822:	f43f af7f 	beq.w	8004724 <I2C_Slave_ISR_DMA+0x24>
 8004826:	4620      	mov	r0, r4
 8004828:	f7ff f92a 	bl	8003a80 <I2C_Flush_TXDR>
 800482c:	f7ff fac1 	bl	8003db2 <I2C_ITSlaveSeqCplt>
 8004830:	e778      	b.n	8004724 <I2C_Slave_ISR_DMA+0x24>
 8004832:	6823      	ldr	r3, [r4, #0]
 8004834:	2210      	movs	r2, #16
 8004836:	61da      	str	r2, [r3, #28]
 8004838:	f036 7280 	bics.w	r2, r6, #16777216	@ 0x1000000
 800483c:	6c63      	ldr	r3, [r4, #68]	@ 0x44
 800483e:	f043 0304 	orr.w	r3, r3, #4
 8004842:	6463      	str	r3, [r4, #68]	@ 0x44
 8004844:	f894 3041 	ldrb.w	r3, [r4, #65]	@ 0x41
 8004848:	b2db      	uxtb	r3, r3
 800484a:	f47f af6b 	bne.w	8004724 <I2C_Slave_ISR_DMA+0x24>
 800484e:	3b21      	subs	r3, #33	@ 0x21
 8004850:	2b09      	cmp	r3, #9
 8004852:	d808      	bhi.n	8004866 <I2C_Slave_ISR_DMA+0x166>
 8004854:	e8df f003 	tbb	[pc, r3]
 8004858:	07070c05 	.word	0x07070c05
 800485c:	07070707 	.word	0x07070707
 8004860:	0c05      	.short	0x0c05
 8004862:	2321      	movs	r3, #33	@ 0x21
 8004864:	6323      	str	r3, [r4, #48]	@ 0x30
 8004866:	6c61      	ldr	r1, [r4, #68]	@ 0x44
 8004868:	4620      	mov	r0, r4
 800486a:	f7ff fb69 	bl	8003f40 <I2C_ITError>
 800486e:	e759      	b.n	8004724 <I2C_Slave_ISR_DMA+0x24>
 8004870:	2322      	movs	r3, #34	@ 0x22
 8004872:	e7f7      	b.n	8004864 <I2C_Slave_ISR_DMA+0x164>
 8004874:	6823      	ldr	r3, [r4, #0]
 8004876:	2210      	movs	r2, #16
 8004878:	61da      	str	r2, [r3, #28]
 800487a:	e753      	b.n	8004724 <I2C_Slave_ISR_DMA+0x24>
 800487c:	0729      	lsls	r1, r5, #28
 800487e:	f57f af51 	bpl.w	8004724 <I2C_Slave_ISR_DMA+0x24>
 8004882:	0713      	lsls	r3, r2, #28
 8004884:	f57f af4e 	bpl.w	8004724 <I2C_Slave_ISR_DMA+0x24>
 8004888:	4620      	mov	r0, r4
 800488a:	f7ff fac9 	bl	8003e20 <I2C_ITAddrCplt.constprop.0>
 800488e:	e749      	b.n	8004724 <I2C_Slave_ISR_DMA+0x24>
 8004890:	2002      	movs	r0, #2
 8004892:	e74a      	b.n	800472a <I2C_Slave_ISR_DMA+0x2a>
 8004894:	40020010 	.word	0x40020010

08004898 <I2C_Slave_ISR_IT>:
 8004898:	b570      	push	{r4, r5, r6, lr}
 800489a:	f890 6040 	ldrb.w	r6, [r0, #64]	@ 0x40
 800489e:	4604      	mov	r4, r0
 80048a0:	460b      	mov	r3, r1
 80048a2:	6ac5      	ldr	r5, [r0, #44]	@ 0x2c
 80048a4:	2e01      	cmp	r6, #1
 80048a6:	d07e      	beq.n	80049a6 <I2C_Slave_ISR_IT+0x10e>
 80048a8:	2601      	movs	r6, #1
 80048aa:	f880 6040 	strb.w	r6, [r0, #64]	@ 0x40
 80048ae:	068e      	lsls	r6, r1, #26
 80048b0:	d507      	bpl.n	80048c2 <I2C_Slave_ISR_IT+0x2a>
 80048b2:	0696      	lsls	r6, r2, #26
 80048b4:	d505      	bpl.n	80048c2 <I2C_Slave_ISR_IT+0x2a>
 80048b6:	f7ff fe21 	bl	80044fc <I2C_ITSlaveCplt.constprop.0>
 80048ba:	2000      	movs	r0, #0
 80048bc:	f884 0040 	strb.w	r0, [r4, #64]	@ 0x40
 80048c0:	bd70      	pop	{r4, r5, r6, pc}
 80048c2:	06d9      	lsls	r1, r3, #27
 80048c4:	d530      	bpl.n	8004928 <I2C_Slave_ISR_IT+0x90>
 80048c6:	06d6      	lsls	r6, r2, #27
 80048c8:	d52e      	bpl.n	8004928 <I2C_Slave_ISR_IT+0x90>
 80048ca:	8d62      	ldrh	r2, [r4, #42]	@ 0x2a
 80048cc:	b292      	uxth	r2, r2
 80048ce:	b9e2      	cbnz	r2, 800490a <I2C_Slave_ISR_IT+0x72>
 80048d0:	f894 2041 	ldrb.w	r2, [r4, #65]	@ 0x41
 80048d4:	2a28      	cmp	r2, #40	@ 0x28
 80048d6:	d107      	bne.n	80048e8 <I2C_Slave_ISR_IT+0x50>
 80048d8:	f1b5 7f00 	cmp.w	r5, #33554432	@ 0x2000000
 80048dc:	d104      	bne.n	80048e8 <I2C_Slave_ISR_IT+0x50>
 80048de:	4619      	mov	r1, r3
 80048e0:	4620      	mov	r0, r4
 80048e2:	f7ff fae3 	bl	8003eac <I2C_ITListenCplt>
 80048e6:	e7e8      	b.n	80048ba <I2C_Slave_ISR_IT+0x22>
 80048e8:	f894 2041 	ldrb.w	r2, [r4, #65]	@ 0x41
 80048ec:	6823      	ldr	r3, [r4, #0]
 80048ee:	2a29      	cmp	r2, #41	@ 0x29
 80048f0:	f04f 0210 	mov.w	r2, #16
 80048f4:	61da      	str	r2, [r3, #28]
 80048f6:	d1e0      	bne.n	80048ba <I2C_Slave_ISR_IT+0x22>
 80048f8:	f515 3f80 	cmn.w	r5, #65536	@ 0x10000
 80048fc:	d0dd      	beq.n	80048ba <I2C_Slave_ISR_IT+0x22>
 80048fe:	4620      	mov	r0, r4
 8004900:	f7ff f8be 	bl	8003a80 <I2C_Flush_TXDR>
 8004904:	f7ff fa55 	bl	8003db2 <I2C_ITSlaveSeqCplt>
 8004908:	e7d7      	b.n	80048ba <I2C_Slave_ISR_IT+0x22>
 800490a:	6823      	ldr	r3, [r4, #0]
 800490c:	2210      	movs	r2, #16
 800490e:	61da      	str	r2, [r3, #28]
 8004910:	6c63      	ldr	r3, [r4, #68]	@ 0x44
 8004912:	f043 0304 	orr.w	r3, r3, #4
 8004916:	6463      	str	r3, [r4, #68]	@ 0x44
 8004918:	f035 7380 	bics.w	r3, r5, #16777216	@ 0x1000000
 800491c:	d1cd      	bne.n	80048ba <I2C_Slave_ISR_IT+0x22>
 800491e:	6c61      	ldr	r1, [r4, #68]	@ 0x44
 8004920:	4620      	mov	r0, r4
 8004922:	f7ff fb0d 	bl	8003f40 <I2C_ITError>
 8004926:	e7c8      	b.n	80048ba <I2C_Slave_ISR_IT+0x22>
 8004928:	0758      	lsls	r0, r3, #29
 800492a:	d51b      	bpl.n	8004964 <I2C_Slave_ISR_IT+0xcc>
 800492c:	0751      	lsls	r1, r2, #29
 800492e:	d519      	bpl.n	8004964 <I2C_Slave_ISR_IT+0xcc>
 8004930:	8d63      	ldrh	r3, [r4, #42]	@ 0x2a
 8004932:	b29b      	uxth	r3, r3
 8004934:	b16b      	cbz	r3, 8004952 <I2C_Slave_ISR_IT+0xba>
 8004936:	6823      	ldr	r3, [r4, #0]
 8004938:	6a5a      	ldr	r2, [r3, #36]	@ 0x24
 800493a:	6a63      	ldr	r3, [r4, #36]	@ 0x24
 800493c:	701a      	strb	r2, [r3, #0]
 800493e:	6a63      	ldr	r3, [r4, #36]	@ 0x24
 8004940:	3301      	adds	r3, #1
 8004942:	6263      	str	r3, [r4, #36]	@ 0x24
 8004944:	8d23      	ldrh	r3, [r4, #40]	@ 0x28
 8004946:	3b01      	subs	r3, #1
 8004948:	8523      	strh	r3, [r4, #40]	@ 0x28
 800494a:	8d63      	ldrh	r3, [r4, #42]	@ 0x2a
 800494c:	3b01      	subs	r3, #1
 800494e:	b29b      	uxth	r3, r3
 8004950:	8563      	strh	r3, [r4, #42]	@ 0x2a
 8004952:	8d63      	ldrh	r3, [r4, #42]	@ 0x2a
 8004954:	b29b      	uxth	r3, r3
 8004956:	2b00      	cmp	r3, #0
 8004958:	d1af      	bne.n	80048ba <I2C_Slave_ISR_IT+0x22>
 800495a:	f515 3f80 	cmn.w	r5, #65536	@ 0x10000
 800495e:	d0ac      	beq.n	80048ba <I2C_Slave_ISR_IT+0x22>
 8004960:	4620      	mov	r0, r4
 8004962:	e7cf      	b.n	8004904 <I2C_Slave_ISR_IT+0x6c>
 8004964:	071e      	lsls	r6, r3, #28
 8004966:	d505      	bpl.n	8004974 <I2C_Slave_ISR_IT+0xdc>
 8004968:	0710      	lsls	r0, r2, #28
 800496a:	d503      	bpl.n	8004974 <I2C_Slave_ISR_IT+0xdc>
 800496c:	4620      	mov	r0, r4
 800496e:	f7ff fa57 	bl	8003e20 <I2C_ITAddrCplt.constprop.0>
 8004972:	e7a2      	b.n	80048ba <I2C_Slave_ISR_IT+0x22>
 8004974:	0799      	lsls	r1, r3, #30
 8004976:	d5a0      	bpl.n	80048ba <I2C_Slave_ISR_IT+0x22>
 8004978:	0793      	lsls	r3, r2, #30
 800497a:	d59e      	bpl.n	80048ba <I2C_Slave_ISR_IT+0x22>
 800497c:	8d63      	ldrh	r3, [r4, #42]	@ 0x2a
 800497e:	b29b      	uxth	r3, r3
 8004980:	b16b      	cbz	r3, 800499e <I2C_Slave_ISR_IT+0x106>
 8004982:	6a63      	ldr	r3, [r4, #36]	@ 0x24
 8004984:	6822      	ldr	r2, [r4, #0]
 8004986:	f813 1b01 	ldrb.w	r1, [r3], #1
 800498a:	6291      	str	r1, [r2, #40]	@ 0x28
 800498c:	6263      	str	r3, [r4, #36]	@ 0x24
 800498e:	8d63      	ldrh	r3, [r4, #42]	@ 0x2a
 8004990:	3b01      	subs	r3, #1
 8004992:	b29b      	uxth	r3, r3
 8004994:	8563      	strh	r3, [r4, #42]	@ 0x2a
 8004996:	8d23      	ldrh	r3, [r4, #40]	@ 0x28
 8004998:	3b01      	subs	r3, #1
 800499a:	8523      	strh	r3, [r4, #40]	@ 0x28
 800499c:	e78d      	b.n	80048ba <I2C_Slave_ISR_IT+0x22>
 800499e:	f035 7380 	bics.w	r3, r5, #16777216	@ 0x1000000
 80049a2:	d18a      	bne.n	80048ba <I2C_Slave_ISR_IT+0x22>
 80049a4:	e7dc      	b.n	8004960 <I2C_Slave_ISR_IT+0xc8>
 80049a6:	2002      	movs	r0, #2
 80049a8:	e78a      	b.n	80048c0 <I2C_Slave_ISR_IT+0x28>

080049aa <I2C_DMAAbort>:
 80049aa:	6b80      	ldr	r0, [r0, #56]	@ 0x38
 80049ac:	6b83      	ldr	r3, [r0, #56]	@ 0x38
 80049ae:	b10b      	cbz	r3, 80049b4 <I2C_DMAAbort+0xa>
 80049b0:	2200      	movs	r2, #0
 80049b2:	651a      	str	r2, [r3, #80]	@ 0x50
 80049b4:	6bc3      	ldr	r3, [r0, #60]	@ 0x3c
 80049b6:	b10b      	cbz	r3, 80049bc <I2C_DMAAbort+0x12>
 80049b8:	2200      	movs	r2, #0
 80049ba:	651a      	str	r2, [r3, #80]	@ 0x50
 80049bc:	f7ff baaa 	b.w	8003f14 <I2C_TreatErrorCallback>

080049c0 <HAL_I2CEx_ConfigAnalogFilter>:
 80049c0:	b510      	push	{r4, lr}
 80049c2:	f890 2041 	ldrb.w	r2, [r0, #65]	@ 0x41
 80049c6:	4603      	mov	r3, r0
 80049c8:	2a20      	cmp	r2, #32
 80049ca:	b2d4      	uxtb	r4, r2
 80049cc:	d11c      	bne.n	8004a08 <HAL_I2CEx_ConfigAnalogFilter+0x48>
 80049ce:	f890 2040 	ldrb.w	r2, [r0, #64]	@ 0x40
 80049d2:	2a01      	cmp	r2, #1
 80049d4:	d018      	beq.n	8004a08 <HAL_I2CEx_ConfigAnalogFilter+0x48>
 80049d6:	2224      	movs	r2, #36	@ 0x24
 80049d8:	f880 2041 	strb.w	r2, [r0, #65]	@ 0x41
 80049dc:	6802      	ldr	r2, [r0, #0]
 80049de:	6810      	ldr	r0, [r2, #0]
 80049e0:	f020 0001 	bic.w	r0, r0, #1
 80049e4:	6010      	str	r0, [r2, #0]
 80049e6:	6810      	ldr	r0, [r2, #0]
 80049e8:	f420 5080 	bic.w	r0, r0, #4096	@ 0x1000
 80049ec:	6010      	str	r0, [r2, #0]
 80049ee:	6810      	ldr	r0, [r2, #0]
 80049f0:	4301      	orrs	r1, r0
 80049f2:	2000      	movs	r0, #0
 80049f4:	6011      	str	r1, [r2, #0]
 80049f6:	6811      	ldr	r1, [r2, #0]
 80049f8:	f041 0101 	orr.w	r1, r1, #1
 80049fc:	6011      	str	r1, [r2, #0]
 80049fe:	f883 4041 	strb.w	r4, [r3, #65]	@ 0x41
 8004a02:	f883 0040 	strb.w	r0, [r3, #64]	@ 0x40
 8004a06:	bd10      	pop	{r4, pc}
 8004a08:	2002      	movs	r0, #2
 8004a0a:	e7fc      	b.n	8004a06 <HAL_I2CEx_ConfigAnalogFilter+0x46>

08004a0c <HAL_I2CEx_ConfigDigitalFilter>:
 8004a0c:	b510      	push	{r4, lr}
 8004a0e:	f890 2041 	ldrb.w	r2, [r0, #65]	@ 0x41
 8004a12:	4603      	mov	r3, r0
 8004a14:	2a20      	cmp	r2, #32
 8004a16:	b2d4      	uxtb	r4, r2
 8004a18:	d11b      	bne.n	8004a52 <HAL_I2CEx_ConfigDigitalFilter+0x46>
 8004a1a:	f890 2040 	ldrb.w	r2, [r0, #64]	@ 0x40
 8004a1e:	2a01      	cmp	r2, #1
 8004a20:	d017      	beq.n	8004a52 <HAL_I2CEx_ConfigDigitalFilter+0x46>
 8004a22:	2224      	movs	r2, #36	@ 0x24
 8004a24:	f880 2041 	strb.w	r2, [r0, #65]	@ 0x41
 8004a28:	6802      	ldr	r2, [r0, #0]
 8004a2a:	6810      	ldr	r0, [r2, #0]
 8004a2c:	f020 0001 	bic.w	r0, r0, #1
 8004a30:	6010      	str	r0, [r2, #0]
 8004a32:	6810      	ldr	r0, [r2, #0]
 8004a34:	f420 6070 	bic.w	r0, r0, #3840	@ 0xf00
 8004a38:	ea40 2101 	orr.w	r1, r0, r1, lsl #8
 8004a3c:	2000      	movs	r0, #0
 8004a3e:	6011      	str	r1, [r2, #0]
 8004a40:	6811      	ldr	r1, [r2, #0]
 8004a42:	f041 0101 	orr.w	r1, r1, #1
 8004a46:	6011      	str	r1, [r2, #0]
 8004a48:	f883 4041 	strb.w	r4, [r3, #65]	@ 0x41
 8004a4c:	f883 0040 	strb.w	r0, [r3, #64]	@ 0x40
 8004a50:	bd10      	pop	{r4, pc}
 8004a52:	2002      	movs	r0, #2
 8004a54:	e7fc      	b.n	8004a50 <HAL_I2CEx_ConfigDigitalFilter+0x44>
	...

08004a58 <HAL_PWREx_ConfigSupply>:
 8004a58:	b538      	push	{r3, r4, r5, lr}
 8004a5a:	4c10      	ldr	r4, [pc, #64]	@ (8004a9c <HAL_PWREx_ConfigSupply+0x44>)
 8004a5c:	68e3      	ldr	r3, [r4, #12]
 8004a5e:	f013 0f04 	tst.w	r3, #4
 8004a62:	68e3      	ldr	r3, [r4, #12]
 8004a64:	d105      	bne.n	8004a72 <HAL_PWREx_ConfigSupply+0x1a>
 8004a66:	f003 0307 	and.w	r3, r3, #7
 8004a6a:	1a18      	subs	r0, r3, r0
 8004a6c:	bf18      	it	ne
 8004a6e:	2001      	movne	r0, #1
 8004a70:	bd38      	pop	{r3, r4, r5, pc}
 8004a72:	f023 0307 	bic.w	r3, r3, #7
 8004a76:	4318      	orrs	r0, r3
 8004a78:	60e0      	str	r0, [r4, #12]
 8004a7a:	f7fc ffd1 	bl	8001a20 <HAL_GetTick>
 8004a7e:	4605      	mov	r5, r0
 8004a80:	6863      	ldr	r3, [r4, #4]
 8004a82:	049b      	lsls	r3, r3, #18
 8004a84:	d501      	bpl.n	8004a8a <HAL_PWREx_ConfigSupply+0x32>
 8004a86:	2000      	movs	r0, #0
 8004a88:	e7f2      	b.n	8004a70 <HAL_PWREx_ConfigSupply+0x18>
 8004a8a:	f7fc ffc9 	bl	8001a20 <HAL_GetTick>
 8004a8e:	1b40      	subs	r0, r0, r5
 8004a90:	f5b0 7f7a 	cmp.w	r0, #1000	@ 0x3e8
 8004a94:	d9f4      	bls.n	8004a80 <HAL_PWREx_ConfigSupply+0x28>
 8004a96:	2001      	movs	r0, #1
 8004a98:	e7ea      	b.n	8004a70 <HAL_PWREx_ConfigSupply+0x18>
 8004a9a:	bf00      	nop
 8004a9c:	58024800 	.word	0x58024800

08004aa0 <HAL_RCC_OscConfig>:
 8004aa0:	b5f8      	push	{r3, r4, r5, r6, r7, lr}
 8004aa2:	4604      	mov	r4, r0
 8004aa4:	2800      	cmp	r0, #0
 8004aa6:	d074      	beq.n	8004b92 <HAL_RCC_OscConfig+0xf2>
 8004aa8:	6803      	ldr	r3, [r0, #0]
 8004aaa:	07d8      	lsls	r0, r3, #31
 8004aac:	d45e      	bmi.n	8004b6c <HAL_RCC_OscConfig+0xcc>
 8004aae:	6823      	ldr	r3, [r4, #0]
 8004ab0:	0799      	lsls	r1, r3, #30
 8004ab2:	f100 80ad 	bmi.w	8004c10 <HAL_RCC_OscConfig+0x170>
 8004ab6:	6823      	ldr	r3, [r4, #0]
 8004ab8:	06da      	lsls	r2, r3, #27
 8004aba:	d527      	bpl.n	8004b0c <HAL_RCC_OscConfig+0x6c>
 8004abc:	4a9c      	ldr	r2, [pc, #624]	@ (8004d30 <HAL_RCC_OscConfig+0x290>)
 8004abe:	6913      	ldr	r3, [r2, #16]
 8004ac0:	6a91      	ldr	r1, [r2, #40]	@ 0x28
 8004ac2:	f003 0338 	and.w	r3, r3, #56	@ 0x38
 8004ac6:	2b08      	cmp	r3, #8
 8004ac8:	d007      	beq.n	8004ada <HAL_RCC_OscConfig+0x3a>
 8004aca:	2b18      	cmp	r3, #24
 8004acc:	f040 8103 	bne.w	8004cd6 <HAL_RCC_OscConfig+0x236>
 8004ad0:	f001 0303 	and.w	r3, r1, #3
 8004ad4:	2b01      	cmp	r3, #1
 8004ad6:	f040 80fe 	bne.w	8004cd6 <HAL_RCC_OscConfig+0x236>
 8004ada:	6813      	ldr	r3, [r2, #0]
 8004adc:	05db      	lsls	r3, r3, #23
 8004ade:	d502      	bpl.n	8004ae6 <HAL_RCC_OscConfig+0x46>
 8004ae0:	69e3      	ldr	r3, [r4, #28]
 8004ae2:	2b80      	cmp	r3, #128	@ 0x80
 8004ae4:	d155      	bne.n	8004b92 <HAL_RCC_OscConfig+0xf2>
 8004ae6:	f7fc ffb3 	bl	8001a50 <HAL_GetREVID>
 8004aea:	f241 0303 	movw	r3, #4099	@ 0x1003
 8004aee:	6a21      	ldr	r1, [r4, #32]
 8004af0:	4298      	cmp	r0, r3
 8004af2:	4b8f      	ldr	r3, [pc, #572]	@ (8004d30 <HAL_RCC_OscConfig+0x290>)
 8004af4:	f200 80e8 	bhi.w	8004cc8 <HAL_RCC_OscConfig+0x228>
 8004af8:	685a      	ldr	r2, [r3, #4]
 8004afa:	2920      	cmp	r1, #32
 8004afc:	f022 42f8 	bic.w	r2, r2, #2080374784	@ 0x7c000000
 8004b00:	bf0c      	ite	eq
 8004b02:	f042 4280 	orreq.w	r2, r2, #1073741824	@ 0x40000000
 8004b06:	ea42 6281 	orrne.w	r2, r2, r1, lsl #26
 8004b0a:	605a      	str	r2, [r3, #4]
 8004b0c:	6823      	ldr	r3, [r4, #0]
 8004b0e:	0719      	lsls	r1, r3, #28
 8004b10:	f100 8123 	bmi.w	8004d5a <HAL_RCC_OscConfig+0x2ba>
 8004b14:	6823      	ldr	r3, [r4, #0]
 8004b16:	069a      	lsls	r2, r3, #26
 8004b18:	f100 8144 	bmi.w	8004da4 <HAL_RCC_OscConfig+0x304>
 8004b1c:	6823      	ldr	r3, [r4, #0]
 8004b1e:	075d      	lsls	r5, r3, #29
 8004b20:	d51e      	bpl.n	8004b60 <HAL_RCC_OscConfig+0xc0>
 8004b22:	4d84      	ldr	r5, [pc, #528]	@ (8004d34 <HAL_RCC_OscConfig+0x294>)
 8004b24:	682b      	ldr	r3, [r5, #0]
 8004b26:	f443 7380 	orr.w	r3, r3, #256	@ 0x100
 8004b2a:	602b      	str	r3, [r5, #0]
 8004b2c:	f7fc ff78 	bl	8001a20 <HAL_GetTick>
 8004b30:	4606      	mov	r6, r0
 8004b32:	682b      	ldr	r3, [r5, #0]
 8004b34:	05da      	lsls	r2, r3, #23
 8004b36:	f140 815a 	bpl.w	8004dee <HAL_RCC_OscConfig+0x34e>
 8004b3a:	68a3      	ldr	r3, [r4, #8]
 8004b3c:	4d7c      	ldr	r5, [pc, #496]	@ (8004d30 <HAL_RCC_OscConfig+0x290>)
 8004b3e:	2b01      	cmp	r3, #1
 8004b40:	f040 815c 	bne.w	8004dfc <HAL_RCC_OscConfig+0x35c>
 8004b44:	6f2b      	ldr	r3, [r5, #112]	@ 0x70
 8004b46:	f043 0301 	orr.w	r3, r3, #1
 8004b4a:	672b      	str	r3, [r5, #112]	@ 0x70
 8004b4c:	f241 3788 	movw	r7, #5000	@ 0x1388
 8004b50:	f7fc ff66 	bl	8001a20 <HAL_GetTick>
 8004b54:	4e76      	ldr	r6, [pc, #472]	@ (8004d30 <HAL_RCC_OscConfig+0x290>)
 8004b56:	4605      	mov	r5, r0
 8004b58:	6f33      	ldr	r3, [r6, #112]	@ 0x70
 8004b5a:	079b      	lsls	r3, r3, #30
 8004b5c:	f140 8174 	bpl.w	8004e48 <HAL_RCC_OscConfig+0x3a8>
 8004b60:	6a61      	ldr	r1, [r4, #36]	@ 0x24
 8004b62:	2900      	cmp	r1, #0
 8004b64:	f040 8177 	bne.w	8004e56 <HAL_RCC_OscConfig+0x3b6>
 8004b68:	2000      	movs	r0, #0
 8004b6a:	e02b      	b.n	8004bc4 <HAL_RCC_OscConfig+0x124>
 8004b6c:	4a70      	ldr	r2, [pc, #448]	@ (8004d30 <HAL_RCC_OscConfig+0x290>)
 8004b6e:	6913      	ldr	r3, [r2, #16]
 8004b70:	6a91      	ldr	r1, [r2, #40]	@ 0x28
 8004b72:	f003 0338 	and.w	r3, r3, #56	@ 0x38
 8004b76:	2b10      	cmp	r3, #16
 8004b78:	d005      	beq.n	8004b86 <HAL_RCC_OscConfig+0xe6>
 8004b7a:	2b18      	cmp	r3, #24
 8004b7c:	d10b      	bne.n	8004b96 <HAL_RCC_OscConfig+0xf6>
 8004b7e:	f001 0303 	and.w	r3, r1, #3
 8004b82:	2b02      	cmp	r3, #2
 8004b84:	d107      	bne.n	8004b96 <HAL_RCC_OscConfig+0xf6>
 8004b86:	6813      	ldr	r3, [r2, #0]
 8004b88:	039a      	lsls	r2, r3, #14
 8004b8a:	d590      	bpl.n	8004aae <HAL_RCC_OscConfig+0xe>
 8004b8c:	6863      	ldr	r3, [r4, #4]
 8004b8e:	2b00      	cmp	r3, #0
 8004b90:	d18d      	bne.n	8004aae <HAL_RCC_OscConfig+0xe>
 8004b92:	2001      	movs	r0, #1
 8004b94:	e016      	b.n	8004bc4 <HAL_RCC_OscConfig+0x124>
 8004b96:	6863      	ldr	r3, [r4, #4]
 8004b98:	4d65      	ldr	r5, [pc, #404]	@ (8004d30 <HAL_RCC_OscConfig+0x290>)
 8004b9a:	f5b3 3f80 	cmp.w	r3, #65536	@ 0x10000
 8004b9e:	d112      	bne.n	8004bc6 <HAL_RCC_OscConfig+0x126>
 8004ba0:	682b      	ldr	r3, [r5, #0]
 8004ba2:	f443 3380 	orr.w	r3, r3, #65536	@ 0x10000
 8004ba6:	602b      	str	r3, [r5, #0]
 8004ba8:	f7fc ff3a 	bl	8001a20 <HAL_GetTick>
 8004bac:	4e60      	ldr	r6, [pc, #384]	@ (8004d30 <HAL_RCC_OscConfig+0x290>)
 8004bae:	4605      	mov	r5, r0
 8004bb0:	6833      	ldr	r3, [r6, #0]
 8004bb2:	039b      	lsls	r3, r3, #14
 8004bb4:	f53f af7b 	bmi.w	8004aae <HAL_RCC_OscConfig+0xe>
 8004bb8:	f7fc ff32 	bl	8001a20 <HAL_GetTick>
 8004bbc:	1b40      	subs	r0, r0, r5
 8004bbe:	2864      	cmp	r0, #100	@ 0x64
 8004bc0:	d9f6      	bls.n	8004bb0 <HAL_RCC_OscConfig+0x110>
 8004bc2:	2003      	movs	r0, #3
 8004bc4:	bdf8      	pop	{r3, r4, r5, r6, r7, pc}
 8004bc6:	b9a3      	cbnz	r3, 8004bf2 <HAL_RCC_OscConfig+0x152>
 8004bc8:	682b      	ldr	r3, [r5, #0]
 8004bca:	f423 3380 	bic.w	r3, r3, #65536	@ 0x10000
 8004bce:	602b      	str	r3, [r5, #0]
 8004bd0:	682b      	ldr	r3, [r5, #0]
 8004bd2:	f423 2380 	bic.w	r3, r3, #262144	@ 0x40000
 8004bd6:	602b      	str	r3, [r5, #0]
 8004bd8:	f7fc ff22 	bl	8001a20 <HAL_GetTick>
 8004bdc:	4606      	mov	r6, r0
 8004bde:	682b      	ldr	r3, [r5, #0]
 8004be0:	039f      	lsls	r7, r3, #14
 8004be2:	f57f af64 	bpl.w	8004aae <HAL_RCC_OscConfig+0xe>
 8004be6:	f7fc ff1b 	bl	8001a20 <HAL_GetTick>
 8004bea:	1b80      	subs	r0, r0, r6
 8004bec:	2864      	cmp	r0, #100	@ 0x64
 8004bee:	d9f6      	bls.n	8004bde <HAL_RCC_OscConfig+0x13e>
 8004bf0:	e7e7      	b.n	8004bc2 <HAL_RCC_OscConfig+0x122>
 8004bf2:	f5b3 2fa0 	cmp.w	r3, #327680	@ 0x50000
 8004bf6:	682b      	ldr	r3, [r5, #0]
 8004bf8:	d103      	bne.n	8004c02 <HAL_RCC_OscConfig+0x162>
 8004bfa:	f443 2380 	orr.w	r3, r3, #262144	@ 0x40000
 8004bfe:	602b      	str	r3, [r5, #0]
 8004c00:	e7ce      	b.n	8004ba0 <HAL_RCC_OscConfig+0x100>
 8004c02:	f423 3380 	bic.w	r3, r3, #65536	@ 0x10000
 8004c06:	602b      	str	r3, [r5, #0]
 8004c08:	682b      	ldr	r3, [r5, #0]
 8004c0a:	f423 2380 	bic.w	r3, r3, #262144	@ 0x40000
 8004c0e:	e7ca      	b.n	8004ba6 <HAL_RCC_OscConfig+0x106>
 8004c10:	4947      	ldr	r1, [pc, #284]	@ (8004d30 <HAL_RCC_OscConfig+0x290>)
 8004c12:	68e2      	ldr	r2, [r4, #12]
 8004c14:	690b      	ldr	r3, [r1, #16]
 8004c16:	6a88      	ldr	r0, [r1, #40]	@ 0x28
 8004c18:	f013 0338 	ands.w	r3, r3, #56	@ 0x38
 8004c1c:	d003      	beq.n	8004c26 <HAL_RCC_OscConfig+0x186>
 8004c1e:	2b18      	cmp	r3, #24
 8004c20:	d12a      	bne.n	8004c78 <HAL_RCC_OscConfig+0x1d8>
 8004c22:	0780      	lsls	r0, r0, #30
 8004c24:	d128      	bne.n	8004c78 <HAL_RCC_OscConfig+0x1d8>
 8004c26:	680b      	ldr	r3, [r1, #0]
 8004c28:	075b      	lsls	r3, r3, #29
 8004c2a:	d501      	bpl.n	8004c30 <HAL_RCC_OscConfig+0x190>
 8004c2c:	2a00      	cmp	r2, #0
 8004c2e:	d0b0      	beq.n	8004b92 <HAL_RCC_OscConfig+0xf2>
 8004c30:	4d3f      	ldr	r5, [pc, #252]	@ (8004d30 <HAL_RCC_OscConfig+0x290>)
 8004c32:	682b      	ldr	r3, [r5, #0]
 8004c34:	f023 0319 	bic.w	r3, r3, #25
 8004c38:	4313      	orrs	r3, r2
 8004c3a:	602b      	str	r3, [r5, #0]
 8004c3c:	f7fc fef0 	bl	8001a20 <HAL_GetTick>
 8004c40:	4606      	mov	r6, r0
 8004c42:	682b      	ldr	r3, [r5, #0]
 8004c44:	075f      	lsls	r7, r3, #29
 8004c46:	d511      	bpl.n	8004c6c <HAL_RCC_OscConfig+0x1cc>
 8004c48:	f7fc ff02 	bl	8001a50 <HAL_GetREVID>
 8004c4c:	f241 0303 	movw	r3, #4099	@ 0x1003
 8004c50:	6922      	ldr	r2, [r4, #16]
 8004c52:	4298      	cmp	r0, r3
 8004c54:	686b      	ldr	r3, [r5, #4]
 8004c56:	d822      	bhi.n	8004c9e <HAL_RCC_OscConfig+0x1fe>
 8004c58:	f423 337c 	bic.w	r3, r3, #258048	@ 0x3f000
 8004c5c:	2a40      	cmp	r2, #64	@ 0x40
 8004c5e:	bf0c      	ite	eq
 8004c60:	f443 3300 	orreq.w	r3, r3, #131072	@ 0x20000
 8004c64:	ea43 3302 	orrne.w	r3, r3, r2, lsl #12
 8004c68:	606b      	str	r3, [r5, #4]
 8004c6a:	e724      	b.n	8004ab6 <HAL_RCC_OscConfig+0x16>
 8004c6c:	f7fc fed8 	bl	8001a20 <HAL_GetTick>
 8004c70:	1b80      	subs	r0, r0, r6
 8004c72:	2802      	cmp	r0, #2
 8004c74:	d9e5      	bls.n	8004c42 <HAL_RCC_OscConfig+0x1a2>
 8004c76:	e7a4      	b.n	8004bc2 <HAL_RCC_OscConfig+0x122>
 8004c78:	4d2d      	ldr	r5, [pc, #180]	@ (8004d30 <HAL_RCC_OscConfig+0x290>)
 8004c7a:	682b      	ldr	r3, [r5, #0]
 8004c7c:	b1a2      	cbz	r2, 8004ca8 <HAL_RCC_OscConfig+0x208>
 8004c7e:	f023 0319 	bic.w	r3, r3, #25
 8004c82:	4313      	orrs	r3, r2
 8004c84:	602b      	str	r3, [r5, #0]
 8004c86:	f7fc fecb 	bl	8001a20 <HAL_GetTick>
 8004c8a:	4606      	mov	r6, r0
 8004c8c:	682b      	ldr	r3, [r5, #0]
 8004c8e:	0758      	lsls	r0, r3, #29
 8004c90:	d4da      	bmi.n	8004c48 <HAL_RCC_OscConfig+0x1a8>
 8004c92:	f7fc fec5 	bl	8001a20 <HAL_GetTick>
 8004c96:	1b80      	subs	r0, r0, r6
 8004c98:	2802      	cmp	r0, #2
 8004c9a:	d9f7      	bls.n	8004c8c <HAL_RCC_OscConfig+0x1ec>
 8004c9c:	e791      	b.n	8004bc2 <HAL_RCC_OscConfig+0x122>
 8004c9e:	f023 43fe 	bic.w	r3, r3, #2130706432	@ 0x7f000000
 8004ca2:	ea43 6302 	orr.w	r3, r3, r2, lsl #24
 8004ca6:	e7df      	b.n	8004c68 <HAL_RCC_OscConfig+0x1c8>
 8004ca8:	f023 0301 	bic.w	r3, r3, #1
 8004cac:	602b      	str	r3, [r5, #0]
 8004cae:	f7fc feb7 	bl	8001a20 <HAL_GetTick>
 8004cb2:	4606      	mov	r6, r0
 8004cb4:	682b      	ldr	r3, [r5, #0]
 8004cb6:	0759      	lsls	r1, r3, #29
 8004cb8:	f57f aefd 	bpl.w	8004ab6 <HAL_RCC_OscConfig+0x16>
 8004cbc:	f7fc feb0 	bl	8001a20 <HAL_GetTick>
 8004cc0:	1b80      	subs	r0, r0, r6
 8004cc2:	2802      	cmp	r0, #2
 8004cc4:	d9f6      	bls.n	8004cb4 <HAL_RCC_OscConfig+0x214>
 8004cc6:	e77c      	b.n	8004bc2 <HAL_RCC_OscConfig+0x122>
 8004cc8:	68da      	ldr	r2, [r3, #12]
 8004cca:	f022 527c 	bic.w	r2, r2, #1056964608	@ 0x3f000000
 8004cce:	ea42 6201 	orr.w	r2, r2, r1, lsl #24
 8004cd2:	60da      	str	r2, [r3, #12]
 8004cd4:	e71a      	b.n	8004b0c <HAL_RCC_OscConfig+0x6c>
 8004cd6:	69e3      	ldr	r3, [r4, #28]
 8004cd8:	4d15      	ldr	r5, [pc, #84]	@ (8004d30 <HAL_RCC_OscConfig+0x290>)
 8004cda:	b36b      	cbz	r3, 8004d38 <HAL_RCC_OscConfig+0x298>
 8004cdc:	682b      	ldr	r3, [r5, #0]
 8004cde:	f043 0380 	orr.w	r3, r3, #128	@ 0x80
 8004ce2:	602b      	str	r3, [r5, #0]
 8004ce4:	f7fc fe9c 	bl	8001a20 <HAL_GetTick>
 8004ce8:	4606      	mov	r6, r0
 8004cea:	682b      	ldr	r3, [r5, #0]
 8004cec:	05df      	lsls	r7, r3, #23
 8004cee:	d511      	bpl.n	8004d14 <HAL_RCC_OscConfig+0x274>
 8004cf0:	f7fc feae 	bl	8001a50 <HAL_GetREVID>
 8004cf4:	f241 0303 	movw	r3, #4099	@ 0x1003
 8004cf8:	6a22      	ldr	r2, [r4, #32]
 8004cfa:	4298      	cmp	r0, r3
 8004cfc:	d810      	bhi.n	8004d20 <HAL_RCC_OscConfig+0x280>
 8004cfe:	686b      	ldr	r3, [r5, #4]
 8004d00:	2a20      	cmp	r2, #32
 8004d02:	f023 43f8 	bic.w	r3, r3, #2080374784	@ 0x7c000000
 8004d06:	bf0c      	ite	eq
 8004d08:	f043 4380 	orreq.w	r3, r3, #1073741824	@ 0x40000000
 8004d0c:	ea43 6382 	orrne.w	r3, r3, r2, lsl #26
 8004d10:	606b      	str	r3, [r5, #4]
 8004d12:	e6fb      	b.n	8004b0c <HAL_RCC_OscConfig+0x6c>
 8004d14:	f7fc fe84 	bl	8001a20 <HAL_GetTick>
 8004d18:	1b80      	subs	r0, r0, r6
 8004d1a:	2802      	cmp	r0, #2
 8004d1c:	d9e5      	bls.n	8004cea <HAL_RCC_OscConfig+0x24a>
 8004d1e:	e750      	b.n	8004bc2 <HAL_RCC_OscConfig+0x122>
 8004d20:	68eb      	ldr	r3, [r5, #12]
 8004d22:	f023 537c 	bic.w	r3, r3, #1056964608	@ 0x3f000000
 8004d26:	ea43 6302 	orr.w	r3, r3, r2, lsl #24
 8004d2a:	60eb      	str	r3, [r5, #12]
 8004d2c:	e6ee      	b.n	8004b0c <HAL_RCC_OscConfig+0x6c>
 8004d2e:	bf00      	nop
 8004d30:	58024400 	.word	0x58024400
 8004d34:	58024800 	.word	0x58024800
 8004d38:	682b      	ldr	r3, [r5, #0]
 8004d3a:	f023 0380 	bic.w	r3, r3, #128	@ 0x80
 8004d3e:	602b      	str	r3, [r5, #0]
 8004d40:	f7fc fe6e 	bl	8001a20 <HAL_GetTick>
 8004d44:	4606      	mov	r6, r0
 8004d46:	682b      	ldr	r3, [r5, #0]
 8004d48:	05d8      	lsls	r0, r3, #23
 8004d4a:	f57f aedf 	bpl.w	8004b0c <HAL_RCC_OscConfig+0x6c>
 8004d4e:	f7fc fe67 	bl	8001a20 <HAL_GetTick>
 8004d52:	1b80      	subs	r0, r0, r6
 8004d54:	2802      	cmp	r0, #2
 8004d56:	d9f6      	bls.n	8004d46 <HAL_RCC_OscConfig+0x2a6>
 8004d58:	e733      	b.n	8004bc2 <HAL_RCC_OscConfig+0x122>
 8004d5a:	6963      	ldr	r3, [r4, #20]
 8004d5c:	4da5      	ldr	r5, [pc, #660]	@ (8004ff4 <HAL_RCC_OscConfig+0x554>)
 8004d5e:	b183      	cbz	r3, 8004d82 <HAL_RCC_OscConfig+0x2e2>
 8004d60:	6f6b      	ldr	r3, [r5, #116]	@ 0x74
 8004d62:	f043 0301 	orr.w	r3, r3, #1
 8004d66:	676b      	str	r3, [r5, #116]	@ 0x74
 8004d68:	f7fc fe5a 	bl	8001a20 <HAL_GetTick>
 8004d6c:	4606      	mov	r6, r0
 8004d6e:	6f6b      	ldr	r3, [r5, #116]	@ 0x74
 8004d70:	079b      	lsls	r3, r3, #30
 8004d72:	f53f aecf 	bmi.w	8004b14 <HAL_RCC_OscConfig+0x74>
 8004d76:	f7fc fe53 	bl	8001a20 <HAL_GetTick>
 8004d7a:	1b80      	subs	r0, r0, r6
 8004d7c:	2802      	cmp	r0, #2
 8004d7e:	d9f6      	bls.n	8004d6e <HAL_RCC_OscConfig+0x2ce>
 8004d80:	e71f      	b.n	8004bc2 <HAL_RCC_OscConfig+0x122>
 8004d82:	6f6b      	ldr	r3, [r5, #116]	@ 0x74
 8004d84:	f023 0301 	bic.w	r3, r3, #1
 8004d88:	676b      	str	r3, [r5, #116]	@ 0x74
 8004d8a:	f7fc fe49 	bl	8001a20 <HAL_GetTick>
 8004d8e:	4606      	mov	r6, r0
 8004d90:	6f6b      	ldr	r3, [r5, #116]	@ 0x74
 8004d92:	079f      	lsls	r7, r3, #30
 8004d94:	f57f aebe 	bpl.w	8004b14 <HAL_RCC_OscConfig+0x74>
 8004d98:	f7fc fe42 	bl	8001a20 <HAL_GetTick>
 8004d9c:	1b80      	subs	r0, r0, r6
 8004d9e:	2802      	cmp	r0, #2
 8004da0:	d9f6      	bls.n	8004d90 <HAL_RCC_OscConfig+0x2f0>
 8004da2:	e70e      	b.n	8004bc2 <HAL_RCC_OscConfig+0x122>
 8004da4:	69a3      	ldr	r3, [r4, #24]
 8004da6:	4d93      	ldr	r5, [pc, #588]	@ (8004ff4 <HAL_RCC_OscConfig+0x554>)
 8004da8:	b183      	cbz	r3, 8004dcc <HAL_RCC_OscConfig+0x32c>
 8004daa:	682b      	ldr	r3, [r5, #0]
 8004dac:	f443 5380 	orr.w	r3, r3, #4096	@ 0x1000
 8004db0:	602b      	str	r3, [r5, #0]
 8004db2:	f7fc fe35 	bl	8001a20 <HAL_GetTick>
 8004db6:	4606      	mov	r6, r0
 8004db8:	682b      	ldr	r3, [r5, #0]
 8004dba:	0498      	lsls	r0, r3, #18
 8004dbc:	f53f aeae 	bmi.w	8004b1c <HAL_RCC_OscConfig+0x7c>
 8004dc0:	f7fc fe2e 	bl	8001a20 <HAL_GetTick>
 8004dc4:	1b80      	subs	r0, r0, r6
 8004dc6:	2802      	cmp	r0, #2
 8004dc8:	d9f6      	bls.n	8004db8 <HAL_RCC_OscConfig+0x318>
 8004dca:	e6fa      	b.n	8004bc2 <HAL_RCC_OscConfig+0x122>
 8004dcc:	682b      	ldr	r3, [r5, #0]
 8004dce:	f423 5380 	bic.w	r3, r3, #4096	@ 0x1000
 8004dd2:	602b      	str	r3, [r5, #0]
 8004dd4:	f7fc fe24 	bl	8001a20 <HAL_GetTick>
 8004dd8:	4606      	mov	r6, r0
 8004dda:	682b      	ldr	r3, [r5, #0]
 8004ddc:	0499      	lsls	r1, r3, #18
 8004dde:	f57f ae9d 	bpl.w	8004b1c <HAL_RCC_OscConfig+0x7c>
 8004de2:	f7fc fe1d 	bl	8001a20 <HAL_GetTick>
 8004de6:	1b80      	subs	r0, r0, r6
 8004de8:	2802      	cmp	r0, #2
 8004dea:	d9f6      	bls.n	8004dda <HAL_RCC_OscConfig+0x33a>
 8004dec:	e6e9      	b.n	8004bc2 <HAL_RCC_OscConfig+0x122>
 8004dee:	f7fc fe17 	bl	8001a20 <HAL_GetTick>
 8004df2:	1b80      	subs	r0, r0, r6
 8004df4:	2864      	cmp	r0, #100	@ 0x64
 8004df6:	f67f ae9c 	bls.w	8004b32 <HAL_RCC_OscConfig+0x92>
 8004dfa:	e6e2      	b.n	8004bc2 <HAL_RCC_OscConfig+0x122>
 8004dfc:	b9b3      	cbnz	r3, 8004e2c <HAL_RCC_OscConfig+0x38c>
 8004dfe:	6f2b      	ldr	r3, [r5, #112]	@ 0x70
 8004e00:	f241 3788 	movw	r7, #5000	@ 0x1388
 8004e04:	f023 0301 	bic.w	r3, r3, #1
 8004e08:	672b      	str	r3, [r5, #112]	@ 0x70
 8004e0a:	6f2b      	ldr	r3, [r5, #112]	@ 0x70
 8004e0c:	f023 0304 	bic.w	r3, r3, #4
 8004e10:	672b      	str	r3, [r5, #112]	@ 0x70
 8004e12:	f7fc fe05 	bl	8001a20 <HAL_GetTick>
 8004e16:	4606      	mov	r6, r0
 8004e18:	6f2b      	ldr	r3, [r5, #112]	@ 0x70
 8004e1a:	0798      	lsls	r0, r3, #30
 8004e1c:	f57f aea0 	bpl.w	8004b60 <HAL_RCC_OscConfig+0xc0>
 8004e20:	f7fc fdfe 	bl	8001a20 <HAL_GetTick>
 8004e24:	1b80      	subs	r0, r0, r6
 8004e26:	42b8      	cmp	r0, r7
 8004e28:	d9f6      	bls.n	8004e18 <HAL_RCC_OscConfig+0x378>
 8004e2a:	e6ca      	b.n	8004bc2 <HAL_RCC_OscConfig+0x122>
 8004e2c:	2b05      	cmp	r3, #5
 8004e2e:	6f2b      	ldr	r3, [r5, #112]	@ 0x70
 8004e30:	d103      	bne.n	8004e3a <HAL_RCC_OscConfig+0x39a>
 8004e32:	f043 0304 	orr.w	r3, r3, #4
 8004e36:	672b      	str	r3, [r5, #112]	@ 0x70
 8004e38:	e684      	b.n	8004b44 <HAL_RCC_OscConfig+0xa4>
 8004e3a:	f023 0301 	bic.w	r3, r3, #1
 8004e3e:	672b      	str	r3, [r5, #112]	@ 0x70
 8004e40:	6f2b      	ldr	r3, [r5, #112]	@ 0x70
 8004e42:	f023 0304 	bic.w	r3, r3, #4
 8004e46:	e680      	b.n	8004b4a <HAL_RCC_OscConfig+0xaa>
 8004e48:	f7fc fdea 	bl	8001a20 <HAL_GetTick>
 8004e4c:	1b40      	subs	r0, r0, r5
 8004e4e:	42b8      	cmp	r0, r7
 8004e50:	f67f ae82 	bls.w	8004b58 <HAL_RCC_OscConfig+0xb8>
 8004e54:	e6b5      	b.n	8004bc2 <HAL_RCC_OscConfig+0x122>
 8004e56:	4d67      	ldr	r5, [pc, #412]	@ (8004ff4 <HAL_RCC_OscConfig+0x554>)
 8004e58:	692b      	ldr	r3, [r5, #16]
 8004e5a:	f003 0338 	and.w	r3, r3, #56	@ 0x38
 8004e5e:	2b18      	cmp	r3, #24
 8004e60:	d07a      	beq.n	8004f58 <HAL_RCC_OscConfig+0x4b8>
 8004e62:	682b      	ldr	r3, [r5, #0]
 8004e64:	2902      	cmp	r1, #2
 8004e66:	f023 7380 	bic.w	r3, r3, #16777216	@ 0x1000000
 8004e6a:	602b      	str	r3, [r5, #0]
 8004e6c:	d167      	bne.n	8004f3e <HAL_RCC_OscConfig+0x49e>
 8004e6e:	f7fc fdd7 	bl	8001a20 <HAL_GetTick>
 8004e72:	4606      	mov	r6, r0
 8004e74:	682b      	ldr	r3, [r5, #0]
 8004e76:	0199      	lsls	r1, r3, #6
 8004e78:	d45b      	bmi.n	8004f32 <HAL_RCC_OscConfig+0x492>
 8004e7a:	6aab      	ldr	r3, [r5, #40]	@ 0x28
 8004e7c:	6aa2      	ldr	r2, [r4, #40]	@ 0x28
 8004e7e:	f423 737c 	bic.w	r3, r3, #1008	@ 0x3f0
 8004e82:	f023 0303 	bic.w	r3, r3, #3
 8004e86:	4313      	orrs	r3, r2
 8004e88:	6ae2      	ldr	r2, [r4, #44]	@ 0x2c
 8004e8a:	ea43 1302 	orr.w	r3, r3, r2, lsl #4
 8004e8e:	62ab      	str	r3, [r5, #40]	@ 0x28
 8004e90:	6b63      	ldr	r3, [r4, #52]	@ 0x34
 8004e92:	6ba2      	ldr	r2, [r4, #56]	@ 0x38
 8004e94:	3b01      	subs	r3, #1
 8004e96:	3a01      	subs	r2, #1
 8004e98:	025b      	lsls	r3, r3, #9
 8004e9a:	0412      	lsls	r2, r2, #16
 8004e9c:	b29b      	uxth	r3, r3
 8004e9e:	f402 02fe 	and.w	r2, r2, #8323072	@ 0x7f0000
 8004ea2:	4313      	orrs	r3, r2
 8004ea4:	6b22      	ldr	r2, [r4, #48]	@ 0x30
 8004ea6:	3a01      	subs	r2, #1
 8004ea8:	f3c2 0208 	ubfx	r2, r2, #0, #9
 8004eac:	4313      	orrs	r3, r2
 8004eae:	6be2      	ldr	r2, [r4, #60]	@ 0x3c
 8004eb0:	3a01      	subs	r2, #1
 8004eb2:	0612      	lsls	r2, r2, #24
 8004eb4:	f002 42fe 	and.w	r2, r2, #2130706432	@ 0x7f000000
 8004eb8:	4313      	orrs	r3, r2
 8004eba:	632b      	str	r3, [r5, #48]	@ 0x30
 8004ebc:	6aeb      	ldr	r3, [r5, #44]	@ 0x2c
 8004ebe:	f023 0301 	bic.w	r3, r3, #1
 8004ec2:	62eb      	str	r3, [r5, #44]	@ 0x2c
 8004ec4:	6b6b      	ldr	r3, [r5, #52]	@ 0x34
 8004ec6:	6ca2      	ldr	r2, [r4, #72]	@ 0x48
 8004ec8:	f423 437f 	bic.w	r3, r3, #65280	@ 0xff00
 8004ecc:	f023 03f8 	bic.w	r3, r3, #248	@ 0xf8
 8004ed0:	ea43 03c2 	orr.w	r3, r3, r2, lsl #3
 8004ed4:	636b      	str	r3, [r5, #52]	@ 0x34
 8004ed6:	6aeb      	ldr	r3, [r5, #44]	@ 0x2c
 8004ed8:	6c22      	ldr	r2, [r4, #64]	@ 0x40
 8004eda:	f023 030c 	bic.w	r3, r3, #12
 8004ede:	4313      	orrs	r3, r2
 8004ee0:	62eb      	str	r3, [r5, #44]	@ 0x2c
 8004ee2:	6aeb      	ldr	r3, [r5, #44]	@ 0x2c
 8004ee4:	6c62      	ldr	r2, [r4, #68]	@ 0x44
 8004ee6:	f023 0302 	bic.w	r3, r3, #2
 8004eea:	4313      	orrs	r3, r2
 8004eec:	62eb      	str	r3, [r5, #44]	@ 0x2c
 8004eee:	6aeb      	ldr	r3, [r5, #44]	@ 0x2c
 8004ef0:	f443 3380 	orr.w	r3, r3, #65536	@ 0x10000
 8004ef4:	62eb      	str	r3, [r5, #44]	@ 0x2c
 8004ef6:	6aeb      	ldr	r3, [r5, #44]	@ 0x2c
 8004ef8:	f443 3300 	orr.w	r3, r3, #131072	@ 0x20000
 8004efc:	62eb      	str	r3, [r5, #44]	@ 0x2c
 8004efe:	6aeb      	ldr	r3, [r5, #44]	@ 0x2c
 8004f00:	f443 2380 	orr.w	r3, r3, #262144	@ 0x40000
 8004f04:	62eb      	str	r3, [r5, #44]	@ 0x2c
 8004f06:	6aeb      	ldr	r3, [r5, #44]	@ 0x2c
 8004f08:	f043 0301 	orr.w	r3, r3, #1
 8004f0c:	62eb      	str	r3, [r5, #44]	@ 0x2c
 8004f0e:	682b      	ldr	r3, [r5, #0]
 8004f10:	f043 7380 	orr.w	r3, r3, #16777216	@ 0x1000000
 8004f14:	602b      	str	r3, [r5, #0]
 8004f16:	f7fc fd83 	bl	8001a20 <HAL_GetTick>
 8004f1a:	4d36      	ldr	r5, [pc, #216]	@ (8004ff4 <HAL_RCC_OscConfig+0x554>)
 8004f1c:	4604      	mov	r4, r0
 8004f1e:	682b      	ldr	r3, [r5, #0]
 8004f20:	019a      	lsls	r2, r3, #6
 8004f22:	f53f ae21 	bmi.w	8004b68 <HAL_RCC_OscConfig+0xc8>
 8004f26:	f7fc fd7b 	bl	8001a20 <HAL_GetTick>
 8004f2a:	1b00      	subs	r0, r0, r4
 8004f2c:	2802      	cmp	r0, #2
 8004f2e:	d9f6      	bls.n	8004f1e <HAL_RCC_OscConfig+0x47e>
 8004f30:	e647      	b.n	8004bc2 <HAL_RCC_OscConfig+0x122>
 8004f32:	f7fc fd75 	bl	8001a20 <HAL_GetTick>
 8004f36:	1b80      	subs	r0, r0, r6
 8004f38:	2802      	cmp	r0, #2
 8004f3a:	d99b      	bls.n	8004e74 <HAL_RCC_OscConfig+0x3d4>
 8004f3c:	e641      	b.n	8004bc2 <HAL_RCC_OscConfig+0x122>
 8004f3e:	f7fc fd6f 	bl	8001a20 <HAL_GetTick>
 8004f42:	4604      	mov	r4, r0
 8004f44:	682b      	ldr	r3, [r5, #0]
 8004f46:	019b      	lsls	r3, r3, #6
 8004f48:	f57f ae0e 	bpl.w	8004b68 <HAL_RCC_OscConfig+0xc8>
 8004f4c:	f7fc fd68 	bl	8001a20 <HAL_GetTick>
 8004f50:	1b00      	subs	r0, r0, r4
 8004f52:	2802      	cmp	r0, #2
 8004f54:	d9f6      	bls.n	8004f44 <HAL_RCC_OscConfig+0x4a4>
 8004f56:	e634      	b.n	8004bc2 <HAL_RCC_OscConfig+0x122>
 8004f58:	2901      	cmp	r1, #1
 8004f5a:	6aaa      	ldr	r2, [r5, #40]	@ 0x28
 8004f5c:	6b2b      	ldr	r3, [r5, #48]	@ 0x30
 8004f5e:	f43f ae18 	beq.w	8004b92 <HAL_RCC_OscConfig+0xf2>
 8004f62:	f002 0103 	and.w	r1, r2, #3
 8004f66:	6aa0      	ldr	r0, [r4, #40]	@ 0x28
 8004f68:	4281      	cmp	r1, r0
 8004f6a:	f47f ae12 	bne.w	8004b92 <HAL_RCC_OscConfig+0xf2>
 8004f6e:	f3c2 1205 	ubfx	r2, r2, #4, #6
 8004f72:	6ae1      	ldr	r1, [r4, #44]	@ 0x2c
 8004f74:	428a      	cmp	r2, r1
 8004f76:	f47f ae0c 	bne.w	8004b92 <HAL_RCC_OscConfig+0xf2>
 8004f7a:	6b22      	ldr	r2, [r4, #48]	@ 0x30
 8004f7c:	f3c3 0108 	ubfx	r1, r3, #0, #9
 8004f80:	3a01      	subs	r2, #1
 8004f82:	4291      	cmp	r1, r2
 8004f84:	f47f ae05 	bne.w	8004b92 <HAL_RCC_OscConfig+0xf2>
 8004f88:	6b62      	ldr	r2, [r4, #52]	@ 0x34
 8004f8a:	f3c3 2146 	ubfx	r1, r3, #9, #7
 8004f8e:	3a01      	subs	r2, #1
 8004f90:	4291      	cmp	r1, r2
 8004f92:	f47f adfe 	bne.w	8004b92 <HAL_RCC_OscConfig+0xf2>
 8004f96:	6ba2      	ldr	r2, [r4, #56]	@ 0x38
 8004f98:	f3c3 4106 	ubfx	r1, r3, #16, #7
 8004f9c:	3a01      	subs	r2, #1
 8004f9e:	4291      	cmp	r1, r2
 8004fa0:	f47f adf7 	bne.w	8004b92 <HAL_RCC_OscConfig+0xf2>
 8004fa4:	6be2      	ldr	r2, [r4, #60]	@ 0x3c
 8004fa6:	f3c3 6306 	ubfx	r3, r3, #24, #7
 8004faa:	3a01      	subs	r2, #1
 8004fac:	4293      	cmp	r3, r2
 8004fae:	f47f adf0 	bne.w	8004b92 <HAL_RCC_OscConfig+0xf2>
 8004fb2:	6b6b      	ldr	r3, [r5, #52]	@ 0x34
 8004fb4:	6ca2      	ldr	r2, [r4, #72]	@ 0x48
 8004fb6:	f3c3 03cc 	ubfx	r3, r3, #3, #13
 8004fba:	429a      	cmp	r2, r3
 8004fbc:	f43f add4 	beq.w	8004b68 <HAL_RCC_OscConfig+0xc8>
 8004fc0:	4d0c      	ldr	r5, [pc, #48]	@ (8004ff4 <HAL_RCC_OscConfig+0x554>)
 8004fc2:	6aeb      	ldr	r3, [r5, #44]	@ 0x2c
 8004fc4:	f023 0301 	bic.w	r3, r3, #1
 8004fc8:	62eb      	str	r3, [r5, #44]	@ 0x2c
 8004fca:	f7fc fd29 	bl	8001a20 <HAL_GetTick>
 8004fce:	4606      	mov	r6, r0
 8004fd0:	f7fc fd26 	bl	8001a20 <HAL_GetTick>
 8004fd4:	42b0      	cmp	r0, r6
 8004fd6:	d0fb      	beq.n	8004fd0 <HAL_RCC_OscConfig+0x530>
 8004fd8:	6b6b      	ldr	r3, [r5, #52]	@ 0x34
 8004fda:	6ca2      	ldr	r2, [r4, #72]	@ 0x48
 8004fdc:	f423 437f 	bic.w	r3, r3, #65280	@ 0xff00
 8004fe0:	f023 03f8 	bic.w	r3, r3, #248	@ 0xf8
 8004fe4:	ea43 03c2 	orr.w	r3, r3, r2, lsl #3
 8004fe8:	636b      	str	r3, [r5, #52]	@ 0x34
 8004fea:	6aeb      	ldr	r3, [r5, #44]	@ 0x2c
 8004fec:	f043 0301 	orr.w	r3, r3, #1
 8004ff0:	62eb      	str	r3, [r5, #44]	@ 0x2c
 8004ff2:	e5b9      	b.n	8004b68 <HAL_RCC_OscConfig+0xc8>
 8004ff4:	58024400 	.word	0x58024400

08004ff8 <HAL_RCC_GetSysClockFreq>:
 8004ff8:	4b49      	ldr	r3, [pc, #292]	@ (8005120 <HAL_RCC_GetSysClockFreq+0x128>)
 8004ffa:	691a      	ldr	r2, [r3, #16]
 8004ffc:	f002 0238 	and.w	r2, r2, #56	@ 0x38
 8005000:	2a10      	cmp	r2, #16
 8005002:	b530      	push	{r4, r5, lr}
 8005004:	f000 8088 	beq.w	8005118 <HAL_RCC_GetSysClockFreq+0x120>
 8005008:	2a18      	cmp	r2, #24
 800500a:	d00c      	beq.n	8005026 <HAL_RCC_GetSysClockFreq+0x2e>
 800500c:	2a00      	cmp	r2, #0
 800500e:	f040 8085 	bne.w	800511c <HAL_RCC_GetSysClockFreq+0x124>
 8005012:	681a      	ldr	r2, [r3, #0]
 8005014:	4843      	ldr	r0, [pc, #268]	@ (8005124 <HAL_RCC_GetSysClockFreq+0x12c>)
 8005016:	f012 0f20 	tst.w	r2, #32
 800501a:	d003      	beq.n	8005024 <HAL_RCC_GetSysClockFreq+0x2c>
 800501c:	681b      	ldr	r3, [r3, #0]
 800501e:	f3c3 03c1 	ubfx	r3, r3, #3, #2
 8005022:	40d8      	lsrs	r0, r3
 8005024:	bd30      	pop	{r4, r5, pc}
 8005026:	6a99      	ldr	r1, [r3, #40]	@ 0x28
 8005028:	6a9d      	ldr	r5, [r3, #40]	@ 0x28
 800502a:	6adc      	ldr	r4, [r3, #44]	@ 0x2c
 800502c:	f415 7f7c 	tst.w	r5, #1008	@ 0x3f0
 8005030:	f3c5 1005 	ubfx	r0, r5, #4, #6
 8005034:	6b5a      	ldr	r2, [r3, #52]	@ 0x34
 8005036:	d0f5      	beq.n	8005024 <HAL_RCC_GetSysClockFreq+0x2c>
 8005038:	f3c2 02cc 	ubfx	r2, r2, #3, #13
 800503c:	f004 0401 	and.w	r4, r4, #1
 8005040:	f001 0103 	and.w	r1, r1, #3
 8005044:	ee07 0a90 	vmov	s15, r0
 8005048:	4362      	muls	r2, r4
 800504a:	eeb7 6a00 	vmov.f32	s12, #112	@ 0x3f800000  1.0
 800504e:	2901      	cmp	r1, #1
 8005050:	eeb8 7ae7 	vcvt.f32.s32	s14, s15
 8005054:	ee06 2a90 	vmov	s13, r2
 8005058:	eefa 6ae9 	vcvt.f32.s32	s13, s13, #13
 800505c:	d04e      	beq.n	80050fc <HAL_RCC_GetSysClockFreq+0x104>
 800505e:	2902      	cmp	r1, #2
 8005060:	d03e      	beq.n	80050e0 <HAL_RCC_GetSysClockFreq+0xe8>
 8005062:	2900      	cmp	r1, #0
 8005064:	d14a      	bne.n	80050fc <HAL_RCC_GetSysClockFreq+0x104>
 8005066:	681a      	ldr	r2, [r3, #0]
 8005068:	0692      	lsls	r2, r2, #26
 800506a:	d527      	bpl.n	80050bc <HAL_RCC_GetSysClockFreq+0xc4>
 800506c:	6819      	ldr	r1, [r3, #0]
 800506e:	4a2d      	ldr	r2, [pc, #180]	@ (8005124 <HAL_RCC_GetSysClockFreq+0x12c>)
 8005070:	f3c1 01c1 	ubfx	r1, r1, #3, #2
 8005074:	6b1b      	ldr	r3, [r3, #48]	@ 0x30
 8005076:	40ca      	lsrs	r2, r1
 8005078:	f3c3 0308 	ubfx	r3, r3, #0, #9
 800507c:	ee07 2a90 	vmov	s15, r2
 8005080:	eef8 5ae7 	vcvt.f32.s32	s11, s15
 8005084:	eec5 7a87 	vdiv.f32	s15, s11, s14
 8005088:	ee07 3a10 	vmov	s14, r3
 800508c:	eeb8 7ac7 	vcvt.f32.s32	s14, s14
 8005090:	ee37 7a26 	vadd.f32	s14, s14, s13
 8005094:	ee37 7a06 	vadd.f32	s14, s14, s12
 8005098:	ee67 7a87 	vmul.f32	s15, s15, s14
 800509c:	4b20      	ldr	r3, [pc, #128]	@ (8005120 <HAL_RCC_GetSysClockFreq+0x128>)
 800509e:	6b1b      	ldr	r3, [r3, #48]	@ 0x30
 80050a0:	f3c3 2346 	ubfx	r3, r3, #9, #7
 80050a4:	3301      	adds	r3, #1
 80050a6:	ee07 3a10 	vmov	s14, r3
 80050aa:	eef8 6ac7 	vcvt.f32.s32	s13, s14
 80050ae:	ee87 7aa6 	vdiv.f32	s14, s15, s13
 80050b2:	eefc 7ac7 	vcvt.u32.f32	s15, s14
 80050b6:	ee17 0a90 	vmov	r0, s15
 80050ba:	e7b3      	b.n	8005024 <HAL_RCC_GetSysClockFreq+0x2c>
 80050bc:	6b1b      	ldr	r3, [r3, #48]	@ 0x30
 80050be:	f3c3 0308 	ubfx	r3, r3, #0, #9
 80050c2:	ee07 3a90 	vmov	s15, r3
 80050c6:	eef8 7ae7 	vcvt.f32.s32	s15, s15
 80050ca:	ee77 7aa6 	vadd.f32	s15, s15, s13
 80050ce:	ee77 7a86 	vadd.f32	s15, s15, s12
 80050d2:	ed9f 6a15 	vldr	s12, [pc, #84]	@ 8005128 <HAL_RCC_GetSysClockFreq+0x130>
 80050d6:	eec6 6a07 	vdiv.f32	s13, s12, s14
 80050da:	ee67 7aa6 	vmul.f32	s15, s15, s13
 80050de:	e7dd      	b.n	800509c <HAL_RCC_GetSysClockFreq+0xa4>
 80050e0:	6b1b      	ldr	r3, [r3, #48]	@ 0x30
 80050e2:	f3c3 0308 	ubfx	r3, r3, #0, #9
 80050e6:	ee07 3a90 	vmov	s15, r3
 80050ea:	eef8 7ae7 	vcvt.f32.s32	s15, s15
 80050ee:	ee77 7aa6 	vadd.f32	s15, s15, s13
 80050f2:	ee77 7a86 	vadd.f32	s15, s15, s12
 80050f6:	ed9f 6a0d 	vldr	s12, [pc, #52]	@ 800512c <HAL_RCC_GetSysClockFreq+0x134>
 80050fa:	e7ec      	b.n	80050d6 <HAL_RCC_GetSysClockFreq+0xde>
 80050fc:	6b1b      	ldr	r3, [r3, #48]	@ 0x30
 80050fe:	f3c3 0308 	ubfx	r3, r3, #0, #9
 8005102:	ee07 3a90 	vmov	s15, r3
 8005106:	eef8 7ae7 	vcvt.f32.s32	s15, s15
 800510a:	ee77 7aa6 	vadd.f32	s15, s15, s13
 800510e:	ee77 7a86 	vadd.f32	s15, s15, s12
 8005112:	ed9f 6a07 	vldr	s12, [pc, #28]	@ 8005130 <HAL_RCC_GetSysClockFreq+0x138>
 8005116:	e7de      	b.n	80050d6 <HAL_RCC_GetSysClockFreq+0xde>
 8005118:	4806      	ldr	r0, [pc, #24]	@ (8005134 <HAL_RCC_GetSysClockFreq+0x13c>)
 800511a:	e783      	b.n	8005024 <HAL_RCC_GetSysClockFreq+0x2c>
 800511c:	4806      	ldr	r0, [pc, #24]	@ (8005138 <HAL_RCC_GetSysClockFreq+0x140>)
 800511e:	e781      	b.n	8005024 <HAL_RCC_GetSysClockFreq+0x2c>
 8005120:	58024400 	.word	0x58024400
 8005124:	03d09000 	.word	0x03d09000
 8005128:	4c742400 	.word	0x4c742400
 800512c:	4af42400 	.word	0x4af42400
 8005130:	4a742400 	.word	0x4a742400
 8005134:	007a1200 	.word	0x007a1200
 8005138:	003d0900 	.word	0x003d0900

0800513c <HAL_RCC_ClockConfig>:
 800513c:	e92d 41f0 	stmdb	sp!, {r4, r5, r6, r7, r8, lr}
 8005140:	460d      	mov	r5, r1
 8005142:	4604      	mov	r4, r0
 8005144:	b910      	cbnz	r0, 800514c <HAL_RCC_ClockConfig+0x10>
 8005146:	2001      	movs	r0, #1
 8005148:	e8bd 81f0 	ldmia.w	sp!, {r4, r5, r6, r7, r8, pc}
 800514c:	4a88      	ldr	r2, [pc, #544]	@ (8005370 <HAL_RCC_ClockConfig+0x234>)
 800514e:	6813      	ldr	r3, [r2, #0]
 8005150:	f003 030f 	and.w	r3, r3, #15
 8005154:	428b      	cmp	r3, r1
 8005156:	f0c0 8093 	bcc.w	8005280 <HAL_RCC_ClockConfig+0x144>
 800515a:	6823      	ldr	r3, [r4, #0]
 800515c:	075f      	lsls	r7, r3, #29
 800515e:	f100 809b 	bmi.w	8005298 <HAL_RCC_ClockConfig+0x15c>
 8005162:	071e      	lsls	r6, r3, #28
 8005164:	d50b      	bpl.n	800517e <HAL_RCC_ClockConfig+0x42>
 8005166:	4983      	ldr	r1, [pc, #524]	@ (8005374 <HAL_RCC_ClockConfig+0x238>)
 8005168:	6960      	ldr	r0, [r4, #20]
 800516a:	69ca      	ldr	r2, [r1, #28]
 800516c:	f002 0270 	and.w	r2, r2, #112	@ 0x70
 8005170:	4290      	cmp	r0, r2
 8005172:	d904      	bls.n	800517e <HAL_RCC_ClockConfig+0x42>
 8005174:	69ca      	ldr	r2, [r1, #28]
 8005176:	f022 0270 	bic.w	r2, r2, #112	@ 0x70
 800517a:	4302      	orrs	r2, r0
 800517c:	61ca      	str	r2, [r1, #28]
 800517e:	06d8      	lsls	r0, r3, #27
 8005180:	d50b      	bpl.n	800519a <HAL_RCC_ClockConfig+0x5e>
 8005182:	497c      	ldr	r1, [pc, #496]	@ (8005374 <HAL_RCC_ClockConfig+0x238>)
 8005184:	69a0      	ldr	r0, [r4, #24]
 8005186:	69ca      	ldr	r2, [r1, #28]
 8005188:	f402 62e0 	and.w	r2, r2, #1792	@ 0x700
 800518c:	4290      	cmp	r0, r2
 800518e:	d904      	bls.n	800519a <HAL_RCC_ClockConfig+0x5e>
 8005190:	69ca      	ldr	r2, [r1, #28]
 8005192:	f422 62e0 	bic.w	r2, r2, #1792	@ 0x700
 8005196:	4302      	orrs	r2, r0
 8005198:	61ca      	str	r2, [r1, #28]
 800519a:	0699      	lsls	r1, r3, #26
 800519c:	d50b      	bpl.n	80051b6 <HAL_RCC_ClockConfig+0x7a>
 800519e:	4975      	ldr	r1, [pc, #468]	@ (8005374 <HAL_RCC_ClockConfig+0x238>)
 80051a0:	69e0      	ldr	r0, [r4, #28]
 80051a2:	6a0a      	ldr	r2, [r1, #32]
 80051a4:	f002 0270 	and.w	r2, r2, #112	@ 0x70
 80051a8:	4290      	cmp	r0, r2
 80051aa:	d904      	bls.n	80051b6 <HAL_RCC_ClockConfig+0x7a>
 80051ac:	6a0a      	ldr	r2, [r1, #32]
 80051ae:	f022 0270 	bic.w	r2, r2, #112	@ 0x70
 80051b2:	4302      	orrs	r2, r0
 80051b4:	620a      	str	r2, [r1, #32]
 80051b6:	079a      	lsls	r2, r3, #30
 80051b8:	d50b      	bpl.n	80051d2 <HAL_RCC_ClockConfig+0x96>
 80051ba:	496e      	ldr	r1, [pc, #440]	@ (8005374 <HAL_RCC_ClockConfig+0x238>)
 80051bc:	68e0      	ldr	r0, [r4, #12]
 80051be:	698a      	ldr	r2, [r1, #24]
 80051c0:	f002 020f 	and.w	r2, r2, #15
 80051c4:	4290      	cmp	r0, r2
 80051c6:	d904      	bls.n	80051d2 <HAL_RCC_ClockConfig+0x96>
 80051c8:	698a      	ldr	r2, [r1, #24]
 80051ca:	f022 020f 	bic.w	r2, r2, #15
 80051ce:	4302      	orrs	r2, r0
 80051d0:	618a      	str	r2, [r1, #24]
 80051d2:	07df      	lsls	r7, r3, #31
 80051d4:	d46e      	bmi.n	80052b4 <HAL_RCC_ClockConfig+0x178>
 80051d6:	6823      	ldr	r3, [r4, #0]
 80051d8:	079e      	lsls	r6, r3, #30
 80051da:	f100 80a1 	bmi.w	8005320 <HAL_RCC_ClockConfig+0x1e4>
 80051de:	4964      	ldr	r1, [pc, #400]	@ (8005370 <HAL_RCC_ClockConfig+0x234>)
 80051e0:	680a      	ldr	r2, [r1, #0]
 80051e2:	f002 020f 	and.w	r2, r2, #15
 80051e6:	42aa      	cmp	r2, r5
 80051e8:	f200 80a8 	bhi.w	800533c <HAL_RCC_ClockConfig+0x200>
 80051ec:	0758      	lsls	r0, r3, #29
 80051ee:	f100 80b1 	bmi.w	8005354 <HAL_RCC_ClockConfig+0x218>
 80051f2:	0719      	lsls	r1, r3, #28
 80051f4:	d50b      	bpl.n	800520e <HAL_RCC_ClockConfig+0xd2>
 80051f6:	495f      	ldr	r1, [pc, #380]	@ (8005374 <HAL_RCC_ClockConfig+0x238>)
 80051f8:	6960      	ldr	r0, [r4, #20]
 80051fa:	69ca      	ldr	r2, [r1, #28]
 80051fc:	f002 0270 	and.w	r2, r2, #112	@ 0x70
 8005200:	4290      	cmp	r0, r2
 8005202:	d204      	bcs.n	800520e <HAL_RCC_ClockConfig+0xd2>
 8005204:	69ca      	ldr	r2, [r1, #28]
 8005206:	f022 0270 	bic.w	r2, r2, #112	@ 0x70
 800520a:	4302      	orrs	r2, r0
 800520c:	61ca      	str	r2, [r1, #28]
 800520e:	06da      	lsls	r2, r3, #27
 8005210:	d50b      	bpl.n	800522a <HAL_RCC_ClockConfig+0xee>
 8005212:	4958      	ldr	r1, [pc, #352]	@ (8005374 <HAL_RCC_ClockConfig+0x238>)
 8005214:	69a0      	ldr	r0, [r4, #24]
 8005216:	69ca      	ldr	r2, [r1, #28]
 8005218:	f402 62e0 	and.w	r2, r2, #1792	@ 0x700
 800521c:	4290      	cmp	r0, r2
 800521e:	d204      	bcs.n	800522a <HAL_RCC_ClockConfig+0xee>
 8005220:	69ca      	ldr	r2, [r1, #28]
 8005222:	f422 62e0 	bic.w	r2, r2, #1792	@ 0x700
 8005226:	4302      	orrs	r2, r0
 8005228:	61ca      	str	r2, [r1, #28]
 800522a:	069b      	lsls	r3, r3, #26
 800522c:	d50b      	bpl.n	8005246 <HAL_RCC_ClockConfig+0x10a>
 800522e:	4a51      	ldr	r2, [pc, #324]	@ (8005374 <HAL_RCC_ClockConfig+0x238>)
 8005230:	69e1      	ldr	r1, [r4, #28]
 8005232:	6a13      	ldr	r3, [r2, #32]
 8005234:	f003 0370 	and.w	r3, r3, #112	@ 0x70
 8005238:	4299      	cmp	r1, r3
 800523a:	d204      	bcs.n	8005246 <HAL_RCC_ClockConfig+0x10a>
 800523c:	6a13      	ldr	r3, [r2, #32]
 800523e:	f023 0370 	bic.w	r3, r3, #112	@ 0x70
 8005242:	430b      	orrs	r3, r1
 8005244:	6213      	str	r3, [r2, #32]
 8005246:	f7ff fed7 	bl	8004ff8 <HAL_RCC_GetSysClockFreq>
 800524a:	494a      	ldr	r1, [pc, #296]	@ (8005374 <HAL_RCC_ClockConfig+0x238>)
 800524c:	4a4a      	ldr	r2, [pc, #296]	@ (8005378 <HAL_RCC_ClockConfig+0x23c>)
 800524e:	698b      	ldr	r3, [r1, #24]
 8005250:	f3c3 2303 	ubfx	r3, r3, #8, #4
 8005254:	5cd3      	ldrb	r3, [r2, r3]
 8005256:	f003 031f 	and.w	r3, r3, #31
 800525a:	40d8      	lsrs	r0, r3
 800525c:	698b      	ldr	r3, [r1, #24]
 800525e:	f003 030f 	and.w	r3, r3, #15
 8005262:	5cd3      	ldrb	r3, [r2, r3]
 8005264:	4a45      	ldr	r2, [pc, #276]	@ (800537c <HAL_RCC_ClockConfig+0x240>)
 8005266:	f003 031f 	and.w	r3, r3, #31
 800526a:	fa20 f303 	lsr.w	r3, r0, r3
 800526e:	6013      	str	r3, [r2, #0]
 8005270:	4b43      	ldr	r3, [pc, #268]	@ (8005380 <HAL_RCC_ClockConfig+0x244>)
 8005272:	6018      	str	r0, [r3, #0]
 8005274:	4b43      	ldr	r3, [pc, #268]	@ (8005384 <HAL_RCC_ClockConfig+0x248>)
 8005276:	e8bd 41f0 	ldmia.w	sp!, {r4, r5, r6, r7, r8, lr}
 800527a:	6818      	ldr	r0, [r3, #0]
 800527c:	f7fc bb70 	b.w	8001960 <HAL_InitTick>
 8005280:	6813      	ldr	r3, [r2, #0]
 8005282:	f023 030f 	bic.w	r3, r3, #15
 8005286:	430b      	orrs	r3, r1
 8005288:	6013      	str	r3, [r2, #0]
 800528a:	6813      	ldr	r3, [r2, #0]
 800528c:	f003 030f 	and.w	r3, r3, #15
 8005290:	428b      	cmp	r3, r1
 8005292:	f47f af58 	bne.w	8005146 <HAL_RCC_ClockConfig+0xa>
 8005296:	e760      	b.n	800515a <HAL_RCC_ClockConfig+0x1e>
 8005298:	4936      	ldr	r1, [pc, #216]	@ (8005374 <HAL_RCC_ClockConfig+0x238>)
 800529a:	6920      	ldr	r0, [r4, #16]
 800529c:	698a      	ldr	r2, [r1, #24]
 800529e:	f002 0270 	and.w	r2, r2, #112	@ 0x70
 80052a2:	4290      	cmp	r0, r2
 80052a4:	f67f af5d 	bls.w	8005162 <HAL_RCC_ClockConfig+0x26>
 80052a8:	698a      	ldr	r2, [r1, #24]
 80052aa:	f022 0270 	bic.w	r2, r2, #112	@ 0x70
 80052ae:	4302      	orrs	r2, r0
 80052b0:	618a      	str	r2, [r1, #24]
 80052b2:	e756      	b.n	8005162 <HAL_RCC_ClockConfig+0x26>
 80052b4:	4b2f      	ldr	r3, [pc, #188]	@ (8005374 <HAL_RCC_ClockConfig+0x238>)
 80052b6:	68a1      	ldr	r1, [r4, #8]
 80052b8:	699a      	ldr	r2, [r3, #24]
 80052ba:	f422 6270 	bic.w	r2, r2, #3840	@ 0xf00
 80052be:	430a      	orrs	r2, r1
 80052c0:	619a      	str	r2, [r3, #24]
 80052c2:	6861      	ldr	r1, [r4, #4]
 80052c4:	681a      	ldr	r2, [r3, #0]
 80052c6:	2902      	cmp	r1, #2
 80052c8:	d11d      	bne.n	8005306 <HAL_RCC_ClockConfig+0x1ca>
 80052ca:	f412 3f00 	tst.w	r2, #131072	@ 0x20000
 80052ce:	f43f af3a 	beq.w	8005146 <HAL_RCC_ClockConfig+0xa>
 80052d2:	691a      	ldr	r2, [r3, #16]
 80052d4:	f241 3888 	movw	r8, #5000	@ 0x1388
 80052d8:	4f26      	ldr	r7, [pc, #152]	@ (8005374 <HAL_RCC_ClockConfig+0x238>)
 80052da:	f022 0207 	bic.w	r2, r2, #7
 80052de:	430a      	orrs	r2, r1
 80052e0:	611a      	str	r2, [r3, #16]
 80052e2:	f7fc fb9d 	bl	8001a20 <HAL_GetTick>
 80052e6:	4606      	mov	r6, r0
 80052e8:	693b      	ldr	r3, [r7, #16]
 80052ea:	6862      	ldr	r2, [r4, #4]
 80052ec:	f003 0338 	and.w	r3, r3, #56	@ 0x38
 80052f0:	ebb3 0fc2 	cmp.w	r3, r2, lsl #3
 80052f4:	f43f af6f 	beq.w	80051d6 <HAL_RCC_ClockConfig+0x9a>
 80052f8:	f7fc fb92 	bl	8001a20 <HAL_GetTick>
 80052fc:	1b80      	subs	r0, r0, r6
 80052fe:	4540      	cmp	r0, r8
 8005300:	d9f2      	bls.n	80052e8 <HAL_RCC_ClockConfig+0x1ac>
 8005302:	2003      	movs	r0, #3
 8005304:	e720      	b.n	8005148 <HAL_RCC_ClockConfig+0xc>
 8005306:	2903      	cmp	r1, #3
 8005308:	d102      	bne.n	8005310 <HAL_RCC_ClockConfig+0x1d4>
 800530a:	f012 7f00 	tst.w	r2, #33554432	@ 0x2000000
 800530e:	e7de      	b.n	80052ce <HAL_RCC_ClockConfig+0x192>
 8005310:	2901      	cmp	r1, #1
 8005312:	d102      	bne.n	800531a <HAL_RCC_ClockConfig+0x1de>
 8005314:	f412 7f80 	tst.w	r2, #256	@ 0x100
 8005318:	e7d9      	b.n	80052ce <HAL_RCC_ClockConfig+0x192>
 800531a:	f012 0f04 	tst.w	r2, #4
 800531e:	e7d6      	b.n	80052ce <HAL_RCC_ClockConfig+0x192>
 8005320:	4914      	ldr	r1, [pc, #80]	@ (8005374 <HAL_RCC_ClockConfig+0x238>)
 8005322:	68e0      	ldr	r0, [r4, #12]
 8005324:	698a      	ldr	r2, [r1, #24]
 8005326:	f002 020f 	and.w	r2, r2, #15
 800532a:	4290      	cmp	r0, r2
 800532c:	f4bf af57 	bcs.w	80051de <HAL_RCC_ClockConfig+0xa2>
 8005330:	698a      	ldr	r2, [r1, #24]
 8005332:	f022 020f 	bic.w	r2, r2, #15
 8005336:	4302      	orrs	r2, r0
 8005338:	618a      	str	r2, [r1, #24]
 800533a:	e750      	b.n	80051de <HAL_RCC_ClockConfig+0xa2>
 800533c:	680a      	ldr	r2, [r1, #0]
 800533e:	f022 020f 	bic.w	r2, r2, #15
 8005342:	432a      	orrs	r2, r5
 8005344:	600a      	str	r2, [r1, #0]
 8005346:	680a      	ldr	r2, [r1, #0]
 8005348:	f002 020f 	and.w	r2, r2, #15
 800534c:	42aa      	cmp	r2, r5
 800534e:	f47f aefa 	bne.w	8005146 <HAL_RCC_ClockConfig+0xa>
 8005352:	e74b      	b.n	80051ec <HAL_RCC_ClockConfig+0xb0>
 8005354:	4907      	ldr	r1, [pc, #28]	@ (8005374 <HAL_RCC_ClockConfig+0x238>)
 8005356:	6920      	ldr	r0, [r4, #16]
 8005358:	698a      	ldr	r2, [r1, #24]
 800535a:	f002 0270 	and.w	r2, r2, #112	@ 0x70
 800535e:	4290      	cmp	r0, r2
 8005360:	f4bf af47 	bcs.w	80051f2 <HAL_RCC_ClockConfig+0xb6>
 8005364:	698a      	ldr	r2, [r1, #24]
 8005366:	f022 0270 	bic.w	r2, r2, #112	@ 0x70
 800536a:	4302      	orrs	r2, r0
 800536c:	618a      	str	r2, [r1, #24]
 800536e:	e740      	b.n	80051f2 <HAL_RCC_ClockConfig+0xb6>
 8005370:	52002000 	.word	0x52002000
 8005374:	58024400 	.word	0x58024400
 8005378:	08007de0 	.word	0x08007de0
 800537c:	24000000 	.word	0x24000000
 8005380:	24000004 	.word	0x24000004
 8005384:	2400000c 	.word	0x2400000c

08005388 <HAL_RCC_GetHCLKFreq>:
 8005388:	b508      	push	{r3, lr}
 800538a:	f7ff fe35 	bl	8004ff8 <HAL_RCC_GetSysClockFreq>
 800538e:	4a0b      	ldr	r2, [pc, #44]	@ (80053bc <HAL_RCC_GetHCLKFreq+0x34>)
 8005390:	490b      	ldr	r1, [pc, #44]	@ (80053c0 <HAL_RCC_GetHCLKFreq+0x38>)
 8005392:	6993      	ldr	r3, [r2, #24]
 8005394:	6992      	ldr	r2, [r2, #24]
 8005396:	f3c3 2303 	ubfx	r3, r3, #8, #4
 800539a:	f002 020f 	and.w	r2, r2, #15
 800539e:	5ccb      	ldrb	r3, [r1, r3]
 80053a0:	f003 031f 	and.w	r3, r3, #31
 80053a4:	fa20 f303 	lsr.w	r3, r0, r3
 80053a8:	5c88      	ldrb	r0, [r1, r2]
 80053aa:	4a06      	ldr	r2, [pc, #24]	@ (80053c4 <HAL_RCC_GetHCLKFreq+0x3c>)
 80053ac:	f000 001f 	and.w	r0, r0, #31
 80053b0:	fa23 f000 	lsr.w	r0, r3, r0
 80053b4:	6010      	str	r0, [r2, #0]
 80053b6:	4a04      	ldr	r2, [pc, #16]	@ (80053c8 <HAL_RCC_GetHCLKFreq+0x40>)
 80053b8:	6013      	str	r3, [r2, #0]
 80053ba:	bd08      	pop	{r3, pc}
 80053bc:	58024400 	.word	0x58024400
 80053c0:	08007de0 	.word	0x08007de0
 80053c4:	24000000 	.word	0x24000000
 80053c8:	24000004 	.word	0x24000004

080053cc <HAL_RCC_GetPCLK1Freq>:
 80053cc:	b508      	push	{r3, lr}
 80053ce:	f7ff ffdb 	bl	8005388 <HAL_RCC_GetHCLKFreq>
 80053d2:	4b05      	ldr	r3, [pc, #20]	@ (80053e8 <HAL_RCC_GetPCLK1Freq+0x1c>)
 80053d4:	4a05      	ldr	r2, [pc, #20]	@ (80053ec <HAL_RCC_GetPCLK1Freq+0x20>)
 80053d6:	69db      	ldr	r3, [r3, #28]
 80053d8:	f3c3 1302 	ubfx	r3, r3, #4, #3
 80053dc:	5cd3      	ldrb	r3, [r2, r3]
 80053de:	f003 031f 	and.w	r3, r3, #31
 80053e2:	40d8      	lsrs	r0, r3
 80053e4:	bd08      	pop	{r3, pc}
 80053e6:	bf00      	nop
 80053e8:	58024400 	.word	0x58024400
 80053ec:	08007de0 	.word	0x08007de0

080053f0 <HAL_RCC_GetPCLK2Freq>:
 80053f0:	b508      	push	{r3, lr}
 80053f2:	f7ff ffc9 	bl	8005388 <HAL_RCC_GetHCLKFreq>
 80053f6:	4b05      	ldr	r3, [pc, #20]	@ (800540c <HAL_RCC_GetPCLK2Freq+0x1c>)
 80053f8:	4a05      	ldr	r2, [pc, #20]	@ (8005410 <HAL_RCC_GetPCLK2Freq+0x20>)
 80053fa:	69db      	ldr	r3, [r3, #28]
 80053fc:	f3c3 2302 	ubfx	r3, r3, #8, #3
 8005400:	5cd3      	ldrb	r3, [r2, r3]
 8005402:	f003 031f 	and.w	r3, r3, #31
 8005406:	40d8      	lsrs	r0, r3
 8005408:	bd08      	pop	{r3, pc}
 800540a:	bf00      	nop
 800540c:	58024400 	.word	0x58024400
 8005410:	08007de0 	.word	0x08007de0

08005414 <RCCEx_PLL2_Config>:
 8005414:	b5f8      	push	{r3, r4, r5, r6, r7, lr}
 8005416:	4c3a      	ldr	r4, [pc, #232]	@ (8005500 <RCCEx_PLL2_Config+0xec>)
 8005418:	4606      	mov	r6, r0
 800541a:	460d      	mov	r5, r1
 800541c:	6aa3      	ldr	r3, [r4, #40]	@ 0x28
 800541e:	f003 0303 	and.w	r3, r3, #3
 8005422:	2b03      	cmp	r3, #3
 8005424:	d069      	beq.n	80054fa <RCCEx_PLL2_Config+0xe6>
 8005426:	6823      	ldr	r3, [r4, #0]
 8005428:	f023 6380 	bic.w	r3, r3, #67108864	@ 0x4000000
 800542c:	6023      	str	r3, [r4, #0]
 800542e:	f7fc faf7 	bl	8001a20 <HAL_GetTick>
 8005432:	4607      	mov	r7, r0
 8005434:	6823      	ldr	r3, [r4, #0]
 8005436:	011a      	lsls	r2, r3, #4
 8005438:	d44b      	bmi.n	80054d2 <RCCEx_PLL2_Config+0xbe>
 800543a:	6aa3      	ldr	r3, [r4, #40]	@ 0x28
 800543c:	6832      	ldr	r2, [r6, #0]
 800543e:	f423 337c 	bic.w	r3, r3, #258048	@ 0x3f000
 8005442:	ea43 3302 	orr.w	r3, r3, r2, lsl #12
 8005446:	62a3      	str	r3, [r4, #40]	@ 0x28
 8005448:	68b3      	ldr	r3, [r6, #8]
 800544a:	68f2      	ldr	r2, [r6, #12]
 800544c:	3b01      	subs	r3, #1
 800544e:	3a01      	subs	r2, #1
 8005450:	025b      	lsls	r3, r3, #9
 8005452:	0412      	lsls	r2, r2, #16
 8005454:	b29b      	uxth	r3, r3
 8005456:	f402 02fe 	and.w	r2, r2, #8323072	@ 0x7f0000
 800545a:	4313      	orrs	r3, r2
 800545c:	6872      	ldr	r2, [r6, #4]
 800545e:	3a01      	subs	r2, #1
 8005460:	f3c2 0208 	ubfx	r2, r2, #0, #9
 8005464:	4313      	orrs	r3, r2
 8005466:	6932      	ldr	r2, [r6, #16]
 8005468:	3a01      	subs	r2, #1
 800546a:	0612      	lsls	r2, r2, #24
 800546c:	f002 42fe 	and.w	r2, r2, #2130706432	@ 0x7f000000
 8005470:	4313      	orrs	r3, r2
 8005472:	63a3      	str	r3, [r4, #56]	@ 0x38
 8005474:	6ae3      	ldr	r3, [r4, #44]	@ 0x2c
 8005476:	6972      	ldr	r2, [r6, #20]
 8005478:	f023 03c0 	bic.w	r3, r3, #192	@ 0xc0
 800547c:	4313      	orrs	r3, r2
 800547e:	62e3      	str	r3, [r4, #44]	@ 0x2c
 8005480:	6ae3      	ldr	r3, [r4, #44]	@ 0x2c
 8005482:	69b2      	ldr	r2, [r6, #24]
 8005484:	f023 0320 	bic.w	r3, r3, #32
 8005488:	4313      	orrs	r3, r2
 800548a:	62e3      	str	r3, [r4, #44]	@ 0x2c
 800548c:	6ae3      	ldr	r3, [r4, #44]	@ 0x2c
 800548e:	f023 0310 	bic.w	r3, r3, #16
 8005492:	62e3      	str	r3, [r4, #44]	@ 0x2c
 8005494:	6be3      	ldr	r3, [r4, #60]	@ 0x3c
 8005496:	69f2      	ldr	r2, [r6, #28]
 8005498:	f423 437f 	bic.w	r3, r3, #65280	@ 0xff00
 800549c:	f023 03f8 	bic.w	r3, r3, #248	@ 0xf8
 80054a0:	ea43 03c2 	orr.w	r3, r3, r2, lsl #3
 80054a4:	63e3      	str	r3, [r4, #60]	@ 0x3c
 80054a6:	6ae3      	ldr	r3, [r4, #44]	@ 0x2c
 80054a8:	f043 0310 	orr.w	r3, r3, #16
 80054ac:	62e3      	str	r3, [r4, #44]	@ 0x2c
 80054ae:	6ae3      	ldr	r3, [r4, #44]	@ 0x2c
 80054b0:	b9b5      	cbnz	r5, 80054e0 <RCCEx_PLL2_Config+0xcc>
 80054b2:	f443 2300 	orr.w	r3, r3, #524288	@ 0x80000
 80054b6:	62e3      	str	r3, [r4, #44]	@ 0x2c
 80054b8:	4c11      	ldr	r4, [pc, #68]	@ (8005500 <RCCEx_PLL2_Config+0xec>)
 80054ba:	6823      	ldr	r3, [r4, #0]
 80054bc:	f043 6380 	orr.w	r3, r3, #67108864	@ 0x4000000
 80054c0:	6023      	str	r3, [r4, #0]
 80054c2:	f7fc faad 	bl	8001a20 <HAL_GetTick>
 80054c6:	4605      	mov	r5, r0
 80054c8:	6823      	ldr	r3, [r4, #0]
 80054ca:	011b      	lsls	r3, r3, #4
 80054cc:	d50f      	bpl.n	80054ee <RCCEx_PLL2_Config+0xda>
 80054ce:	2000      	movs	r0, #0
 80054d0:	e005      	b.n	80054de <RCCEx_PLL2_Config+0xca>
 80054d2:	f7fc faa5 	bl	8001a20 <HAL_GetTick>
 80054d6:	1bc0      	subs	r0, r0, r7
 80054d8:	2802      	cmp	r0, #2
 80054da:	d9ab      	bls.n	8005434 <RCCEx_PLL2_Config+0x20>
 80054dc:	2003      	movs	r0, #3
 80054de:	bdf8      	pop	{r3, r4, r5, r6, r7, pc}
 80054e0:	2d01      	cmp	r5, #1
 80054e2:	bf0c      	ite	eq
 80054e4:	f443 1380 	orreq.w	r3, r3, #1048576	@ 0x100000
 80054e8:	f443 1300 	orrne.w	r3, r3, #2097152	@ 0x200000
 80054ec:	e7e3      	b.n	80054b6 <RCCEx_PLL2_Config+0xa2>
 80054ee:	f7fc fa97 	bl	8001a20 <HAL_GetTick>
 80054f2:	1b40      	subs	r0, r0, r5
 80054f4:	2802      	cmp	r0, #2
 80054f6:	d9e7      	bls.n	80054c8 <RCCEx_PLL2_Config+0xb4>
 80054f8:	e7f0      	b.n	80054dc <RCCEx_PLL2_Config+0xc8>
 80054fa:	2001      	movs	r0, #1
 80054fc:	e7ef      	b.n	80054de <RCCEx_PLL2_Config+0xca>
 80054fe:	bf00      	nop
 8005500:	58024400 	.word	0x58024400

08005504 <RCCEx_PLL3_Config>:
 8005504:	b5f8      	push	{r3, r4, r5, r6, r7, lr}
 8005506:	4c3a      	ldr	r4, [pc, #232]	@ (80055f0 <RCCEx_PLL3_Config+0xec>)
 8005508:	4606      	mov	r6, r0
 800550a:	460d      	mov	r5, r1
 800550c:	6aa3      	ldr	r3, [r4, #40]	@ 0x28
 800550e:	f003 0303 	and.w	r3, r3, #3
 8005512:	2b03      	cmp	r3, #3
 8005514:	d069      	beq.n	80055ea <RCCEx_PLL3_Config+0xe6>
 8005516:	6823      	ldr	r3, [r4, #0]
 8005518:	f023 5380 	bic.w	r3, r3, #268435456	@ 0x10000000
 800551c:	6023      	str	r3, [r4, #0]
 800551e:	f7fc fa7f 	bl	8001a20 <HAL_GetTick>
 8005522:	4607      	mov	r7, r0
 8005524:	6823      	ldr	r3, [r4, #0]
 8005526:	009a      	lsls	r2, r3, #2
 8005528:	d44b      	bmi.n	80055c2 <RCCEx_PLL3_Config+0xbe>
 800552a:	6aa3      	ldr	r3, [r4, #40]	@ 0x28
 800552c:	6832      	ldr	r2, [r6, #0]
 800552e:	f023 737c 	bic.w	r3, r3, #66060288	@ 0x3f00000
 8005532:	ea43 5302 	orr.w	r3, r3, r2, lsl #20
 8005536:	62a3      	str	r3, [r4, #40]	@ 0x28
 8005538:	68b3      	ldr	r3, [r6, #8]
 800553a:	68f2      	ldr	r2, [r6, #12]
 800553c:	3b01      	subs	r3, #1
 800553e:	3a01      	subs	r2, #1
 8005540:	025b      	lsls	r3, r3, #9
 8005542:	0412      	lsls	r2, r2, #16
 8005544:	b29b      	uxth	r3, r3
 8005546:	f402 02fe 	and.w	r2, r2, #8323072	@ 0x7f0000
 800554a:	4313      	orrs	r3, r2
 800554c:	6872      	ldr	r2, [r6, #4]
 800554e:	3a01      	subs	r2, #1
 8005550:	f3c2 0208 	ubfx	r2, r2, #0, #9
 8005554:	4313      	orrs	r3, r2
 8005556:	6932      	ldr	r2, [r6, #16]
 8005558:	3a01      	subs	r2, #1
 800555a:	0612      	lsls	r2, r2, #24
 800555c:	f002 42fe 	and.w	r2, r2, #2130706432	@ 0x7f000000
 8005560:	4313      	orrs	r3, r2
 8005562:	6423      	str	r3, [r4, #64]	@ 0x40
 8005564:	6ae3      	ldr	r3, [r4, #44]	@ 0x2c
 8005566:	6972      	ldr	r2, [r6, #20]
 8005568:	f423 6340 	bic.w	r3, r3, #3072	@ 0xc00
 800556c:	4313      	orrs	r3, r2
 800556e:	62e3      	str	r3, [r4, #44]	@ 0x2c
 8005570:	6ae3      	ldr	r3, [r4, #44]	@ 0x2c
 8005572:	69b2      	ldr	r2, [r6, #24]
 8005574:	f423 7300 	bic.w	r3, r3, #512	@ 0x200
 8005578:	4313      	orrs	r3, r2
 800557a:	62e3      	str	r3, [r4, #44]	@ 0x2c
 800557c:	6ae3      	ldr	r3, [r4, #44]	@ 0x2c
 800557e:	f423 7380 	bic.w	r3, r3, #256	@ 0x100
 8005582:	62e3      	str	r3, [r4, #44]	@ 0x2c
 8005584:	6c63      	ldr	r3, [r4, #68]	@ 0x44
 8005586:	69f2      	ldr	r2, [r6, #28]
 8005588:	f423 437f 	bic.w	r3, r3, #65280	@ 0xff00
 800558c:	f023 03f8 	bic.w	r3, r3, #248	@ 0xf8
 8005590:	ea43 03c2 	orr.w	r3, r3, r2, lsl #3
 8005594:	6463      	str	r3, [r4, #68]	@ 0x44
 8005596:	6ae3      	ldr	r3, [r4, #44]	@ 0x2c
 8005598:	f443 7380 	orr.w	r3, r3, #256	@ 0x100
 800559c:	62e3      	str	r3, [r4, #44]	@ 0x2c
 800559e:	6ae3      	ldr	r3, [r4, #44]	@ 0x2c
 80055a0:	b9b5      	cbnz	r5, 80055d0 <RCCEx_PLL3_Config+0xcc>
 80055a2:	f443 0380 	orr.w	r3, r3, #4194304	@ 0x400000
 80055a6:	62e3      	str	r3, [r4, #44]	@ 0x2c
 80055a8:	4c11      	ldr	r4, [pc, #68]	@ (80055f0 <RCCEx_PLL3_Config+0xec>)
 80055aa:	6823      	ldr	r3, [r4, #0]
 80055ac:	f043 5380 	orr.w	r3, r3, #268435456	@ 0x10000000
 80055b0:	6023      	str	r3, [r4, #0]
 80055b2:	f7fc fa35 	bl	8001a20 <HAL_GetTick>
 80055b6:	4605      	mov	r5, r0
 80055b8:	6823      	ldr	r3, [r4, #0]
 80055ba:	009b      	lsls	r3, r3, #2
 80055bc:	d50f      	bpl.n	80055de <RCCEx_PLL3_Config+0xda>
 80055be:	2000      	movs	r0, #0
 80055c0:	e005      	b.n	80055ce <RCCEx_PLL3_Config+0xca>
 80055c2:	f7fc fa2d 	bl	8001a20 <HAL_GetTick>
 80055c6:	1bc0      	subs	r0, r0, r7
 80055c8:	2802      	cmp	r0, #2
 80055ca:	d9ab      	bls.n	8005524 <RCCEx_PLL3_Config+0x20>
 80055cc:	2003      	movs	r0, #3
 80055ce:	bdf8      	pop	{r3, r4, r5, r6, r7, pc}
 80055d0:	2d01      	cmp	r5, #1
 80055d2:	bf0c      	ite	eq
 80055d4:	f443 0300 	orreq.w	r3, r3, #8388608	@ 0x800000
 80055d8:	f043 7380 	orrne.w	r3, r3, #16777216	@ 0x1000000
 80055dc:	e7e3      	b.n	80055a6 <RCCEx_PLL3_Config+0xa2>
 80055de:	f7fc fa1f 	bl	8001a20 <HAL_GetTick>
 80055e2:	1b40      	subs	r0, r0, r5
 80055e4:	2802      	cmp	r0, #2
 80055e6:	d9e7      	bls.n	80055b8 <RCCEx_PLL3_Config+0xb4>
 80055e8:	e7f0      	b.n	80055cc <RCCEx_PLL3_Config+0xc8>
 80055ea:	2001      	movs	r0, #1
 80055ec:	e7ef      	b.n	80055ce <RCCEx_PLL3_Config+0xca>
 80055ee:	bf00      	nop
 80055f0:	58024400 	.word	0x58024400

080055f4 <HAL_RCCEx_PeriphCLKConfig>:
 80055f4:	e92d 43f8 	stmdb	sp!, {r3, r4, r5, r6, r7, r8, r9, lr}
 80055f8:	6803      	ldr	r3, [r0, #0]
 80055fa:	4605      	mov	r5, r0
 80055fc:	0118      	lsls	r0, r3, #4
 80055fe:	d51e      	bpl.n	800563e <HAL_RCCEx_PeriphCLKConfig+0x4a>
 8005600:	6eab      	ldr	r3, [r5, #104]	@ 0x68
 8005602:	f5b3 1f00 	cmp.w	r3, #2097152	@ 0x200000
 8005606:	d02b      	beq.n	8005660 <HAL_RCCEx_PeriphCLKConfig+0x6c>
 8005608:	d80f      	bhi.n	800562a <HAL_RCCEx_PeriphCLKConfig+0x36>
 800560a:	b1d3      	cbz	r3, 8005642 <HAL_RCCEx_PeriphCLKConfig+0x4e>
 800560c:	f5b3 1f80 	cmp.w	r3, #1048576	@ 0x100000
 8005610:	d01d      	beq.n	800564e <HAL_RCCEx_PeriphCLKConfig+0x5a>
 8005612:	2601      	movs	r6, #1
 8005614:	682b      	ldr	r3, [r5, #0]
 8005616:	05d9      	lsls	r1, r3, #23
 8005618:	d551      	bpl.n	80056be <HAL_RCCEx_PeriphCLKConfig+0xca>
 800561a:	6dab      	ldr	r3, [r5, #88]	@ 0x58
 800561c:	2b04      	cmp	r3, #4
 800561e:	d84d      	bhi.n	80056bc <HAL_RCCEx_PeriphCLKConfig+0xc8>
 8005620:	e8df f003 	tbb	[pc, r3]
 8005624:	29463f24 	.word	0x29463f24
 8005628:	29          	.byte	0x29
 8005629:	00          	.byte	0x00
 800562a:	f5b3 1f40 	cmp.w	r3, #3145728	@ 0x300000
 800562e:	d1f0      	bne.n	8005612 <HAL_RCCEx_PeriphCLKConfig+0x1e>
 8005630:	4a85      	ldr	r2, [pc, #532]	@ (8005848 <HAL_RCCEx_PeriphCLKConfig+0x254>)
 8005632:	6ea9      	ldr	r1, [r5, #104]	@ 0x68
 8005634:	6d13      	ldr	r3, [r2, #80]	@ 0x50
 8005636:	f423 1340 	bic.w	r3, r3, #3145728	@ 0x300000
 800563a:	430b      	orrs	r3, r1
 800563c:	6513      	str	r3, [r2, #80]	@ 0x50
 800563e:	2600      	movs	r6, #0
 8005640:	e7e8      	b.n	8005614 <HAL_RCCEx_PeriphCLKConfig+0x20>
 8005642:	4a81      	ldr	r2, [pc, #516]	@ (8005848 <HAL_RCCEx_PeriphCLKConfig+0x254>)
 8005644:	6ad3      	ldr	r3, [r2, #44]	@ 0x2c
 8005646:	f443 3300 	orr.w	r3, r3, #131072	@ 0x20000
 800564a:	62d3      	str	r3, [r2, #44]	@ 0x2c
 800564c:	e7f0      	b.n	8005630 <HAL_RCCEx_PeriphCLKConfig+0x3c>
 800564e:	2102      	movs	r1, #2
 8005650:	f105 0008 	add.w	r0, r5, #8
 8005654:	f7ff fede 	bl	8005414 <RCCEx_PLL2_Config>
 8005658:	4606      	mov	r6, r0
 800565a:	2800      	cmp	r0, #0
 800565c:	d1da      	bne.n	8005614 <HAL_RCCEx_PeriphCLKConfig+0x20>
 800565e:	e7e7      	b.n	8005630 <HAL_RCCEx_PeriphCLKConfig+0x3c>
 8005660:	2102      	movs	r1, #2
 8005662:	f105 0028 	add.w	r0, r5, #40	@ 0x28
 8005666:	f7ff ff4d 	bl	8005504 <RCCEx_PLL3_Config>
 800566a:	e7f5      	b.n	8005658 <HAL_RCCEx_PeriphCLKConfig+0x64>
 800566c:	4a76      	ldr	r2, [pc, #472]	@ (8005848 <HAL_RCCEx_PeriphCLKConfig+0x254>)
 800566e:	6ad3      	ldr	r3, [r2, #44]	@ 0x2c
 8005670:	f443 3300 	orr.w	r3, r3, #131072	@ 0x20000
 8005674:	62d3      	str	r3, [r2, #44]	@ 0x2c
 8005676:	4634      	mov	r4, r6
 8005678:	bb1c      	cbnz	r4, 80056c2 <HAL_RCCEx_PeriphCLKConfig+0xce>
 800567a:	4a73      	ldr	r2, [pc, #460]	@ (8005848 <HAL_RCCEx_PeriphCLKConfig+0x254>)
 800567c:	6da9      	ldr	r1, [r5, #88]	@ 0x58
 800567e:	6d13      	ldr	r3, [r2, #80]	@ 0x50
 8005680:	f023 0307 	bic.w	r3, r3, #7
 8005684:	430b      	orrs	r3, r1
 8005686:	6513      	str	r3, [r2, #80]	@ 0x50
 8005688:	682b      	ldr	r3, [r5, #0]
 800568a:	059a      	lsls	r2, r3, #22
 800568c:	d528      	bpl.n	80056e0 <HAL_RCCEx_PeriphCLKConfig+0xec>
 800568e:	6deb      	ldr	r3, [r5, #92]	@ 0x5c
 8005690:	2b80      	cmp	r3, #128	@ 0x80
 8005692:	d043      	beq.n	800571c <HAL_RCCEx_PeriphCLKConfig+0x128>
 8005694:	d817      	bhi.n	80056c6 <HAL_RCCEx_PeriphCLKConfig+0xd2>
 8005696:	b3a3      	cbz	r3, 8005702 <HAL_RCCEx_PeriphCLKConfig+0x10e>
 8005698:	2b40      	cmp	r3, #64	@ 0x40
 800569a:	d038      	beq.n	800570e <HAL_RCCEx_PeriphCLKConfig+0x11a>
 800569c:	2601      	movs	r6, #1
 800569e:	4634      	mov	r4, r6
 80056a0:	e01e      	b.n	80056e0 <HAL_RCCEx_PeriphCLKConfig+0xec>
 80056a2:	2100      	movs	r1, #0
 80056a4:	f105 0008 	add.w	r0, r5, #8
 80056a8:	f7ff feb4 	bl	8005414 <RCCEx_PLL2_Config>
 80056ac:	4604      	mov	r4, r0
 80056ae:	e7e3      	b.n	8005678 <HAL_RCCEx_PeriphCLKConfig+0x84>
 80056b0:	2100      	movs	r1, #0
 80056b2:	f105 0028 	add.w	r0, r5, #40	@ 0x28
 80056b6:	f7ff ff25 	bl	8005504 <RCCEx_PLL3_Config>
 80056ba:	e7f7      	b.n	80056ac <HAL_RCCEx_PeriphCLKConfig+0xb8>
 80056bc:	2601      	movs	r6, #1
 80056be:	4634      	mov	r4, r6
 80056c0:	e7e2      	b.n	8005688 <HAL_RCCEx_PeriphCLKConfig+0x94>
 80056c2:	4626      	mov	r6, r4
 80056c4:	e7e0      	b.n	8005688 <HAL_RCCEx_PeriphCLKConfig+0x94>
 80056c6:	2bc0      	cmp	r3, #192	@ 0xc0
 80056c8:	d002      	beq.n	80056d0 <HAL_RCCEx_PeriphCLKConfig+0xdc>
 80056ca:	f5b3 7f80 	cmp.w	r3, #256	@ 0x100
 80056ce:	d1e5      	bne.n	800569c <HAL_RCCEx_PeriphCLKConfig+0xa8>
 80056d0:	bb54      	cbnz	r4, 8005728 <HAL_RCCEx_PeriphCLKConfig+0x134>
 80056d2:	4a5d      	ldr	r2, [pc, #372]	@ (8005848 <HAL_RCCEx_PeriphCLKConfig+0x254>)
 80056d4:	6de9      	ldr	r1, [r5, #92]	@ 0x5c
 80056d6:	6d13      	ldr	r3, [r2, #80]	@ 0x50
 80056d8:	f423 73e0 	bic.w	r3, r3, #448	@ 0x1c0
 80056dc:	430b      	orrs	r3, r1
 80056de:	6513      	str	r3, [r2, #80]	@ 0x50
 80056e0:	682b      	ldr	r3, [r5, #0]
 80056e2:	055b      	lsls	r3, r3, #21
 80056e4:	d531      	bpl.n	800574a <HAL_RCCEx_PeriphCLKConfig+0x156>
 80056e6:	f8d5 30a8 	ldr.w	r3, [r5, #168]	@ 0xa8
 80056ea:	f5b3 0f80 	cmp.w	r3, #4194304	@ 0x400000
 80056ee:	d049      	beq.n	8005784 <HAL_RCCEx_PeriphCLKConfig+0x190>
 80056f0:	d81c      	bhi.n	800572c <HAL_RCCEx_PeriphCLKConfig+0x138>
 80056f2:	2b00      	cmp	r3, #0
 80056f4:	d039      	beq.n	800576a <HAL_RCCEx_PeriphCLKConfig+0x176>
 80056f6:	f5b3 1f00 	cmp.w	r3, #2097152	@ 0x200000
 80056fa:	d03c      	beq.n	8005776 <HAL_RCCEx_PeriphCLKConfig+0x182>
 80056fc:	2601      	movs	r6, #1
 80056fe:	4634      	mov	r4, r6
 8005700:	e023      	b.n	800574a <HAL_RCCEx_PeriphCLKConfig+0x156>
 8005702:	4a51      	ldr	r2, [pc, #324]	@ (8005848 <HAL_RCCEx_PeriphCLKConfig+0x254>)
 8005704:	6ad3      	ldr	r3, [r2, #44]	@ 0x2c
 8005706:	f443 3300 	orr.w	r3, r3, #131072	@ 0x20000
 800570a:	62d3      	str	r3, [r2, #44]	@ 0x2c
 800570c:	e7e0      	b.n	80056d0 <HAL_RCCEx_PeriphCLKConfig+0xdc>
 800570e:	2100      	movs	r1, #0
 8005710:	f105 0008 	add.w	r0, r5, #8
 8005714:	f7ff fe7e 	bl	8005414 <RCCEx_PLL2_Config>
 8005718:	4604      	mov	r4, r0
 800571a:	e7d9      	b.n	80056d0 <HAL_RCCEx_PeriphCLKConfig+0xdc>
 800571c:	2100      	movs	r1, #0
 800571e:	f105 0028 	add.w	r0, r5, #40	@ 0x28
 8005722:	f7ff feef 	bl	8005504 <RCCEx_PLL3_Config>
 8005726:	e7f7      	b.n	8005718 <HAL_RCCEx_PeriphCLKConfig+0x124>
 8005728:	4626      	mov	r6, r4
 800572a:	e7d9      	b.n	80056e0 <HAL_RCCEx_PeriphCLKConfig+0xec>
 800572c:	f5b3 0fc0 	cmp.w	r3, #6291456	@ 0x600000
 8005730:	d002      	beq.n	8005738 <HAL_RCCEx_PeriphCLKConfig+0x144>
 8005732:	f5b3 0f00 	cmp.w	r3, #8388608	@ 0x800000
 8005736:	d1e1      	bne.n	80056fc <HAL_RCCEx_PeriphCLKConfig+0x108>
 8005738:	bb54      	cbnz	r4, 8005790 <HAL_RCCEx_PeriphCLKConfig+0x19c>
 800573a:	4a43      	ldr	r2, [pc, #268]	@ (8005848 <HAL_RCCEx_PeriphCLKConfig+0x254>)
 800573c:	f8d5 10a8 	ldr.w	r1, [r5, #168]	@ 0xa8
 8005740:	6d93      	ldr	r3, [r2, #88]	@ 0x58
 8005742:	f423 0360 	bic.w	r3, r3, #14680064	@ 0xe00000
 8005746:	430b      	orrs	r3, r1
 8005748:	6593      	str	r3, [r2, #88]	@ 0x58
 800574a:	682b      	ldr	r3, [r5, #0]
 800574c:	051f      	lsls	r7, r3, #20
 800574e:	d530      	bpl.n	80057b2 <HAL_RCCEx_PeriphCLKConfig+0x1be>
 8005750:	f8d5 30ac 	ldr.w	r3, [r5, #172]	@ 0xac
 8005754:	f1b3 7f00 	cmp.w	r3, #33554432	@ 0x2000000
 8005758:	d045      	beq.n	80057e6 <HAL_RCCEx_PeriphCLKConfig+0x1f2>
 800575a:	d81b      	bhi.n	8005794 <HAL_RCCEx_PeriphCLKConfig+0x1a0>
 800575c:	b3b3      	cbz	r3, 80057cc <HAL_RCCEx_PeriphCLKConfig+0x1d8>
 800575e:	f1b3 7f80 	cmp.w	r3, #16777216	@ 0x1000000
 8005762:	d039      	beq.n	80057d8 <HAL_RCCEx_PeriphCLKConfig+0x1e4>
 8005764:	2601      	movs	r6, #1
 8005766:	4634      	mov	r4, r6
 8005768:	e023      	b.n	80057b2 <HAL_RCCEx_PeriphCLKConfig+0x1be>
 800576a:	4a37      	ldr	r2, [pc, #220]	@ (8005848 <HAL_RCCEx_PeriphCLKConfig+0x254>)
 800576c:	6ad3      	ldr	r3, [r2, #44]	@ 0x2c
 800576e:	f443 3300 	orr.w	r3, r3, #131072	@ 0x20000
 8005772:	62d3      	str	r3, [r2, #44]	@ 0x2c
 8005774:	e7e0      	b.n	8005738 <HAL_RCCEx_PeriphCLKConfig+0x144>
 8005776:	2100      	movs	r1, #0
 8005778:	f105 0008 	add.w	r0, r5, #8
 800577c:	f7ff fe4a 	bl	8005414 <RCCEx_PLL2_Config>
 8005780:	4604      	mov	r4, r0
 8005782:	e7d9      	b.n	8005738 <HAL_RCCEx_PeriphCLKConfig+0x144>
 8005784:	2100      	movs	r1, #0
 8005786:	f105 0028 	add.w	r0, r5, #40	@ 0x28
 800578a:	f7ff febb 	bl	8005504 <RCCEx_PLL3_Config>
 800578e:	e7f7      	b.n	8005780 <HAL_RCCEx_PeriphCLKConfig+0x18c>
 8005790:	4626      	mov	r6, r4
 8005792:	e7da      	b.n	800574a <HAL_RCCEx_PeriphCLKConfig+0x156>
 8005794:	f1b3 7f40 	cmp.w	r3, #50331648	@ 0x3000000
 8005798:	d002      	beq.n	80057a0 <HAL_RCCEx_PeriphCLKConfig+0x1ac>
 800579a:	f1b3 6f80 	cmp.w	r3, #67108864	@ 0x4000000
 800579e:	d1e1      	bne.n	8005764 <HAL_RCCEx_PeriphCLKConfig+0x170>
 80057a0:	bb3c      	cbnz	r4, 80057f2 <HAL_RCCEx_PeriphCLKConfig+0x1fe>
 80057a2:	4a29      	ldr	r2, [pc, #164]	@ (8005848 <HAL_RCCEx_PeriphCLKConfig+0x254>)
 80057a4:	f8d5 10ac 	ldr.w	r1, [r5, #172]	@ 0xac
 80057a8:	6d93      	ldr	r3, [r2, #88]	@ 0x58
 80057aa:	f023 63e0 	bic.w	r3, r3, #117440512	@ 0x7000000
 80057ae:	430b      	orrs	r3, r1
 80057b0:	6593      	str	r3, [r2, #88]	@ 0x58
 80057b2:	682b      	ldr	r3, [r5, #0]
 80057b4:	0198      	lsls	r0, r3, #6
 80057b6:	d528      	bpl.n	800580a <HAL_RCCEx_PeriphCLKConfig+0x216>
 80057b8:	6ceb      	ldr	r3, [r5, #76]	@ 0x4c
 80057ba:	2b20      	cmp	r3, #32
 80057bc:	d03b      	beq.n	8005836 <HAL_RCCEx_PeriphCLKConfig+0x242>
 80057be:	d81a      	bhi.n	80057f6 <HAL_RCCEx_PeriphCLKConfig+0x202>
 80057c0:	b1db      	cbz	r3, 80057fa <HAL_RCCEx_PeriphCLKConfig+0x206>
 80057c2:	2b10      	cmp	r3, #16
 80057c4:	d031      	beq.n	800582a <HAL_RCCEx_PeriphCLKConfig+0x236>
 80057c6:	2601      	movs	r6, #1
 80057c8:	4634      	mov	r4, r6
 80057ca:	e01e      	b.n	800580a <HAL_RCCEx_PeriphCLKConfig+0x216>
 80057cc:	4a1e      	ldr	r2, [pc, #120]	@ (8005848 <HAL_RCCEx_PeriphCLKConfig+0x254>)
 80057ce:	6ad3      	ldr	r3, [r2, #44]	@ 0x2c
 80057d0:	f443 3300 	orr.w	r3, r3, #131072	@ 0x20000
 80057d4:	62d3      	str	r3, [r2, #44]	@ 0x2c
 80057d6:	e7e3      	b.n	80057a0 <HAL_RCCEx_PeriphCLKConfig+0x1ac>
 80057d8:	2100      	movs	r1, #0
 80057da:	f105 0008 	add.w	r0, r5, #8
 80057de:	f7ff fe19 	bl	8005414 <RCCEx_PLL2_Config>
 80057e2:	4604      	mov	r4, r0
 80057e4:	e7dc      	b.n	80057a0 <HAL_RCCEx_PeriphCLKConfig+0x1ac>
 80057e6:	2100      	movs	r1, #0
 80057e8:	f105 0028 	add.w	r0, r5, #40	@ 0x28
 80057ec:	f7ff fe8a 	bl	8005504 <RCCEx_PLL3_Config>
 80057f0:	e7f7      	b.n	80057e2 <HAL_RCCEx_PeriphCLKConfig+0x1ee>
 80057f2:	4626      	mov	r6, r4
 80057f4:	e7dd      	b.n	80057b2 <HAL_RCCEx_PeriphCLKConfig+0x1be>
 80057f6:	2b30      	cmp	r3, #48	@ 0x30
 80057f8:	d1e5      	bne.n	80057c6 <HAL_RCCEx_PeriphCLKConfig+0x1d2>
 80057fa:	bb1c      	cbnz	r4, 8005844 <HAL_RCCEx_PeriphCLKConfig+0x250>
 80057fc:	4a12      	ldr	r2, [pc, #72]	@ (8005848 <HAL_RCCEx_PeriphCLKConfig+0x254>)
 80057fe:	6ce9      	ldr	r1, [r5, #76]	@ 0x4c
 8005800:	6cd3      	ldr	r3, [r2, #76]	@ 0x4c
 8005802:	f023 0330 	bic.w	r3, r3, #48	@ 0x30
 8005806:	430b      	orrs	r3, r1
 8005808:	64d3      	str	r3, [r2, #76]	@ 0x4c
 800580a:	682b      	ldr	r3, [r5, #0]
 800580c:	04d9      	lsls	r1, r3, #19
 800580e:	d52c      	bpl.n	800586a <HAL_RCCEx_PeriphCLKConfig+0x276>
 8005810:	6e2b      	ldr	r3, [r5, #96]	@ 0x60
 8005812:	f5b3 5f00 	cmp.w	r3, #8192	@ 0x2000
 8005816:	d076      	beq.n	8005906 <HAL_RCCEx_PeriphCLKConfig+0x312>
 8005818:	d818      	bhi.n	800584c <HAL_RCCEx_PeriphCLKConfig+0x258>
 800581a:	2b00      	cmp	r3, #0
 800581c:	d066      	beq.n	80058ec <HAL_RCCEx_PeriphCLKConfig+0x2f8>
 800581e:	f5b3 5f80 	cmp.w	r3, #4096	@ 0x1000
 8005822:	d069      	beq.n	80058f8 <HAL_RCCEx_PeriphCLKConfig+0x304>
 8005824:	2601      	movs	r6, #1
 8005826:	4634      	mov	r4, r6
 8005828:	e01f      	b.n	800586a <HAL_RCCEx_PeriphCLKConfig+0x276>
 800582a:	4a07      	ldr	r2, [pc, #28]	@ (8005848 <HAL_RCCEx_PeriphCLKConfig+0x254>)
 800582c:	6ad3      	ldr	r3, [r2, #44]	@ 0x2c
 800582e:	f443 3300 	orr.w	r3, r3, #131072	@ 0x20000
 8005832:	62d3      	str	r3, [r2, #44]	@ 0x2c
 8005834:	e7e1      	b.n	80057fa <HAL_RCCEx_PeriphCLKConfig+0x206>
 8005836:	2102      	movs	r1, #2
 8005838:	f105 0008 	add.w	r0, r5, #8
 800583c:	f7ff fdea 	bl	8005414 <RCCEx_PLL2_Config>
 8005840:	4604      	mov	r4, r0
 8005842:	e7da      	b.n	80057fa <HAL_RCCEx_PeriphCLKConfig+0x206>
 8005844:	4626      	mov	r6, r4
 8005846:	e7e0      	b.n	800580a <HAL_RCCEx_PeriphCLKConfig+0x216>
 8005848:	58024400 	.word	0x58024400
 800584c:	f5b3 5f40 	cmp.w	r3, #12288	@ 0x3000
 8005850:	d002      	beq.n	8005858 <HAL_RCCEx_PeriphCLKConfig+0x264>
 8005852:	f5b3 4f80 	cmp.w	r3, #16384	@ 0x4000
 8005856:	d1e5      	bne.n	8005824 <HAL_RCCEx_PeriphCLKConfig+0x230>
 8005858:	2c00      	cmp	r4, #0
 800585a:	d15a      	bne.n	8005912 <HAL_RCCEx_PeriphCLKConfig+0x31e>
 800585c:	4a9e      	ldr	r2, [pc, #632]	@ (8005ad8 <HAL_RCCEx_PeriphCLKConfig+0x4e4>)
 800585e:	6e29      	ldr	r1, [r5, #96]	@ 0x60
 8005860:	6d13      	ldr	r3, [r2, #80]	@ 0x50
 8005862:	f423 43e0 	bic.w	r3, r3, #28672	@ 0x7000
 8005866:	430b      	orrs	r3, r1
 8005868:	6513      	str	r3, [r2, #80]	@ 0x50
 800586a:	682b      	ldr	r3, [r5, #0]
 800586c:	049a      	lsls	r2, r3, #18
 800586e:	d50b      	bpl.n	8005888 <HAL_RCCEx_PeriphCLKConfig+0x294>
 8005870:	6e6b      	ldr	r3, [r5, #100]	@ 0x64
 8005872:	f5b3 3f00 	cmp.w	r3, #131072	@ 0x20000
 8005876:	d066      	beq.n	8005946 <HAL_RCCEx_PeriphCLKConfig+0x352>
 8005878:	d84d      	bhi.n	8005916 <HAL_RCCEx_PeriphCLKConfig+0x322>
 800587a:	2b00      	cmp	r3, #0
 800587c:	d053      	beq.n	8005926 <HAL_RCCEx_PeriphCLKConfig+0x332>
 800587e:	f5b3 3f80 	cmp.w	r3, #65536	@ 0x10000
 8005882:	d059      	beq.n	8005938 <HAL_RCCEx_PeriphCLKConfig+0x344>
 8005884:	2601      	movs	r6, #1
 8005886:	4634      	mov	r4, r6
 8005888:	682b      	ldr	r3, [r5, #0]
 800588a:	045b      	lsls	r3, r3, #17
 800588c:	d50c      	bpl.n	80058a8 <HAL_RCCEx_PeriphCLKConfig+0x2b4>
 800588e:	f8d5 30b0 	ldr.w	r3, [r5, #176]	@ 0xb0
 8005892:	f1b3 5f00 	cmp.w	r3, #536870912	@ 0x20000000
 8005896:	d077      	beq.n	8005988 <HAL_RCCEx_PeriphCLKConfig+0x394>
 8005898:	d85d      	bhi.n	8005956 <HAL_RCCEx_PeriphCLKConfig+0x362>
 800589a:	2b00      	cmp	r3, #0
 800589c:	d063      	beq.n	8005966 <HAL_RCCEx_PeriphCLKConfig+0x372>
 800589e:	f1b3 5f80 	cmp.w	r3, #268435456	@ 0x10000000
 80058a2:	d06a      	beq.n	800597a <HAL_RCCEx_PeriphCLKConfig+0x386>
 80058a4:	2601      	movs	r6, #1
 80058a6:	4634      	mov	r4, r6
 80058a8:	682b      	ldr	r3, [r5, #0]
 80058aa:	041f      	lsls	r7, r3, #16
 80058ac:	d511      	bpl.n	80058d2 <HAL_RCCEx_PeriphCLKConfig+0x2de>
 80058ae:	6f2b      	ldr	r3, [r5, #112]	@ 0x70
 80058b0:	f1b3 5f80 	cmp.w	r3, #268435456	@ 0x10000000
 80058b4:	d070      	beq.n	8005998 <HAL_RCCEx_PeriphCLKConfig+0x3a4>
 80058b6:	f1b3 5f00 	cmp.w	r3, #536870912	@ 0x20000000
 80058ba:	d073      	beq.n	80059a4 <HAL_RCCEx_PeriphCLKConfig+0x3b0>
 80058bc:	2b00      	cmp	r3, #0
 80058be:	d178      	bne.n	80059b2 <HAL_RCCEx_PeriphCLKConfig+0x3be>
 80058c0:	2c00      	cmp	r4, #0
 80058c2:	d179      	bne.n	80059b8 <HAL_RCCEx_PeriphCLKConfig+0x3c4>
 80058c4:	4a84      	ldr	r2, [pc, #528]	@ (8005ad8 <HAL_RCCEx_PeriphCLKConfig+0x4e4>)
 80058c6:	6f29      	ldr	r1, [r5, #112]	@ 0x70
 80058c8:	6d13      	ldr	r3, [r2, #80]	@ 0x50
 80058ca:	f023 5340 	bic.w	r3, r3, #805306368	@ 0x30000000
 80058ce:	430b      	orrs	r3, r1
 80058d0:	6513      	str	r3, [r2, #80]	@ 0x50
 80058d2:	682b      	ldr	r3, [r5, #0]
 80058d4:	01d8      	lsls	r0, r3, #7
 80058d6:	d57f      	bpl.n	80059d8 <HAL_RCCEx_PeriphCLKConfig+0x3e4>
 80058d8:	6cab      	ldr	r3, [r5, #72]	@ 0x48
 80058da:	2b03      	cmp	r3, #3
 80058dc:	f200 80d8 	bhi.w	8005a90 <HAL_RCCEx_PeriphCLKConfig+0x49c>
 80058e0:	e8df f013 	tbh	[pc, r3, lsl #1]
 80058e4:	006c0071 	.word	0x006c0071
 80058e8:	007100cf 	.word	0x007100cf
 80058ec:	4a7a      	ldr	r2, [pc, #488]	@ (8005ad8 <HAL_RCCEx_PeriphCLKConfig+0x4e4>)
 80058ee:	6ad3      	ldr	r3, [r2, #44]	@ 0x2c
 80058f0:	f443 3300 	orr.w	r3, r3, #131072	@ 0x20000
 80058f4:	62d3      	str	r3, [r2, #44]	@ 0x2c
 80058f6:	e7af      	b.n	8005858 <HAL_RCCEx_PeriphCLKConfig+0x264>
 80058f8:	2100      	movs	r1, #0
 80058fa:	f105 0008 	add.w	r0, r5, #8
 80058fe:	f7ff fd89 	bl	8005414 <RCCEx_PLL2_Config>
 8005902:	4604      	mov	r4, r0
 8005904:	e7a8      	b.n	8005858 <HAL_RCCEx_PeriphCLKConfig+0x264>
 8005906:	2100      	movs	r1, #0
 8005908:	f105 0028 	add.w	r0, r5, #40	@ 0x28
 800590c:	f7ff fdfa 	bl	8005504 <RCCEx_PLL3_Config>
 8005910:	e7f7      	b.n	8005902 <HAL_RCCEx_PeriphCLKConfig+0x30e>
 8005912:	4626      	mov	r6, r4
 8005914:	e7a9      	b.n	800586a <HAL_RCCEx_PeriphCLKConfig+0x276>
 8005916:	f423 3280 	bic.w	r2, r3, #65536	@ 0x10000
 800591a:	f5b2 2f80 	cmp.w	r2, #262144	@ 0x40000
 800591e:	d002      	beq.n	8005926 <HAL_RCCEx_PeriphCLKConfig+0x332>
 8005920:	f5b3 3f40 	cmp.w	r3, #196608	@ 0x30000
 8005924:	d1ae      	bne.n	8005884 <HAL_RCCEx_PeriphCLKConfig+0x290>
 8005926:	b9a4      	cbnz	r4, 8005952 <HAL_RCCEx_PeriphCLKConfig+0x35e>
 8005928:	4a6b      	ldr	r2, [pc, #428]	@ (8005ad8 <HAL_RCCEx_PeriphCLKConfig+0x4e4>)
 800592a:	6e69      	ldr	r1, [r5, #100]	@ 0x64
 800592c:	6d13      	ldr	r3, [r2, #80]	@ 0x50
 800592e:	f423 23e0 	bic.w	r3, r3, #458752	@ 0x70000
 8005932:	430b      	orrs	r3, r1
 8005934:	6513      	str	r3, [r2, #80]	@ 0x50
 8005936:	e7a7      	b.n	8005888 <HAL_RCCEx_PeriphCLKConfig+0x294>
 8005938:	2101      	movs	r1, #1
 800593a:	f105 0008 	add.w	r0, r5, #8
 800593e:	f7ff fd69 	bl	8005414 <RCCEx_PLL2_Config>
 8005942:	4604      	mov	r4, r0
 8005944:	e7ef      	b.n	8005926 <HAL_RCCEx_PeriphCLKConfig+0x332>
 8005946:	2101      	movs	r1, #1
 8005948:	f105 0028 	add.w	r0, r5, #40	@ 0x28
 800594c:	f7ff fdda 	bl	8005504 <RCCEx_PLL3_Config>
 8005950:	e7f7      	b.n	8005942 <HAL_RCCEx_PeriphCLKConfig+0x34e>
 8005952:	4626      	mov	r6, r4
 8005954:	e798      	b.n	8005888 <HAL_RCCEx_PeriphCLKConfig+0x294>
 8005956:	f023 5280 	bic.w	r2, r3, #268435456	@ 0x10000000
 800595a:	f1b2 4f80 	cmp.w	r2, #1073741824	@ 0x40000000
 800595e:	d002      	beq.n	8005966 <HAL_RCCEx_PeriphCLKConfig+0x372>
 8005960:	f1b3 5f40 	cmp.w	r3, #805306368	@ 0x30000000
 8005964:	d19e      	bne.n	80058a4 <HAL_RCCEx_PeriphCLKConfig+0x2b0>
 8005966:	b9ac      	cbnz	r4, 8005994 <HAL_RCCEx_PeriphCLKConfig+0x3a0>
 8005968:	4a5b      	ldr	r2, [pc, #364]	@ (8005ad8 <HAL_RCCEx_PeriphCLKConfig+0x4e4>)
 800596a:	f8d5 10b0 	ldr.w	r1, [r5, #176]	@ 0xb0
 800596e:	6d93      	ldr	r3, [r2, #88]	@ 0x58
 8005970:	f023 43e0 	bic.w	r3, r3, #1879048192	@ 0x70000000
 8005974:	430b      	orrs	r3, r1
 8005976:	6593      	str	r3, [r2, #88]	@ 0x58
 8005978:	e796      	b.n	80058a8 <HAL_RCCEx_PeriphCLKConfig+0x2b4>
 800597a:	2101      	movs	r1, #1
 800597c:	f105 0008 	add.w	r0, r5, #8
 8005980:	f7ff fd48 	bl	8005414 <RCCEx_PLL2_Config>
 8005984:	4604      	mov	r4, r0
 8005986:	e7ee      	b.n	8005966 <HAL_RCCEx_PeriphCLKConfig+0x372>
 8005988:	2101      	movs	r1, #1
 800598a:	f105 0028 	add.w	r0, r5, #40	@ 0x28
 800598e:	f7ff fdb9 	bl	8005504 <RCCEx_PLL3_Config>
 8005992:	e7f7      	b.n	8005984 <HAL_RCCEx_PeriphCLKConfig+0x390>
 8005994:	4626      	mov	r6, r4
 8005996:	e787      	b.n	80058a8 <HAL_RCCEx_PeriphCLKConfig+0x2b4>
 8005998:	4a4f      	ldr	r2, [pc, #316]	@ (8005ad8 <HAL_RCCEx_PeriphCLKConfig+0x4e4>)
 800599a:	6ad3      	ldr	r3, [r2, #44]	@ 0x2c
 800599c:	f443 3300 	orr.w	r3, r3, #131072	@ 0x20000
 80059a0:	62d3      	str	r3, [r2, #44]	@ 0x2c
 80059a2:	e78d      	b.n	80058c0 <HAL_RCCEx_PeriphCLKConfig+0x2cc>
 80059a4:	2101      	movs	r1, #1
 80059a6:	f105 0008 	add.w	r0, r5, #8
 80059aa:	f7ff fd33 	bl	8005414 <RCCEx_PLL2_Config>
 80059ae:	4604      	mov	r4, r0
 80059b0:	e786      	b.n	80058c0 <HAL_RCCEx_PeriphCLKConfig+0x2cc>
 80059b2:	2601      	movs	r6, #1
 80059b4:	4634      	mov	r4, r6
 80059b6:	e78c      	b.n	80058d2 <HAL_RCCEx_PeriphCLKConfig+0x2de>
 80059b8:	4626      	mov	r6, r4
 80059ba:	e78a      	b.n	80058d2 <HAL_RCCEx_PeriphCLKConfig+0x2de>
 80059bc:	4a46      	ldr	r2, [pc, #280]	@ (8005ad8 <HAL_RCCEx_PeriphCLKConfig+0x4e4>)
 80059be:	6ad3      	ldr	r3, [r2, #44]	@ 0x2c
 80059c0:	f443 3300 	orr.w	r3, r3, #131072	@ 0x20000
 80059c4:	62d3      	str	r3, [r2, #44]	@ 0x2c
 80059c6:	2c00      	cmp	r4, #0
 80059c8:	d165      	bne.n	8005a96 <HAL_RCCEx_PeriphCLKConfig+0x4a2>
 80059ca:	4a43      	ldr	r2, [pc, #268]	@ (8005ad8 <HAL_RCCEx_PeriphCLKConfig+0x4e4>)
 80059cc:	6ca9      	ldr	r1, [r5, #72]	@ 0x48
 80059ce:	6cd3      	ldr	r3, [r2, #76]	@ 0x4c
 80059d0:	f023 0303 	bic.w	r3, r3, #3
 80059d4:	430b      	orrs	r3, r1
 80059d6:	64d3      	str	r3, [r2, #76]	@ 0x4c
 80059d8:	682b      	ldr	r3, [r5, #0]
 80059da:	0259      	lsls	r1, r3, #9
 80059dc:	d539      	bpl.n	8005a52 <HAL_RCCEx_PeriphCLKConfig+0x45e>
 80059de:	4f3f      	ldr	r7, [pc, #252]	@ (8005adc <HAL_RCCEx_PeriphCLKConfig+0x4e8>)
 80059e0:	683b      	ldr	r3, [r7, #0]
 80059e2:	f443 7380 	orr.w	r3, r3, #256	@ 0x100
 80059e6:	603b      	str	r3, [r7, #0]
 80059e8:	f7fc f81a 	bl	8001a20 <HAL_GetTick>
 80059ec:	4680      	mov	r8, r0
 80059ee:	683b      	ldr	r3, [r7, #0]
 80059f0:	05da      	lsls	r2, r3, #23
 80059f2:	d552      	bpl.n	8005a9a <HAL_RCCEx_PeriphCLKConfig+0x4a6>
 80059f4:	2c00      	cmp	r4, #0
 80059f6:	d175      	bne.n	8005ae4 <HAL_RCCEx_PeriphCLKConfig+0x4f0>
 80059f8:	4b37      	ldr	r3, [pc, #220]	@ (8005ad8 <HAL_RCCEx_PeriphCLKConfig+0x4e4>)
 80059fa:	f8d5 00b4 	ldr.w	r0, [r5, #180]	@ 0xb4
 80059fe:	6f1a      	ldr	r2, [r3, #112]	@ 0x70
 8005a00:	4042      	eors	r2, r0
 8005a02:	f412 7f40 	tst.w	r2, #768	@ 0x300
 8005a06:	d00b      	beq.n	8005a20 <HAL_RCCEx_PeriphCLKConfig+0x42c>
 8005a08:	6f1a      	ldr	r2, [r3, #112]	@ 0x70
 8005a0a:	6f19      	ldr	r1, [r3, #112]	@ 0x70
 8005a0c:	f422 7240 	bic.w	r2, r2, #768	@ 0x300
 8005a10:	f441 3180 	orr.w	r1, r1, #65536	@ 0x10000
 8005a14:	6719      	str	r1, [r3, #112]	@ 0x70
 8005a16:	6f19      	ldr	r1, [r3, #112]	@ 0x70
 8005a18:	f421 3180 	bic.w	r1, r1, #65536	@ 0x10000
 8005a1c:	6719      	str	r1, [r3, #112]	@ 0x70
 8005a1e:	671a      	str	r2, [r3, #112]	@ 0x70
 8005a20:	f5b0 7f80 	cmp.w	r0, #256	@ 0x100
 8005a24:	d042      	beq.n	8005aac <HAL_RCCEx_PeriphCLKConfig+0x4b8>
 8005a26:	f8d5 30b4 	ldr.w	r3, [r5, #180]	@ 0xb4
 8005a2a:	492b      	ldr	r1, [pc, #172]	@ (8005ad8 <HAL_RCCEx_PeriphCLKConfig+0x4e4>)
 8005a2c:	f403 7240 	and.w	r2, r3, #768	@ 0x300
 8005a30:	f5b2 7f40 	cmp.w	r2, #768	@ 0x300
 8005a34:	d14b      	bne.n	8005ace <HAL_RCCEx_PeriphCLKConfig+0x4da>
 8005a36:	6908      	ldr	r0, [r1, #16]
 8005a38:	4a29      	ldr	r2, [pc, #164]	@ (8005ae0 <HAL_RCCEx_PeriphCLKConfig+0x4ec>)
 8005a3a:	f420 507c 	bic.w	r0, r0, #16128	@ 0x3f00
 8005a3e:	ea02 1213 	and.w	r2, r2, r3, lsr #4
 8005a42:	4302      	orrs	r2, r0
 8005a44:	610a      	str	r2, [r1, #16]
 8005a46:	f3c3 030b 	ubfx	r3, r3, #0, #12
 8005a4a:	4a23      	ldr	r2, [pc, #140]	@ (8005ad8 <HAL_RCCEx_PeriphCLKConfig+0x4e4>)
 8005a4c:	6f11      	ldr	r1, [r2, #112]	@ 0x70
 8005a4e:	430b      	orrs	r3, r1
 8005a50:	6713      	str	r3, [r2, #112]	@ 0x70
 8005a52:	682b      	ldr	r3, [r5, #0]
 8005a54:	07d8      	lsls	r0, r3, #31
 8005a56:	d509      	bpl.n	8005a6c <HAL_RCCEx_PeriphCLKConfig+0x478>
 8005a58:	6feb      	ldr	r3, [r5, #124]	@ 0x7c
 8005a5a:	2b10      	cmp	r3, #16
 8005a5c:	d05a      	beq.n	8005b14 <HAL_RCCEx_PeriphCLKConfig+0x520>
 8005a5e:	d843      	bhi.n	8005ae8 <HAL_RCCEx_PeriphCLKConfig+0x4f4>
 8005a60:	2b00      	cmp	r3, #0
 8005a62:	d047      	beq.n	8005af4 <HAL_RCCEx_PeriphCLKConfig+0x500>
 8005a64:	2b08      	cmp	r3, #8
 8005a66:	d04e      	beq.n	8005b06 <HAL_RCCEx_PeriphCLKConfig+0x512>
 8005a68:	2601      	movs	r6, #1
 8005a6a:	4634      	mov	r4, r6
 8005a6c:	682b      	ldr	r3, [r5, #0]
 8005a6e:	0799      	lsls	r1, r3, #30
 8005a70:	d566      	bpl.n	8005b40 <HAL_RCCEx_PeriphCLKConfig+0x54c>
 8005a72:	6fab      	ldr	r3, [r5, #120]	@ 0x78
 8005a74:	2b05      	cmp	r3, #5
 8005a76:	d879      	bhi.n	8005b6c <HAL_RCCEx_PeriphCLKConfig+0x578>
 8005a78:	e8df f003 	tbb	[pc, r3]
 8005a7c:	5a72545a 	.word	0x5a72545a
 8005a80:	5a5a      	.short	0x5a5a
 8005a82:	2102      	movs	r1, #2
 8005a84:	f105 0008 	add.w	r0, r5, #8
 8005a88:	f7ff fcc4 	bl	8005414 <RCCEx_PLL2_Config>
 8005a8c:	4604      	mov	r4, r0
 8005a8e:	e79a      	b.n	80059c6 <HAL_RCCEx_PeriphCLKConfig+0x3d2>
 8005a90:	2601      	movs	r6, #1
 8005a92:	4634      	mov	r4, r6
 8005a94:	e7a0      	b.n	80059d8 <HAL_RCCEx_PeriphCLKConfig+0x3e4>
 8005a96:	4626      	mov	r6, r4
 8005a98:	e79e      	b.n	80059d8 <HAL_RCCEx_PeriphCLKConfig+0x3e4>
 8005a9a:	f7fb ffc1 	bl	8001a20 <HAL_GetTick>
 8005a9e:	eba0 0008 	sub.w	r0, r0, r8
 8005aa2:	2864      	cmp	r0, #100	@ 0x64
 8005aa4:	d9a3      	bls.n	80059ee <HAL_RCCEx_PeriphCLKConfig+0x3fa>
 8005aa6:	2603      	movs	r6, #3
 8005aa8:	4634      	mov	r4, r6
 8005aaa:	e7d2      	b.n	8005a52 <HAL_RCCEx_PeriphCLKConfig+0x45e>
 8005aac:	f7fb ffb8 	bl	8001a20 <HAL_GetTick>
 8005ab0:	f8df 8024 	ldr.w	r8, [pc, #36]	@ 8005ad8 <HAL_RCCEx_PeriphCLKConfig+0x4e4>
 8005ab4:	4607      	mov	r7, r0
 8005ab6:	f241 3988 	movw	r9, #5000	@ 0x1388
 8005aba:	f8d8 3070 	ldr.w	r3, [r8, #112]	@ 0x70
 8005abe:	079b      	lsls	r3, r3, #30
 8005ac0:	d4b1      	bmi.n	8005a26 <HAL_RCCEx_PeriphCLKConfig+0x432>
 8005ac2:	f7fb ffad 	bl	8001a20 <HAL_GetTick>
 8005ac6:	1bc0      	subs	r0, r0, r7
 8005ac8:	4548      	cmp	r0, r9
 8005aca:	d9f6      	bls.n	8005aba <HAL_RCCEx_PeriphCLKConfig+0x4c6>
 8005acc:	e7eb      	b.n	8005aa6 <HAL_RCCEx_PeriphCLKConfig+0x4b2>
 8005ace:	690a      	ldr	r2, [r1, #16]
 8005ad0:	f422 527c 	bic.w	r2, r2, #16128	@ 0x3f00
 8005ad4:	e7b6      	b.n	8005a44 <HAL_RCCEx_PeriphCLKConfig+0x450>
 8005ad6:	bf00      	nop
 8005ad8:	58024400 	.word	0x58024400
 8005adc:	58024800 	.word	0x58024800
 8005ae0:	00ffffcf 	.word	0x00ffffcf
 8005ae4:	4626      	mov	r6, r4
 8005ae6:	e7b4      	b.n	8005a52 <HAL_RCCEx_PeriphCLKConfig+0x45e>
 8005ae8:	f023 0208 	bic.w	r2, r3, #8
 8005aec:	2a20      	cmp	r2, #32
 8005aee:	d001      	beq.n	8005af4 <HAL_RCCEx_PeriphCLKConfig+0x500>
 8005af0:	2b18      	cmp	r3, #24
 8005af2:	d1b9      	bne.n	8005a68 <HAL_RCCEx_PeriphCLKConfig+0x474>
 8005af4:	b9a4      	cbnz	r4, 8005b20 <HAL_RCCEx_PeriphCLKConfig+0x52c>
 8005af6:	4a20      	ldr	r2, [pc, #128]	@ (8005b78 <HAL_RCCEx_PeriphCLKConfig+0x584>)
 8005af8:	6fe9      	ldr	r1, [r5, #124]	@ 0x7c
 8005afa:	6d53      	ldr	r3, [r2, #84]	@ 0x54
 8005afc:	f023 0338 	bic.w	r3, r3, #56	@ 0x38
 8005b00:	430b      	orrs	r3, r1
 8005b02:	6553      	str	r3, [r2, #84]	@ 0x54
 8005b04:	e7b2      	b.n	8005a6c <HAL_RCCEx_PeriphCLKConfig+0x478>
 8005b06:	2101      	movs	r1, #1
 8005b08:	f105 0008 	add.w	r0, r5, #8
 8005b0c:	f7ff fc82 	bl	8005414 <RCCEx_PLL2_Config>
 8005b10:	4604      	mov	r4, r0
 8005b12:	e7ef      	b.n	8005af4 <HAL_RCCEx_PeriphCLKConfig+0x500>
 8005b14:	2101      	movs	r1, #1
 8005b16:	f105 0028 	add.w	r0, r5, #40	@ 0x28
 8005b1a:	f7ff fcf3 	bl	8005504 <RCCEx_PLL3_Config>
 8005b1e:	e7f7      	b.n	8005b10 <HAL_RCCEx_PeriphCLKConfig+0x51c>
 8005b20:	4626      	mov	r6, r4
 8005b22:	e7a3      	b.n	8005a6c <HAL_RCCEx_PeriphCLKConfig+0x478>
 8005b24:	2101      	movs	r1, #1
 8005b26:	f105 0008 	add.w	r0, r5, #8
 8005b2a:	f7ff fc73 	bl	8005414 <RCCEx_PLL2_Config>
 8005b2e:	4604      	mov	r4, r0
 8005b30:	b9fc      	cbnz	r4, 8005b72 <HAL_RCCEx_PeriphCLKConfig+0x57e>
 8005b32:	4a11      	ldr	r2, [pc, #68]	@ (8005b78 <HAL_RCCEx_PeriphCLKConfig+0x584>)
 8005b34:	6fa9      	ldr	r1, [r5, #120]	@ 0x78
 8005b36:	6d53      	ldr	r3, [r2, #84]	@ 0x54
 8005b38:	f023 0307 	bic.w	r3, r3, #7
 8005b3c:	430b      	orrs	r3, r1
 8005b3e:	6553      	str	r3, [r2, #84]	@ 0x54
 8005b40:	682b      	ldr	r3, [r5, #0]
 8005b42:	075a      	lsls	r2, r3, #29
 8005b44:	d52b      	bpl.n	8005b9e <HAL_RCCEx_PeriphCLKConfig+0x5aa>
 8005b46:	f8d5 3094 	ldr.w	r3, [r5, #148]	@ 0x94
 8005b4a:	2b05      	cmp	r3, #5
 8005b4c:	f200 816e 	bhi.w	8005e2c <HAL_RCCEx_PeriphCLKConfig+0x838>
 8005b50:	e8df f013 	tbh	[pc, r3, lsl #1]
 8005b54:	0014001a 	.word	0x0014001a
 8005b58:	001a0166 	.word	0x001a0166
 8005b5c:	001a001a 	.word	0x001a001a
 8005b60:	2101      	movs	r1, #1
 8005b62:	f105 0028 	add.w	r0, r5, #40	@ 0x28
 8005b66:	f7ff fccd 	bl	8005504 <RCCEx_PLL3_Config>
 8005b6a:	e7e0      	b.n	8005b2e <HAL_RCCEx_PeriphCLKConfig+0x53a>
 8005b6c:	2601      	movs	r6, #1
 8005b6e:	4634      	mov	r4, r6
 8005b70:	e7e6      	b.n	8005b40 <HAL_RCCEx_PeriphCLKConfig+0x54c>
 8005b72:	4626      	mov	r6, r4
 8005b74:	e7e4      	b.n	8005b40 <HAL_RCCEx_PeriphCLKConfig+0x54c>
 8005b76:	bf00      	nop
 8005b78:	58024400 	.word	0x58024400
 8005b7c:	2101      	movs	r1, #1
 8005b7e:	f105 0008 	add.w	r0, r5, #8
 8005b82:	f7ff fc47 	bl	8005414 <RCCEx_PLL2_Config>
 8005b86:	4604      	mov	r4, r0
 8005b88:	2c00      	cmp	r4, #0
 8005b8a:	f040 8152 	bne.w	8005e32 <HAL_RCCEx_PeriphCLKConfig+0x83e>
 8005b8e:	4aaa      	ldr	r2, [pc, #680]	@ (8005e38 <HAL_RCCEx_PeriphCLKConfig+0x844>)
 8005b90:	f8d5 1094 	ldr.w	r1, [r5, #148]	@ 0x94
 8005b94:	6d93      	ldr	r3, [r2, #88]	@ 0x58
 8005b96:	f023 0307 	bic.w	r3, r3, #7
 8005b9a:	430b      	orrs	r3, r1
 8005b9c:	6593      	str	r3, [r2, #88]	@ 0x58
 8005b9e:	682b      	ldr	r3, [r5, #0]
 8005ba0:	069b      	lsls	r3, r3, #26
 8005ba2:	d510      	bpl.n	8005bc6 <HAL_RCCEx_PeriphCLKConfig+0x5d2>
 8005ba4:	f8d5 3090 	ldr.w	r3, [r5, #144]	@ 0x90
 8005ba8:	f1b3 5f00 	cmp.w	r3, #536870912	@ 0x20000000
 8005bac:	f000 8160 	beq.w	8005e70 <HAL_RCCEx_PeriphCLKConfig+0x87c>
 8005bb0:	f200 8144 	bhi.w	8005e3c <HAL_RCCEx_PeriphCLKConfig+0x848>
 8005bb4:	2b00      	cmp	r3, #0
 8005bb6:	f000 814a 	beq.w	8005e4e <HAL_RCCEx_PeriphCLKConfig+0x85a>
 8005bba:	f1b3 5f80 	cmp.w	r3, #268435456	@ 0x10000000
 8005bbe:	f000 8150 	beq.w	8005e62 <HAL_RCCEx_PeriphCLKConfig+0x86e>
 8005bc2:	2601      	movs	r6, #1
 8005bc4:	4634      	mov	r4, r6
 8005bc6:	682b      	ldr	r3, [r5, #0]
 8005bc8:	065f      	lsls	r7, r3, #25
 8005bca:	d510      	bpl.n	8005bee <HAL_RCCEx_PeriphCLKConfig+0x5fa>
 8005bcc:	f8d5 309c 	ldr.w	r3, [r5, #156]	@ 0x9c
 8005bd0:	f5b3 6f00 	cmp.w	r3, #2048	@ 0x800
 8005bd4:	f000 816e 	beq.w	8005eb4 <HAL_RCCEx_PeriphCLKConfig+0x8c0>
 8005bd8:	f200 8152 	bhi.w	8005e80 <HAL_RCCEx_PeriphCLKConfig+0x88c>
 8005bdc:	2b00      	cmp	r3, #0
 8005bde:	f000 8158 	beq.w	8005e92 <HAL_RCCEx_PeriphCLKConfig+0x89e>
 8005be2:	f5b3 6f80 	cmp.w	r3, #1024	@ 0x400
 8005be6:	f000 815e 	beq.w	8005ea6 <HAL_RCCEx_PeriphCLKConfig+0x8b2>
 8005bea:	2601      	movs	r6, #1
 8005bec:	4634      	mov	r4, r6
 8005bee:	682b      	ldr	r3, [r5, #0]
 8005bf0:	0618      	lsls	r0, r3, #24
 8005bf2:	d510      	bpl.n	8005c16 <HAL_RCCEx_PeriphCLKConfig+0x622>
 8005bf4:	f8d5 30a0 	ldr.w	r3, [r5, #160]	@ 0xa0
 8005bf8:	f5b3 4f80 	cmp.w	r3, #16384	@ 0x4000
 8005bfc:	f000 817c 	beq.w	8005ef8 <HAL_RCCEx_PeriphCLKConfig+0x904>
 8005c00:	f200 8160 	bhi.w	8005ec4 <HAL_RCCEx_PeriphCLKConfig+0x8d0>
 8005c04:	2b00      	cmp	r3, #0
 8005c06:	f000 8166 	beq.w	8005ed6 <HAL_RCCEx_PeriphCLKConfig+0x8e2>
 8005c0a:	f5b3 5f00 	cmp.w	r3, #8192	@ 0x2000
 8005c0e:	f000 816c 	beq.w	8005eea <HAL_RCCEx_PeriphCLKConfig+0x8f6>
 8005c12:	2601      	movs	r6, #1
 8005c14:	4634      	mov	r4, r6
 8005c16:	682b      	ldr	r3, [r5, #0]
 8005c18:	0719      	lsls	r1, r3, #28
 8005c1a:	d514      	bpl.n	8005c46 <HAL_RCCEx_PeriphCLKConfig+0x652>
 8005c1c:	f8d5 3084 	ldr.w	r3, [r5, #132]	@ 0x84
 8005c20:	f5b3 5f80 	cmp.w	r3, #4096	@ 0x1000
 8005c24:	d107      	bne.n	8005c36 <HAL_RCCEx_PeriphCLKConfig+0x642>
 8005c26:	2102      	movs	r1, #2
 8005c28:	f105 0028 	add.w	r0, r5, #40	@ 0x28
 8005c2c:	f7ff fc6a 	bl	8005504 <RCCEx_PLL3_Config>
 8005c30:	2800      	cmp	r0, #0
 8005c32:	bf18      	it	ne
 8005c34:	2601      	movne	r6, #1
 8005c36:	4a80      	ldr	r2, [pc, #512]	@ (8005e38 <HAL_RCCEx_PeriphCLKConfig+0x844>)
 8005c38:	f8d5 1084 	ldr.w	r1, [r5, #132]	@ 0x84
 8005c3c:	6d53      	ldr	r3, [r2, #84]	@ 0x54
 8005c3e:	f423 5340 	bic.w	r3, r3, #12288	@ 0x3000
 8005c42:	430b      	orrs	r3, r1
 8005c44:	6553      	str	r3, [r2, #84]	@ 0x54
 8005c46:	682b      	ldr	r3, [r5, #0]
 8005c48:	06da      	lsls	r2, r3, #27
 8005c4a:	d514      	bpl.n	8005c76 <HAL_RCCEx_PeriphCLKConfig+0x682>
 8005c4c:	f8d5 3098 	ldr.w	r3, [r5, #152]	@ 0x98
 8005c50:	f5b3 7f80 	cmp.w	r3, #256	@ 0x100
 8005c54:	d107      	bne.n	8005c66 <HAL_RCCEx_PeriphCLKConfig+0x672>
 8005c56:	2102      	movs	r1, #2
 8005c58:	f105 0028 	add.w	r0, r5, #40	@ 0x28
 8005c5c:	f7ff fc52 	bl	8005504 <RCCEx_PLL3_Config>
 8005c60:	2800      	cmp	r0, #0
 8005c62:	bf18      	it	ne
 8005c64:	2601      	movne	r6, #1
 8005c66:	4a74      	ldr	r2, [pc, #464]	@ (8005e38 <HAL_RCCEx_PeriphCLKConfig+0x844>)
 8005c68:	f8d5 1098 	ldr.w	r1, [r5, #152]	@ 0x98
 8005c6c:	6d93      	ldr	r3, [r2, #88]	@ 0x58
 8005c6e:	f423 7340 	bic.w	r3, r3, #768	@ 0x300
 8005c72:	430b      	orrs	r3, r1
 8005c74:	6593      	str	r3, [r2, #88]	@ 0x58
 8005c76:	682b      	ldr	r3, [r5, #0]
 8005c78:	031b      	lsls	r3, r3, #12
 8005c7a:	d51b      	bpl.n	8005cb4 <HAL_RCCEx_PeriphCLKConfig+0x6c0>
 8005c7c:	f8d5 10a4 	ldr.w	r1, [r5, #164]	@ 0xa4
 8005c80:	f5b1 3f80 	cmp.w	r1, #65536	@ 0x10000
 8005c84:	f000 8140 	beq.w	8005f08 <HAL_RCCEx_PeriphCLKConfig+0x914>
 8005c88:	f5b1 3f00 	cmp.w	r1, #131072	@ 0x20000
 8005c8c:	d007      	beq.n	8005c9e <HAL_RCCEx_PeriphCLKConfig+0x6aa>
 8005c8e:	2900      	cmp	r1, #0
 8005c90:	f040 8140 	bne.w	8005f14 <HAL_RCCEx_PeriphCLKConfig+0x920>
 8005c94:	f105 0008 	add.w	r0, r5, #8
 8005c98:	f7ff fbbc 	bl	8005414 <RCCEx_PLL2_Config>
 8005c9c:	4604      	mov	r4, r0
 8005c9e:	2c00      	cmp	r4, #0
 8005ca0:	f040 813b 	bne.w	8005f1a <HAL_RCCEx_PeriphCLKConfig+0x926>
 8005ca4:	4a64      	ldr	r2, [pc, #400]	@ (8005e38 <HAL_RCCEx_PeriphCLKConfig+0x844>)
 8005ca6:	f8d5 10a4 	ldr.w	r1, [r5, #164]	@ 0xa4
 8005caa:	6d93      	ldr	r3, [r2, #88]	@ 0x58
 8005cac:	f423 3340 	bic.w	r3, r3, #196608	@ 0x30000
 8005cb0:	430b      	orrs	r3, r1
 8005cb2:	6593      	str	r3, [r2, #88]	@ 0x58
 8005cb4:	682b      	ldr	r3, [r5, #0]
 8005cb6:	035f      	lsls	r7, r3, #13
 8005cb8:	d50f      	bpl.n	8005cda <HAL_RCCEx_PeriphCLKConfig+0x6e6>
 8005cba:	f8d5 3088 	ldr.w	r3, [r5, #136]	@ 0x88
 8005cbe:	f5b3 1f00 	cmp.w	r3, #2097152	@ 0x200000
 8005cc2:	f000 813b 	beq.w	8005f3c <HAL_RCCEx_PeriphCLKConfig+0x948>
 8005cc6:	f5b3 1f40 	cmp.w	r3, #3145728	@ 0x300000
 8005cca:	f000 812d 	beq.w	8005f28 <HAL_RCCEx_PeriphCLKConfig+0x934>
 8005cce:	f5b3 1f80 	cmp.w	r3, #1048576	@ 0x100000
 8005cd2:	f000 8124 	beq.w	8005f1e <HAL_RCCEx_PeriphCLKConfig+0x92a>
 8005cd6:	2601      	movs	r6, #1
 8005cd8:	4634      	mov	r4, r6
 8005cda:	682b      	ldr	r3, [r5, #0]
 8005cdc:	03d8      	lsls	r0, r3, #15
 8005cde:	d509      	bpl.n	8005cf4 <HAL_RCCEx_PeriphCLKConfig+0x700>
 8005ce0:	6d2b      	ldr	r3, [r5, #80]	@ 0x50
 8005ce2:	2b00      	cmp	r3, #0
 8005ce4:	f000 8133 	beq.w	8005f4e <HAL_RCCEx_PeriphCLKConfig+0x95a>
 8005ce8:	f5b3 3f80 	cmp.w	r3, #65536	@ 0x10000
 8005cec:	f000 813d 	beq.w	8005f6a <HAL_RCCEx_PeriphCLKConfig+0x976>
 8005cf0:	2601      	movs	r6, #1
 8005cf2:	4634      	mov	r4, r6
 8005cf4:	682b      	ldr	r3, [r5, #0]
 8005cf6:	0099      	lsls	r1, r3, #2
 8005cf8:	d507      	bpl.n	8005d0a <HAL_RCCEx_PeriphCLKConfig+0x716>
 8005cfa:	2102      	movs	r1, #2
 8005cfc:	f105 0028 	add.w	r0, r5, #40	@ 0x28
 8005d00:	f7ff fc00 	bl	8005504 <RCCEx_PLL3_Config>
 8005d04:	2800      	cmp	r0, #0
 8005d06:	bf18      	it	ne
 8005d08:	2601      	movne	r6, #1
 8005d0a:	e9d5 3100 	ldrd	r3, r1, [r5]
 8005d0e:	039a      	lsls	r2, r3, #14
 8005d10:	f140 8143 	bpl.w	8005f9a <HAL_RCCEx_PeriphCLKConfig+0x9a6>
 8005d14:	f8d5 0080 	ldr.w	r0, [r5, #128]	@ 0x80
 8005d18:	f5b0 7f80 	cmp.w	r0, #256	@ 0x100
 8005d1c:	f000 813f 	beq.w	8005f9e <HAL_RCCEx_PeriphCLKConfig+0x9aa>
 8005d20:	f200 812c 	bhi.w	8005f7c <HAL_RCCEx_PeriphCLKConfig+0x988>
 8005d24:	2800      	cmp	r0, #0
 8005d26:	f000 812f 	beq.w	8005f88 <HAL_RCCEx_PeriphCLKConfig+0x994>
 8005d2a:	2401      	movs	r4, #1
 8005d2c:	02df      	lsls	r7, r3, #11
 8005d2e:	d506      	bpl.n	8005d3e <HAL_RCCEx_PeriphCLKConfig+0x74a>
 8005d30:	4841      	ldr	r0, [pc, #260]	@ (8005e38 <HAL_RCCEx_PeriphCLKConfig+0x844>)
 8005d32:	6f6e      	ldr	r6, [r5, #116]	@ 0x74
 8005d34:	6d02      	ldr	r2, [r0, #80]	@ 0x50
 8005d36:	f022 4200 	bic.w	r2, r2, #2147483648	@ 0x80000000
 8005d3a:	4332      	orrs	r2, r6
 8005d3c:	6502      	str	r2, [r0, #80]	@ 0x50
 8005d3e:	00de      	lsls	r6, r3, #3
 8005d40:	d507      	bpl.n	8005d52 <HAL_RCCEx_PeriphCLKConfig+0x75e>
 8005d42:	483d      	ldr	r0, [pc, #244]	@ (8005e38 <HAL_RCCEx_PeriphCLKConfig+0x844>)
 8005d44:	f8d5 60b8 	ldr.w	r6, [r5, #184]	@ 0xb8
 8005d48:	6902      	ldr	r2, [r0, #16]
 8005d4a:	f422 4280 	bic.w	r2, r2, #16384	@ 0x4000
 8005d4e:	4332      	orrs	r2, r6
 8005d50:	6102      	str	r2, [r0, #16]
 8005d52:	0298      	lsls	r0, r3, #10
 8005d54:	d506      	bpl.n	8005d64 <HAL_RCCEx_PeriphCLKConfig+0x770>
 8005d56:	4838      	ldr	r0, [pc, #224]	@ (8005e38 <HAL_RCCEx_PeriphCLKConfig+0x844>)
 8005d58:	6eee      	ldr	r6, [r5, #108]	@ 0x6c
 8005d5a:	6d02      	ldr	r2, [r0, #80]	@ 0x50
 8005d5c:	f022 7280 	bic.w	r2, r2, #16777216	@ 0x1000000
 8005d60:	4332      	orrs	r2, r6
 8005d62:	6502      	str	r2, [r0, #80]	@ 0x50
 8005d64:	005a      	lsls	r2, r3, #1
 8005d66:	d509      	bpl.n	8005d7c <HAL_RCCEx_PeriphCLKConfig+0x788>
 8005d68:	4a33      	ldr	r2, [pc, #204]	@ (8005e38 <HAL_RCCEx_PeriphCLKConfig+0x844>)
 8005d6a:	6910      	ldr	r0, [r2, #16]
 8005d6c:	f420 4000 	bic.w	r0, r0, #32768	@ 0x8000
 8005d70:	6110      	str	r0, [r2, #16]
 8005d72:	6910      	ldr	r0, [r2, #16]
 8005d74:	f8d5 60bc 	ldr.w	r6, [r5, #188]	@ 0xbc
 8005d78:	4330      	orrs	r0, r6
 8005d7a:	6110      	str	r0, [r2, #16]
 8005d7c:	2b00      	cmp	r3, #0
 8005d7e:	da06      	bge.n	8005d8e <HAL_RCCEx_PeriphCLKConfig+0x79a>
 8005d80:	482d      	ldr	r0, [pc, #180]	@ (8005e38 <HAL_RCCEx_PeriphCLKConfig+0x844>)
 8005d82:	6d6e      	ldr	r6, [r5, #84]	@ 0x54
 8005d84:	6cc2      	ldr	r2, [r0, #76]	@ 0x4c
 8005d86:	f022 5240 	bic.w	r2, r2, #805306368	@ 0x30000000
 8005d8a:	4332      	orrs	r2, r6
 8005d8c:	64c2      	str	r2, [r0, #76]	@ 0x4c
 8005d8e:	021f      	lsls	r7, r3, #8
 8005d90:	d507      	bpl.n	8005da2 <HAL_RCCEx_PeriphCLKConfig+0x7ae>
 8005d92:	4a29      	ldr	r2, [pc, #164]	@ (8005e38 <HAL_RCCEx_PeriphCLKConfig+0x844>)
 8005d94:	f8d5 008c 	ldr.w	r0, [r5, #140]	@ 0x8c
 8005d98:	6d53      	ldr	r3, [r2, #84]	@ 0x54
 8005d9a:	f423 0340 	bic.w	r3, r3, #12582912	@ 0xc00000
 8005d9e:	4303      	orrs	r3, r0
 8005da0:	6553      	str	r3, [r2, #84]	@ 0x54
 8005da2:	07ce      	lsls	r6, r1, #31
 8005da4:	d506      	bpl.n	8005db4 <HAL_RCCEx_PeriphCLKConfig+0x7c0>
 8005da6:	2100      	movs	r1, #0
 8005da8:	f105 0008 	add.w	r0, r5, #8
 8005dac:	f7ff fb32 	bl	8005414 <RCCEx_PLL2_Config>
 8005db0:	4607      	mov	r7, r0
 8005db2:	b900      	cbnz	r0, 8005db6 <HAL_RCCEx_PeriphCLKConfig+0x7c2>
 8005db4:	4627      	mov	r7, r4
 8005db6:	686b      	ldr	r3, [r5, #4]
 8005db8:	079c      	lsls	r4, r3, #30
 8005dba:	d506      	bpl.n	8005dca <HAL_RCCEx_PeriphCLKConfig+0x7d6>
 8005dbc:	2101      	movs	r1, #1
 8005dbe:	f105 0008 	add.w	r0, r5, #8
 8005dc2:	f7ff fb27 	bl	8005414 <RCCEx_PLL2_Config>
 8005dc6:	4606      	mov	r6, r0
 8005dc8:	b900      	cbnz	r0, 8005dcc <HAL_RCCEx_PeriphCLKConfig+0x7d8>
 8005dca:	463e      	mov	r6, r7
 8005dcc:	686b      	ldr	r3, [r5, #4]
 8005dce:	0758      	lsls	r0, r3, #29
 8005dd0:	d506      	bpl.n	8005de0 <HAL_RCCEx_PeriphCLKConfig+0x7ec>
 8005dd2:	2102      	movs	r1, #2
 8005dd4:	f105 0008 	add.w	r0, r5, #8
 8005dd8:	f7ff fb1c 	bl	8005414 <RCCEx_PLL2_Config>
 8005ddc:	4604      	mov	r4, r0
 8005dde:	b900      	cbnz	r0, 8005de2 <HAL_RCCEx_PeriphCLKConfig+0x7ee>
 8005de0:	4634      	mov	r4, r6
 8005de2:	686b      	ldr	r3, [r5, #4]
 8005de4:	0719      	lsls	r1, r3, #28
 8005de6:	d506      	bpl.n	8005df6 <HAL_RCCEx_PeriphCLKConfig+0x802>
 8005de8:	2100      	movs	r1, #0
 8005dea:	f105 0028 	add.w	r0, r5, #40	@ 0x28
 8005dee:	f7ff fb89 	bl	8005504 <RCCEx_PLL3_Config>
 8005df2:	4606      	mov	r6, r0
 8005df4:	b900      	cbnz	r0, 8005df8 <HAL_RCCEx_PeriphCLKConfig+0x804>
 8005df6:	4626      	mov	r6, r4
 8005df8:	686b      	ldr	r3, [r5, #4]
 8005dfa:	06da      	lsls	r2, r3, #27
 8005dfc:	d506      	bpl.n	8005e0c <HAL_RCCEx_PeriphCLKConfig+0x818>
 8005dfe:	2101      	movs	r1, #1
 8005e00:	f105 0028 	add.w	r0, r5, #40	@ 0x28
 8005e04:	f7ff fb7e 	bl	8005504 <RCCEx_PLL3_Config>
 8005e08:	4604      	mov	r4, r0
 8005e0a:	b900      	cbnz	r0, 8005e0e <HAL_RCCEx_PeriphCLKConfig+0x81a>
 8005e0c:	4634      	mov	r4, r6
 8005e0e:	686b      	ldr	r3, [r5, #4]
 8005e10:	069b      	lsls	r3, r3, #26
 8005e12:	f100 80ca 	bmi.w	8005faa <HAL_RCCEx_PeriphCLKConfig+0x9b6>
 8005e16:	1e20      	subs	r0, r4, #0
 8005e18:	bf18      	it	ne
 8005e1a:	2001      	movne	r0, #1
 8005e1c:	e8bd 83f8 	ldmia.w	sp!, {r3, r4, r5, r6, r7, r8, r9, pc}
 8005e20:	2101      	movs	r1, #1
 8005e22:	f105 0028 	add.w	r0, r5, #40	@ 0x28
 8005e26:	f7ff fb6d 	bl	8005504 <RCCEx_PLL3_Config>
 8005e2a:	e6ac      	b.n	8005b86 <HAL_RCCEx_PeriphCLKConfig+0x592>
 8005e2c:	2601      	movs	r6, #1
 8005e2e:	4634      	mov	r4, r6
 8005e30:	e6b5      	b.n	8005b9e <HAL_RCCEx_PeriphCLKConfig+0x5aa>
 8005e32:	4626      	mov	r6, r4
 8005e34:	e6b3      	b.n	8005b9e <HAL_RCCEx_PeriphCLKConfig+0x5aa>
 8005e36:	bf00      	nop
 8005e38:	58024400 	.word	0x58024400
 8005e3c:	f023 5280 	bic.w	r2, r3, #268435456	@ 0x10000000
 8005e40:	f1b2 4f80 	cmp.w	r2, #1073741824	@ 0x40000000
 8005e44:	d003      	beq.n	8005e4e <HAL_RCCEx_PeriphCLKConfig+0x85a>
 8005e46:	f1b3 5f40 	cmp.w	r3, #805306368	@ 0x30000000
 8005e4a:	f47f aeba 	bne.w	8005bc2 <HAL_RCCEx_PeriphCLKConfig+0x5ce>
 8005e4e:	b9ac      	cbnz	r4, 8005e7c <HAL_RCCEx_PeriphCLKConfig+0x888>
 8005e50:	4a5b      	ldr	r2, [pc, #364]	@ (8005fc0 <HAL_RCCEx_PeriphCLKConfig+0x9cc>)
 8005e52:	f8d5 1090 	ldr.w	r1, [r5, #144]	@ 0x90
 8005e56:	6d53      	ldr	r3, [r2, #84]	@ 0x54
 8005e58:	f023 43e0 	bic.w	r3, r3, #1879048192	@ 0x70000000
 8005e5c:	430b      	orrs	r3, r1
 8005e5e:	6553      	str	r3, [r2, #84]	@ 0x54
 8005e60:	e6b1      	b.n	8005bc6 <HAL_RCCEx_PeriphCLKConfig+0x5d2>
 8005e62:	2100      	movs	r1, #0
 8005e64:	f105 0008 	add.w	r0, r5, #8
 8005e68:	f7ff fad4 	bl	8005414 <RCCEx_PLL2_Config>
 8005e6c:	4604      	mov	r4, r0
 8005e6e:	e7ee      	b.n	8005e4e <HAL_RCCEx_PeriphCLKConfig+0x85a>
 8005e70:	2102      	movs	r1, #2
 8005e72:	f105 0028 	add.w	r0, r5, #40	@ 0x28
 8005e76:	f7ff fb45 	bl	8005504 <RCCEx_PLL3_Config>
 8005e7a:	e7f7      	b.n	8005e6c <HAL_RCCEx_PeriphCLKConfig+0x878>
 8005e7c:	4626      	mov	r6, r4
 8005e7e:	e6a2      	b.n	8005bc6 <HAL_RCCEx_PeriphCLKConfig+0x5d2>
 8005e80:	f423 6280 	bic.w	r2, r3, #1024	@ 0x400
 8005e84:	f5b2 5f80 	cmp.w	r2, #4096	@ 0x1000
 8005e88:	d003      	beq.n	8005e92 <HAL_RCCEx_PeriphCLKConfig+0x89e>
 8005e8a:	f5b3 6f40 	cmp.w	r3, #3072	@ 0xc00
 8005e8e:	f47f aeac 	bne.w	8005bea <HAL_RCCEx_PeriphCLKConfig+0x5f6>
 8005e92:	b9ac      	cbnz	r4, 8005ec0 <HAL_RCCEx_PeriphCLKConfig+0x8cc>
 8005e94:	4a4a      	ldr	r2, [pc, #296]	@ (8005fc0 <HAL_RCCEx_PeriphCLKConfig+0x9cc>)
 8005e96:	f8d5 109c 	ldr.w	r1, [r5, #156]	@ 0x9c
 8005e9a:	6d93      	ldr	r3, [r2, #88]	@ 0x58
 8005e9c:	f423 53e0 	bic.w	r3, r3, #7168	@ 0x1c00
 8005ea0:	430b      	orrs	r3, r1
 8005ea2:	6593      	str	r3, [r2, #88]	@ 0x58
 8005ea4:	e6a3      	b.n	8005bee <HAL_RCCEx_PeriphCLKConfig+0x5fa>
 8005ea6:	2100      	movs	r1, #0
 8005ea8:	f105 0008 	add.w	r0, r5, #8
 8005eac:	f7ff fab2 	bl	8005414 <RCCEx_PLL2_Config>
 8005eb0:	4604      	mov	r4, r0
 8005eb2:	e7ee      	b.n	8005e92 <HAL_RCCEx_PeriphCLKConfig+0x89e>
 8005eb4:	2102      	movs	r1, #2
 8005eb6:	f105 0028 	add.w	r0, r5, #40	@ 0x28
 8005eba:	f7ff fb23 	bl	8005504 <RCCEx_PLL3_Config>
 8005ebe:	e7f7      	b.n	8005eb0 <HAL_RCCEx_PeriphCLKConfig+0x8bc>
 8005ec0:	4626      	mov	r6, r4
 8005ec2:	e694      	b.n	8005bee <HAL_RCCEx_PeriphCLKConfig+0x5fa>
 8005ec4:	f423 5200 	bic.w	r2, r3, #8192	@ 0x2000
 8005ec8:	f5b2 4f00 	cmp.w	r2, #32768	@ 0x8000
 8005ecc:	d003      	beq.n	8005ed6 <HAL_RCCEx_PeriphCLKConfig+0x8e2>
 8005ece:	f5b3 4fc0 	cmp.w	r3, #24576	@ 0x6000
 8005ed2:	f47f ae9e 	bne.w	8005c12 <HAL_RCCEx_PeriphCLKConfig+0x61e>
 8005ed6:	b9ac      	cbnz	r4, 8005f04 <HAL_RCCEx_PeriphCLKConfig+0x910>
 8005ed8:	4a39      	ldr	r2, [pc, #228]	@ (8005fc0 <HAL_RCCEx_PeriphCLKConfig+0x9cc>)
 8005eda:	f8d5 10a0 	ldr.w	r1, [r5, #160]	@ 0xa0
 8005ede:	6d93      	ldr	r3, [r2, #88]	@ 0x58
 8005ee0:	f423 4360 	bic.w	r3, r3, #57344	@ 0xe000
 8005ee4:	430b      	orrs	r3, r1
 8005ee6:	6593      	str	r3, [r2, #88]	@ 0x58
 8005ee8:	e695      	b.n	8005c16 <HAL_RCCEx_PeriphCLKConfig+0x622>
 8005eea:	2100      	movs	r1, #0
 8005eec:	f105 0008 	add.w	r0, r5, #8
 8005ef0:	f7ff fa90 	bl	8005414 <RCCEx_PLL2_Config>
 8005ef4:	4604      	mov	r4, r0
 8005ef6:	e7ee      	b.n	8005ed6 <HAL_RCCEx_PeriphCLKConfig+0x8e2>
 8005ef8:	2102      	movs	r1, #2
 8005efa:	f105 0028 	add.w	r0, r5, #40	@ 0x28
 8005efe:	f7ff fb01 	bl	8005504 <RCCEx_PLL3_Config>
 8005f02:	e7f7      	b.n	8005ef4 <HAL_RCCEx_PeriphCLKConfig+0x900>
 8005f04:	4626      	mov	r6, r4
 8005f06:	e686      	b.n	8005c16 <HAL_RCCEx_PeriphCLKConfig+0x622>
 8005f08:	2102      	movs	r1, #2
 8005f0a:	f105 0028 	add.w	r0, r5, #40	@ 0x28
 8005f0e:	f7ff faf9 	bl	8005504 <RCCEx_PLL3_Config>
 8005f12:	e6c3      	b.n	8005c9c <HAL_RCCEx_PeriphCLKConfig+0x6a8>
 8005f14:	2601      	movs	r6, #1
 8005f16:	4634      	mov	r4, r6
 8005f18:	e6cc      	b.n	8005cb4 <HAL_RCCEx_PeriphCLKConfig+0x6c0>
 8005f1a:	4626      	mov	r6, r4
 8005f1c:	e6ca      	b.n	8005cb4 <HAL_RCCEx_PeriphCLKConfig+0x6c0>
 8005f1e:	4a28      	ldr	r2, [pc, #160]	@ (8005fc0 <HAL_RCCEx_PeriphCLKConfig+0x9cc>)
 8005f20:	6ad3      	ldr	r3, [r2, #44]	@ 0x2c
 8005f22:	f443 3300 	orr.w	r3, r3, #131072	@ 0x20000
 8005f26:	62d3      	str	r3, [r2, #44]	@ 0x2c
 8005f28:	b97c      	cbnz	r4, 8005f4a <HAL_RCCEx_PeriphCLKConfig+0x956>
 8005f2a:	4a25      	ldr	r2, [pc, #148]	@ (8005fc0 <HAL_RCCEx_PeriphCLKConfig+0x9cc>)
 8005f2c:	f8d5 1088 	ldr.w	r1, [r5, #136]	@ 0x88
 8005f30:	6d53      	ldr	r3, [r2, #84]	@ 0x54
 8005f32:	f423 1340 	bic.w	r3, r3, #3145728	@ 0x300000
 8005f36:	430b      	orrs	r3, r1
 8005f38:	6553      	str	r3, [r2, #84]	@ 0x54
 8005f3a:	e6ce      	b.n	8005cda <HAL_RCCEx_PeriphCLKConfig+0x6e6>
 8005f3c:	2101      	movs	r1, #1
 8005f3e:	f105 0028 	add.w	r0, r5, #40	@ 0x28
 8005f42:	f7ff fadf 	bl	8005504 <RCCEx_PLL3_Config>
 8005f46:	4604      	mov	r4, r0
 8005f48:	e7ee      	b.n	8005f28 <HAL_RCCEx_PeriphCLKConfig+0x934>
 8005f4a:	4626      	mov	r6, r4
 8005f4c:	e6c5      	b.n	8005cda <HAL_RCCEx_PeriphCLKConfig+0x6e6>
 8005f4e:	4a1c      	ldr	r2, [pc, #112]	@ (8005fc0 <HAL_RCCEx_PeriphCLKConfig+0x9cc>)
 8005f50:	6ad3      	ldr	r3, [r2, #44]	@ 0x2c
 8005f52:	f443 3300 	orr.w	r3, r3, #131072	@ 0x20000
 8005f56:	62d3      	str	r3, [r2, #44]	@ 0x2c
 8005f58:	b974      	cbnz	r4, 8005f78 <HAL_RCCEx_PeriphCLKConfig+0x984>
 8005f5a:	4a19      	ldr	r2, [pc, #100]	@ (8005fc0 <HAL_RCCEx_PeriphCLKConfig+0x9cc>)
 8005f5c:	6d29      	ldr	r1, [r5, #80]	@ 0x50
 8005f5e:	6cd3      	ldr	r3, [r2, #76]	@ 0x4c
 8005f60:	f423 3380 	bic.w	r3, r3, #65536	@ 0x10000
 8005f64:	430b      	orrs	r3, r1
 8005f66:	64d3      	str	r3, [r2, #76]	@ 0x4c
 8005f68:	e6c4      	b.n	8005cf4 <HAL_RCCEx_PeriphCLKConfig+0x700>
 8005f6a:	2102      	movs	r1, #2
 8005f6c:	f105 0008 	add.w	r0, r5, #8
 8005f70:	f7ff fa50 	bl	8005414 <RCCEx_PLL2_Config>
 8005f74:	4604      	mov	r4, r0
 8005f76:	e7ef      	b.n	8005f58 <HAL_RCCEx_PeriphCLKConfig+0x964>
 8005f78:	4626      	mov	r6, r4
 8005f7a:	e6bb      	b.n	8005cf4 <HAL_RCCEx_PeriphCLKConfig+0x700>
 8005f7c:	f420 7280 	bic.w	r2, r0, #256	@ 0x100
 8005f80:	f5b2 7f00 	cmp.w	r2, #512	@ 0x200
 8005f84:	f47f aed1 	bne.w	8005d2a <HAL_RCCEx_PeriphCLKConfig+0x736>
 8005f88:	2c00      	cmp	r4, #0
 8005f8a:	f47f aecf 	bne.w	8005d2c <HAL_RCCEx_PeriphCLKConfig+0x738>
 8005f8e:	4c0c      	ldr	r4, [pc, #48]	@ (8005fc0 <HAL_RCCEx_PeriphCLKConfig+0x9cc>)
 8005f90:	6d62      	ldr	r2, [r4, #84]	@ 0x54
 8005f92:	f422 7240 	bic.w	r2, r2, #768	@ 0x300
 8005f96:	4302      	orrs	r2, r0
 8005f98:	6562      	str	r2, [r4, #84]	@ 0x54
 8005f9a:	4634      	mov	r4, r6
 8005f9c:	e6c6      	b.n	8005d2c <HAL_RCCEx_PeriphCLKConfig+0x738>
 8005f9e:	4f08      	ldr	r7, [pc, #32]	@ (8005fc0 <HAL_RCCEx_PeriphCLKConfig+0x9cc>)
 8005fa0:	6afa      	ldr	r2, [r7, #44]	@ 0x2c
 8005fa2:	f442 3200 	orr.w	r2, r2, #131072	@ 0x20000
 8005fa6:	62fa      	str	r2, [r7, #44]	@ 0x2c
 8005fa8:	e7ee      	b.n	8005f88 <HAL_RCCEx_PeriphCLKConfig+0x994>
 8005faa:	2102      	movs	r1, #2
 8005fac:	f105 0028 	add.w	r0, r5, #40	@ 0x28
 8005fb0:	f7ff faa8 	bl	8005504 <RCCEx_PLL3_Config>
 8005fb4:	2800      	cmp	r0, #0
 8005fb6:	f43f af2e 	beq.w	8005e16 <HAL_RCCEx_PeriphCLKConfig+0x822>
 8005fba:	2001      	movs	r0, #1
 8005fbc:	e72e      	b.n	8005e1c <HAL_RCCEx_PeriphCLKConfig+0x828>
 8005fbe:	bf00      	nop
 8005fc0:	58024400 	.word	0x58024400

08005fc4 <HAL_RCCEx_GetD3PCLK1Freq>:
 8005fc4:	b508      	push	{r3, lr}
 8005fc6:	f7ff f9df 	bl	8005388 <HAL_RCC_GetHCLKFreq>
 8005fca:	4b05      	ldr	r3, [pc, #20]	@ (8005fe0 <HAL_RCCEx_GetD3PCLK1Freq+0x1c>)
 8005fcc:	4a05      	ldr	r2, [pc, #20]	@ (8005fe4 <HAL_RCCEx_GetD3PCLK1Freq+0x20>)
 8005fce:	6a1b      	ldr	r3, [r3, #32]
 8005fd0:	f3c3 1302 	ubfx	r3, r3, #4, #3
 8005fd4:	5cd3      	ldrb	r3, [r2, r3]
 8005fd6:	f003 031f 	and.w	r3, r3, #31
 8005fda:	40d8      	lsrs	r0, r3
 8005fdc:	bd08      	pop	{r3, pc}
 8005fde:	bf00      	nop
 8005fe0:	58024400 	.word	0x58024400
 8005fe4:	08007de0 	.word	0x08007de0

08005fe8 <HAL_RCCEx_GetPLL2ClockFreq>:
 8005fe8:	494f      	ldr	r1, [pc, #316]	@ (8006128 <HAL_RCCEx_GetPLL2ClockFreq+0x140>)
 8005fea:	b570      	push	{r4, r5, r6, lr}
 8005fec:	6a8c      	ldr	r4, [r1, #40]	@ 0x28
 8005fee:	6a8e      	ldr	r6, [r1, #40]	@ 0x28
 8005ff0:	6acd      	ldr	r5, [r1, #44]	@ 0x2c
 8005ff2:	f416 3f7c 	tst.w	r6, #258048	@ 0x3f000
 8005ff6:	f3c6 3305 	ubfx	r3, r6, #12, #6
 8005ffa:	6bca      	ldr	r2, [r1, #60]	@ 0x3c
 8005ffc:	f000 8090 	beq.w	8006120 <HAL_RCCEx_GetPLL2ClockFreq+0x138>
 8006000:	ee07 3a90 	vmov	s15, r3
 8006004:	f3c2 03cc 	ubfx	r3, r2, #3, #13
 8006008:	f3c5 1200 	ubfx	r2, r5, #4, #1
 800600c:	f004 0403 	and.w	r4, r4, #3
 8006010:	eeb8 7ae7 	vcvt.f32.s32	s14, s15
 8006014:	4353      	muls	r3, r2
 8006016:	2c01      	cmp	r4, #1
 8006018:	eeb7 6a00 	vmov.f32	s12, #112	@ 0x3f800000  1.0
 800601c:	ee06 3a90 	vmov	s13, r3
 8006020:	eefa 6ae9 	vcvt.f32.s32	s13, s13, #13
 8006024:	d06e      	beq.n	8006104 <HAL_RCCEx_GetPLL2ClockFreq+0x11c>
 8006026:	2c02      	cmp	r4, #2
 8006028:	d05e      	beq.n	80060e8 <HAL_RCCEx_GetPLL2ClockFreq+0x100>
 800602a:	2c00      	cmp	r4, #0
 800602c:	d16a      	bne.n	8006104 <HAL_RCCEx_GetPLL2ClockFreq+0x11c>
 800602e:	680b      	ldr	r3, [r1, #0]
 8006030:	069b      	lsls	r3, r3, #26
 8006032:	d547      	bpl.n	80060c4 <HAL_RCCEx_GetPLL2ClockFreq+0xdc>
 8006034:	680a      	ldr	r2, [r1, #0]
 8006036:	6b8b      	ldr	r3, [r1, #56]	@ 0x38
 8006038:	f3c2 01c1 	ubfx	r1, r2, #3, #2
 800603c:	4a3b      	ldr	r2, [pc, #236]	@ (800612c <HAL_RCCEx_GetPLL2ClockFreq+0x144>)
 800603e:	f3c3 0308 	ubfx	r3, r3, #0, #9
 8006042:	40ca      	lsrs	r2, r1
 8006044:	ee07 2a90 	vmov	s15, r2
 8006048:	eef8 5ae7 	vcvt.f32.s32	s11, s15
 800604c:	eec5 7a87 	vdiv.f32	s15, s11, s14
 8006050:	ee07 3a10 	vmov	s14, r3
 8006054:	eeb8 7ac7 	vcvt.f32.s32	s14, s14
 8006058:	ee37 7a26 	vadd.f32	s14, s14, s13
 800605c:	ee37 7a06 	vadd.f32	s14, s14, s12
 8006060:	ee67 7a87 	vmul.f32	s15, s15, s14
 8006064:	4a30      	ldr	r2, [pc, #192]	@ (8006128 <HAL_RCCEx_GetPLL2ClockFreq+0x140>)
 8006066:	6b93      	ldr	r3, [r2, #56]	@ 0x38
 8006068:	f3c3 2346 	ubfx	r3, r3, #9, #7
 800606c:	ee07 3a10 	vmov	s14, r3
 8006070:	eeb8 7ac7 	vcvt.f32.s32	s14, s14
 8006074:	ee37 7a06 	vadd.f32	s14, s14, s12
 8006078:	eec7 6a87 	vdiv.f32	s13, s15, s14
 800607c:	eefc 6ae6 	vcvt.u32.f32	s13, s13
 8006080:	edc0 6a00 	vstr	s13, [r0]
 8006084:	6b93      	ldr	r3, [r2, #56]	@ 0x38
 8006086:	f3c3 4306 	ubfx	r3, r3, #16, #7
 800608a:	ee07 3a10 	vmov	s14, r3
 800608e:	eeb8 7ac7 	vcvt.f32.s32	s14, s14
 8006092:	ee37 7a06 	vadd.f32	s14, s14, s12
 8006096:	eec7 6a87 	vdiv.f32	s13, s15, s14
 800609a:	eefc 6ae6 	vcvt.u32.f32	s13, s13
 800609e:	edc0 6a01 	vstr	s13, [r0, #4]
 80060a2:	6b93      	ldr	r3, [r2, #56]	@ 0x38
 80060a4:	f3c3 6306 	ubfx	r3, r3, #24, #7
 80060a8:	ee06 3a90 	vmov	s13, r3
 80060ac:	eef8 6ae6 	vcvt.f32.s32	s13, s13
 80060b0:	ee76 6a86 	vadd.f32	s13, s13, s12
 80060b4:	ee87 7aa6 	vdiv.f32	s14, s15, s13
 80060b8:	eefc 7ac7 	vcvt.u32.f32	s15, s14
 80060bc:	ee17 3a90 	vmov	r3, s15
 80060c0:	6083      	str	r3, [r0, #8]
 80060c2:	bd70      	pop	{r4, r5, r6, pc}
 80060c4:	6b8b      	ldr	r3, [r1, #56]	@ 0x38
 80060c6:	eddf 5a1a 	vldr	s11, [pc, #104]	@ 8006130 <HAL_RCCEx_GetPLL2ClockFreq+0x148>
 80060ca:	f3c3 0308 	ubfx	r3, r3, #0, #9
 80060ce:	ee07 3a90 	vmov	s15, r3
 80060d2:	eef8 7ae7 	vcvt.f32.s32	s15, s15
 80060d6:	ee77 7aa6 	vadd.f32	s15, s15, s13
 80060da:	ee77 7a86 	vadd.f32	s15, s15, s12
 80060de:	eec5 6a87 	vdiv.f32	s13, s11, s14
 80060e2:	ee67 7aa6 	vmul.f32	s15, s15, s13
 80060e6:	e7bd      	b.n	8006064 <HAL_RCCEx_GetPLL2ClockFreq+0x7c>
 80060e8:	6b8b      	ldr	r3, [r1, #56]	@ 0x38
 80060ea:	eddf 5a12 	vldr	s11, [pc, #72]	@ 8006134 <HAL_RCCEx_GetPLL2ClockFreq+0x14c>
 80060ee:	f3c3 0308 	ubfx	r3, r3, #0, #9
 80060f2:	ee07 3a90 	vmov	s15, r3
 80060f6:	eef8 7ae7 	vcvt.f32.s32	s15, s15
 80060fa:	ee77 7aa6 	vadd.f32	s15, s15, s13
 80060fe:	ee77 7a86 	vadd.f32	s15, s15, s12
 8006102:	e7ec      	b.n	80060de <HAL_RCCEx_GetPLL2ClockFreq+0xf6>
 8006104:	6b8b      	ldr	r3, [r1, #56]	@ 0x38
 8006106:	eddf 5a0c 	vldr	s11, [pc, #48]	@ 8006138 <HAL_RCCEx_GetPLL2ClockFreq+0x150>
 800610a:	f3c3 0308 	ubfx	r3, r3, #0, #9
 800610e:	ee07 3a90 	vmov	s15, r3
 8006112:	eef8 7ae7 	vcvt.f32.s32	s15, s15
 8006116:	ee77 7aa6 	vadd.f32	s15, s15, s13
 800611a:	ee77 7a86 	vadd.f32	s15, s15, s12
 800611e:	e7de      	b.n	80060de <HAL_RCCEx_GetPLL2ClockFreq+0xf6>
 8006120:	e9c0 3300 	strd	r3, r3, [r0]
 8006124:	e7cc      	b.n	80060c0 <HAL_RCCEx_GetPLL2ClockFreq+0xd8>
 8006126:	bf00      	nop
 8006128:	58024400 	.word	0x58024400
 800612c:	03d09000 	.word	0x03d09000
 8006130:	4c742400 	.word	0x4c742400
 8006134:	4af42400 	.word	0x4af42400
 8006138:	4a742400 	.word	0x4a742400

0800613c <HAL_RCCEx_GetPLL3ClockFreq>:
 800613c:	494f      	ldr	r1, [pc, #316]	@ (800627c <HAL_RCCEx_GetPLL3ClockFreq+0x140>)
 800613e:	b570      	push	{r4, r5, r6, lr}
 8006140:	6a8c      	ldr	r4, [r1, #40]	@ 0x28
 8006142:	6a8e      	ldr	r6, [r1, #40]	@ 0x28
 8006144:	6acd      	ldr	r5, [r1, #44]	@ 0x2c
 8006146:	f016 7f7c 	tst.w	r6, #66060288	@ 0x3f00000
 800614a:	f3c6 5305 	ubfx	r3, r6, #20, #6
 800614e:	6c4a      	ldr	r2, [r1, #68]	@ 0x44
 8006150:	f000 8090 	beq.w	8006274 <HAL_RCCEx_GetPLL3ClockFreq+0x138>
 8006154:	ee07 3a90 	vmov	s15, r3
 8006158:	f3c2 03cc 	ubfx	r3, r2, #3, #13
 800615c:	f3c5 2200 	ubfx	r2, r5, #8, #1
 8006160:	f004 0403 	and.w	r4, r4, #3
 8006164:	eeb8 7ae7 	vcvt.f32.s32	s14, s15
 8006168:	4353      	muls	r3, r2
 800616a:	2c01      	cmp	r4, #1
 800616c:	eeb7 6a00 	vmov.f32	s12, #112	@ 0x3f800000  1.0
 8006170:	ee06 3a90 	vmov	s13, r3
 8006174:	eefa 6ae9 	vcvt.f32.s32	s13, s13, #13
 8006178:	d06e      	beq.n	8006258 <HAL_RCCEx_GetPLL3ClockFreq+0x11c>
 800617a:	2c02      	cmp	r4, #2
 800617c:	d05e      	beq.n	800623c <HAL_RCCEx_GetPLL3ClockFreq+0x100>
 800617e:	2c00      	cmp	r4, #0
 8006180:	d16a      	bne.n	8006258 <HAL_RCCEx_GetPLL3ClockFreq+0x11c>
 8006182:	680b      	ldr	r3, [r1, #0]
 8006184:	069b      	lsls	r3, r3, #26
 8006186:	d547      	bpl.n	8006218 <HAL_RCCEx_GetPLL3ClockFreq+0xdc>
 8006188:	680a      	ldr	r2, [r1, #0]
 800618a:	6c0b      	ldr	r3, [r1, #64]	@ 0x40
 800618c:	f3c2 01c1 	ubfx	r1, r2, #3, #2
 8006190:	4a3b      	ldr	r2, [pc, #236]	@ (8006280 <HAL_RCCEx_GetPLL3ClockFreq+0x144>)
 8006192:	f3c3 0308 	ubfx	r3, r3, #0, #9
 8006196:	40ca      	lsrs	r2, r1
 8006198:	ee07 2a90 	vmov	s15, r2
 800619c:	eef8 5ae7 	vcvt.f32.s32	s11, s15
 80061a0:	eec5 7a87 	vdiv.f32	s15, s11, s14
 80061a4:	ee07 3a10 	vmov	s14, r3
 80061a8:	eeb8 7ac7 	vcvt.f32.s32	s14, s14
 80061ac:	ee37 7a26 	vadd.f32	s14, s14, s13
 80061b0:	ee37 7a06 	vadd.f32	s14, s14, s12
 80061b4:	ee67 7a87 	vmul.f32	s15, s15, s14
 80061b8:	4a30      	ldr	r2, [pc, #192]	@ (800627c <HAL_RCCEx_GetPLL3ClockFreq+0x140>)
 80061ba:	6c13      	ldr	r3, [r2, #64]	@ 0x40
 80061bc:	f3c3 2346 	ubfx	r3, r3, #9, #7
 80061c0:	ee07 3a10 	vmov	s14, r3
 80061c4:	eeb8 7ac7 	vcvt.f32.s32	s14, s14
 80061c8:	ee37 7a06 	vadd.f32	s14, s14, s12
 80061cc:	eec7 6a87 	vdiv.f32	s13, s15, s14
 80061d0:	eefc 6ae6 	vcvt.u32.f32	s13, s13
 80061d4:	edc0 6a00 	vstr	s13, [r0]
 80061d8:	6c13      	ldr	r3, [r2, #64]	@ 0x40
 80061da:	f3c3 4306 	ubfx	r3, r3, #16, #7
 80061de:	ee07 3a10 	vmov	s14, r3
 80061e2:	eeb8 7ac7 	vcvt.f32.s32	s14, s14
 80061e6:	ee37 7a06 	vadd.f32	s14, s14, s12
 80061ea:	eec7 6a87 	vdiv.f32	s13, s15, s14
 80061ee:	eefc 6ae6 	vcvt.u32.f32	s13, s13
 80061f2:	edc0 6a01 	vstr	s13, [r0, #4]
 80061f6:	6c13      	ldr	r3, [r2, #64]	@ 0x40
 80061f8:	f3c3 6306 	ubfx	r3, r3, #24, #7
 80061fc:	ee06 3a90 	vmov	s13, r3
 8006200:	eef8 6ae6 	vcvt.f32.s32	s13, s13
 8006204:	ee76 6a86 	vadd.f32	s13, s13, s12
 8006208:	ee87 7aa6 	vdiv.f32	s14, s15, s13
 800620c:	eefc 7ac7 	vcvt.u32.f32	s15, s14
 8006210:	ee17 3a90 	vmov	r3, s15
 8006214:	6083      	str	r3, [r0, #8]
 8006216:	bd70      	pop	{r4, r5, r6, pc}
 8006218:	6c0b      	ldr	r3, [r1, #64]	@ 0x40
 800621a:	eddf 5a1a 	vldr	s11, [pc, #104]	@ 8006284 <HAL_RCCEx_GetPLL3ClockFreq+0x148>
 800621e:	f3c3 0308 	ubfx	r3, r3, #0, #9
 8006222:	ee07 3a90 	vmov	s15, r3
 8006226:	eef8 7ae7 	vcvt.f32.s32	s15, s15
 800622a:	ee77 7aa6 	vadd.f32	s15, s15, s13
 800622e:	ee77 7a86 	vadd.f32	s15, s15, s12
 8006232:	eec5 6a87 	vdiv.f32	s13, s11, s14
 8006236:	ee67 7aa6 	vmul.f32	s15, s15, s13
 800623a:	e7bd      	b.n	80061b8 <HAL_RCCEx_GetPLL3ClockFreq+0x7c>
 800623c:	6c0b      	ldr	r3, [r1, #64]	@ 0x40
 800623e:	eddf 5a12 	vldr	s11, [pc, #72]	@ 8006288 <HAL_RCCEx_GetPLL3ClockFreq+0x14c>
 8006242:	f3c3 0308 	ubfx	r3, r3, #0, #9
 8006246:	ee07 3a90 	vmov	s15, r3
 800624a:	eef8 7ae7 	vcvt.f32.s32	s15, s15
 800624e:	ee77 7aa6 	vadd.f32	s15, s15, s13
 8006252:	ee77 7a86 	vadd.f32	s15, s15, s12
 8006256:	e7ec      	b.n	8006232 <HAL_RCCEx_GetPLL3ClockFreq+0xf6>
 8006258:	6c0b      	ldr	r3, [r1, #64]	@ 0x40
 800625a:	eddf 5a0c 	vldr	s11, [pc, #48]	@ 800628c <HAL_RCCEx_GetPLL3ClockFreq+0x150>
 800625e:	f3c3 0308 	ubfx	r3, r3, #0, #9
 8006262:	ee07 3a90 	vmov	s15, r3
 8006266:	eef8 7ae7 	vcvt.f32.s32	s15, s15
 800626a:	ee77 7aa6 	vadd.f32	s15, s15, s13
 800626e:	ee77 7a86 	vadd.f32	s15, s15, s12
 8006272:	e7de      	b.n	8006232 <HAL_RCCEx_GetPLL3ClockFreq+0xf6>
 8006274:	e9c0 3300 	strd	r3, r3, [r0]
 8006278:	e7cc      	b.n	8006214 <HAL_RCCEx_GetPLL3ClockFreq+0xd8>
 800627a:	bf00      	nop
 800627c:	58024400 	.word	0x58024400
 8006280:	03d09000 	.word	0x03d09000
 8006284:	4c742400 	.word	0x4c742400
 8006288:	4af42400 	.word	0x4af42400
 800628c:	4a742400 	.word	0x4a742400

08006290 <HAL_RCCEx_GetPLL1ClockFreq>:
 8006290:	494f      	ldr	r1, [pc, #316]	@ (80063d0 <HAL_RCCEx_GetPLL1ClockFreq+0x140>)
 8006292:	b570      	push	{r4, r5, r6, lr}
 8006294:	6a8c      	ldr	r4, [r1, #40]	@ 0x28
 8006296:	6a8e      	ldr	r6, [r1, #40]	@ 0x28
 8006298:	6acd      	ldr	r5, [r1, #44]	@ 0x2c
 800629a:	f416 7f7c 	tst.w	r6, #1008	@ 0x3f0
 800629e:	f3c6 1305 	ubfx	r3, r6, #4, #6
 80062a2:	6b4a      	ldr	r2, [r1, #52]	@ 0x34
 80062a4:	f000 8090 	beq.w	80063c8 <HAL_RCCEx_GetPLL1ClockFreq+0x138>
 80062a8:	ee07 3a90 	vmov	s15, r3
 80062ac:	f3c2 03cc 	ubfx	r3, r2, #3, #13
 80062b0:	f005 0201 	and.w	r2, r5, #1
 80062b4:	f004 0403 	and.w	r4, r4, #3
 80062b8:	eeb8 7ae7 	vcvt.f32.s32	s14, s15
 80062bc:	4353      	muls	r3, r2
 80062be:	2c01      	cmp	r4, #1
 80062c0:	eeb7 6a00 	vmov.f32	s12, #112	@ 0x3f800000  1.0
 80062c4:	ee06 3a90 	vmov	s13, r3
 80062c8:	eefa 6ae9 	vcvt.f32.s32	s13, s13, #13
 80062cc:	d04e      	beq.n	800636c <HAL_RCCEx_GetPLL1ClockFreq+0xdc>
 80062ce:	2c02      	cmp	r4, #2
 80062d0:	d05e      	beq.n	8006390 <HAL_RCCEx_GetPLL1ClockFreq+0x100>
 80062d2:	2c00      	cmp	r4, #0
 80062d4:	d16a      	bne.n	80063ac <HAL_RCCEx_GetPLL1ClockFreq+0x11c>
 80062d6:	680b      	ldr	r3, [r1, #0]
 80062d8:	069b      	lsls	r3, r3, #26
 80062da:	d567      	bpl.n	80063ac <HAL_RCCEx_GetPLL1ClockFreq+0x11c>
 80062dc:	680a      	ldr	r2, [r1, #0]
 80062de:	6b0b      	ldr	r3, [r1, #48]	@ 0x30
 80062e0:	f3c2 01c1 	ubfx	r1, r2, #3, #2
 80062e4:	4a3b      	ldr	r2, [pc, #236]	@ (80063d4 <HAL_RCCEx_GetPLL1ClockFreq+0x144>)
 80062e6:	f3c3 0308 	ubfx	r3, r3, #0, #9
 80062ea:	40ca      	lsrs	r2, r1
 80062ec:	ee07 2a90 	vmov	s15, r2
 80062f0:	eef8 5ae7 	vcvt.f32.s32	s11, s15
 80062f4:	eec5 7a87 	vdiv.f32	s15, s11, s14
 80062f8:	ee07 3a10 	vmov	s14, r3
 80062fc:	eeb8 7ac7 	vcvt.f32.s32	s14, s14
 8006300:	ee37 7a26 	vadd.f32	s14, s14, s13
 8006304:	ee37 7a06 	vadd.f32	s14, s14, s12
 8006308:	ee67 7a87 	vmul.f32	s15, s15, s14
 800630c:	4a30      	ldr	r2, [pc, #192]	@ (80063d0 <HAL_RCCEx_GetPLL1ClockFreq+0x140>)
 800630e:	6b13      	ldr	r3, [r2, #48]	@ 0x30
 8006310:	f3c3 2346 	ubfx	r3, r3, #9, #7
 8006314:	ee07 3a10 	vmov	s14, r3
 8006318:	eeb8 7ac7 	vcvt.f32.s32	s14, s14
 800631c:	ee37 7a06 	vadd.f32	s14, s14, s12
 8006320:	eec7 6a87 	vdiv.f32	s13, s15, s14
 8006324:	eefc 6ae6 	vcvt.u32.f32	s13, s13
 8006328:	edc0 6a00 	vstr	s13, [r0]
 800632c:	6b13      	ldr	r3, [r2, #48]	@ 0x30
 800632e:	f3c3 4306 	ubfx	r3, r3, #16, #7
 8006332:	ee07 3a10 	vmov	s14, r3
 8006336:	eeb8 7ac7 	vcvt.f32.s32	s14, s14
 800633a:	ee37 7a06 	vadd.f32	s14, s14, s12
 800633e:	eec7 6a87 	vdiv.f32	s13, s15, s14
 8006342:	eefc 6ae6 	vcvt.u32.f32	s13, s13
 8006346:	edc0 6a01 	vstr	s13, [r0, #4]
 800634a:	6b13      	ldr	r3, [r2, #48]	@ 0x30
 800634c:	f3c3 6306 	ubfx	r3, r3, #24, #7
 8006350:	ee06 3a90 	vmov	s13, r3
 8006354:	eef8 6ae6 	vcvt.f32.s32	s13, s13
 8006358:	ee76 6a86 	vadd.f32	s13, s13, s12
 800635c:	ee87 7aa6 	vdiv.f32	s14, s15, s13
 8006360:	eefc 7ac7 	vcvt.u32.f32	s15, s14
 8006364:	ee17 3a90 	vmov	r3, s15
 8006368:	6083      	str	r3, [r0, #8]
 800636a:	bd70      	pop	{r4, r5, r6, pc}
 800636c:	6b0b      	ldr	r3, [r1, #48]	@ 0x30
 800636e:	eddf 5a1a 	vldr	s11, [pc, #104]	@ 80063d8 <HAL_RCCEx_GetPLL1ClockFreq+0x148>
 8006372:	f3c3 0308 	ubfx	r3, r3, #0, #9
 8006376:	ee07 3a90 	vmov	s15, r3
 800637a:	eef8 7ae7 	vcvt.f32.s32	s15, s15
 800637e:	ee77 7aa6 	vadd.f32	s15, s15, s13
 8006382:	ee77 7a86 	vadd.f32	s15, s15, s12
 8006386:	eec5 6a87 	vdiv.f32	s13, s11, s14
 800638a:	ee67 7aa6 	vmul.f32	s15, s15, s13
 800638e:	e7bd      	b.n	800630c <HAL_RCCEx_GetPLL1ClockFreq+0x7c>
 8006390:	6b0b      	ldr	r3, [r1, #48]	@ 0x30
 8006392:	eddf 5a12 	vldr	s11, [pc, #72]	@ 80063dc <HAL_RCCEx_GetPLL1ClockFreq+0x14c>
 8006396:	f3c3 0308 	ubfx	r3, r3, #0, #9
 800639a:	ee07 3a90 	vmov	s15, r3
 800639e:	eef8 7ae7 	vcvt.f32.s32	s15, s15
 80063a2:	ee77 7aa6 	vadd.f32	s15, s15, s13
 80063a6:	ee77 7a86 	vadd.f32	s15, s15, s12
 80063aa:	e7ec      	b.n	8006386 <HAL_RCCEx_GetPLL1ClockFreq+0xf6>
 80063ac:	6b0b      	ldr	r3, [r1, #48]	@ 0x30
 80063ae:	eddf 5a0c 	vldr	s11, [pc, #48]	@ 80063e0 <HAL_RCCEx_GetPLL1ClockFreq+0x150>
 80063b2:	f3c3 0308 	ubfx	r3, r3, #0, #9
 80063b6:	ee07 3a90 	vmov	s15, r3
 80063ba:	eef8 7ae7 	vcvt.f32.s32	s15, s15
 80063be:	ee77 7aa6 	vadd.f32	s15, s15, s13
 80063c2:	ee77 7a86 	vadd.f32	s15, s15, s12
 80063c6:	e7de      	b.n	8006386 <HAL_RCCEx_GetPLL1ClockFreq+0xf6>
 80063c8:	e9c0 3300 	strd	r3, r3, [r0]
 80063cc:	e7cc      	b.n	8006368 <HAL_RCCEx_GetPLL1ClockFreq+0xd8>
 80063ce:	bf00      	nop
 80063d0:	58024400 	.word	0x58024400
 80063d4:	03d09000 	.word	0x03d09000
 80063d8:	4a742400 	.word	0x4a742400
 80063dc:	4af42400 	.word	0x4af42400
 80063e0:	4c742400 	.word	0x4c742400

080063e4 <HAL_RCCEx_GetPeriphCLKFreq>:
 80063e4:	b51f      	push	{r0, r1, r2, r3, r4, lr}
 80063e6:	f5a0 7380 	sub.w	r3, r0, #256	@ 0x100
 80063ea:	430b      	orrs	r3, r1
 80063ec:	d114      	bne.n	8006418 <HAL_RCCEx_GetPeriphCLKFreq+0x34>
 80063ee:	4b9e      	ldr	r3, [pc, #632]	@ (8006668 <HAL_RCCEx_GetPeriphCLKFreq+0x284>)
 80063f0:	6d1a      	ldr	r2, [r3, #80]	@ 0x50
 80063f2:	f002 0207 	and.w	r2, r2, #7
 80063f6:	2a04      	cmp	r2, #4
 80063f8:	d82f      	bhi.n	800645a <HAL_RCCEx_GetPeriphCLKFreq+0x76>
 80063fa:	e8df f012 	tbh	[pc, r2, lsl #1]
 80063fe:	0108      	.short	0x0108
 8006400:	0005001d 	.word	0x0005001d
 8006404:	00490165 	.word	0x00490165
 8006408:	6818      	ldr	r0, [r3, #0]
 800640a:	f010 5000 	ands.w	r0, r0, #536870912	@ 0x20000000
 800640e:	d01b      	beq.n	8006448 <HAL_RCCEx_GetPeriphCLKFreq+0x64>
 8006410:	a801      	add	r0, sp, #4
 8006412:	f7ff fe93 	bl	800613c <HAL_RCCEx_GetPLL3ClockFreq>
 8006416:	e016      	b.n	8006446 <HAL_RCCEx_GetPeriphCLKFreq+0x62>
 8006418:	f5a0 7300 	sub.w	r3, r0, #512	@ 0x200
 800641c:	430b      	orrs	r3, r1
 800641e:	d11e      	bne.n	800645e <HAL_RCCEx_GetPeriphCLKFreq+0x7a>
 8006420:	4b91      	ldr	r3, [pc, #580]	@ (8006668 <HAL_RCCEx_GetPeriphCLKFreq+0x284>)
 8006422:	6d1a      	ldr	r2, [r3, #80]	@ 0x50
 8006424:	f402 72e0 	and.w	r2, r2, #448	@ 0x1c0
 8006428:	2a80      	cmp	r2, #128	@ 0x80
 800642a:	d0ed      	beq.n	8006408 <HAL_RCCEx_GetPeriphCLKFreq+0x24>
 800642c:	d80f      	bhi.n	800644e <HAL_RCCEx_GetPeriphCLKFreq+0x6a>
 800642e:	2a00      	cmp	r2, #0
 8006430:	f000 80ed 	beq.w	800660e <HAL_RCCEx_GetPeriphCLKFreq+0x22a>
 8006434:	2a40      	cmp	r2, #64	@ 0x40
 8006436:	d110      	bne.n	800645a <HAL_RCCEx_GetPeriphCLKFreq+0x76>
 8006438:	6818      	ldr	r0, [r3, #0]
 800643a:	f010 6000 	ands.w	r0, r0, #134217728	@ 0x8000000
 800643e:	d003      	beq.n	8006448 <HAL_RCCEx_GetPeriphCLKFreq+0x64>
 8006440:	a801      	add	r0, sp, #4
 8006442:	f7ff fdd1 	bl	8005fe8 <HAL_RCCEx_GetPLL2ClockFreq>
 8006446:	9801      	ldr	r0, [sp, #4]
 8006448:	b005      	add	sp, #20
 800644a:	f85d fb04 	ldr.w	pc, [sp], #4
 800644e:	2ac0      	cmp	r2, #192	@ 0xc0
 8006450:	f000 813a 	beq.w	80066c8 <HAL_RCCEx_GetPeriphCLKFreq+0x2e4>
 8006454:	f5b2 7f80 	cmp.w	r2, #256	@ 0x100
 8006458:	d01a      	beq.n	8006490 <HAL_RCCEx_GetPeriphCLKFreq+0xac>
 800645a:	2000      	movs	r0, #0
 800645c:	e7f4      	b.n	8006448 <HAL_RCCEx_GetPeriphCLKFreq+0x64>
 800645e:	f5a0 6380 	sub.w	r3, r0, #1024	@ 0x400
 8006462:	430b      	orrs	r3, r1
 8006464:	d133      	bne.n	80064ce <HAL_RCCEx_GetPeriphCLKFreq+0xea>
 8006466:	4b80      	ldr	r3, [pc, #512]	@ (8006668 <HAL_RCCEx_GetPeriphCLKFreq+0x284>)
 8006468:	6d9a      	ldr	r2, [r3, #88]	@ 0x58
 800646a:	f402 0260 	and.w	r2, r2, #14680064	@ 0xe00000
 800646e:	f5b2 0f80 	cmp.w	r2, #4194304	@ 0x400000
 8006472:	d0c9      	beq.n	8006408 <HAL_RCCEx_GetPeriphCLKFreq+0x24>
 8006474:	d805      	bhi.n	8006482 <HAL_RCCEx_GetPeriphCLKFreq+0x9e>
 8006476:	2a00      	cmp	r2, #0
 8006478:	f000 80c9 	beq.w	800660e <HAL_RCCEx_GetPeriphCLKFreq+0x22a>
 800647c:	f5b2 1f00 	cmp.w	r2, #2097152	@ 0x200000
 8006480:	e7d9      	b.n	8006436 <HAL_RCCEx_GetPeriphCLKFreq+0x52>
 8006482:	f5b2 0fc0 	cmp.w	r2, #6291456	@ 0x600000
 8006486:	f000 811f 	beq.w	80066c8 <HAL_RCCEx_GetPeriphCLKFreq+0x2e4>
 800648a:	f5b2 0f00 	cmp.w	r2, #8388608	@ 0x800000
 800648e:	e7e3      	b.n	8006458 <HAL_RCCEx_GetPeriphCLKFreq+0x74>
 8006490:	6cda      	ldr	r2, [r3, #76]	@ 0x4c
 8006492:	6819      	ldr	r1, [r3, #0]
 8006494:	f002 5240 	and.w	r2, r2, #805306368	@ 0x30000000
 8006498:	0748      	lsls	r0, r1, #29
 800649a:	d506      	bpl.n	80064aa <HAL_RCCEx_GetPeriphCLKFreq+0xc6>
 800649c:	b92a      	cbnz	r2, 80064aa <HAL_RCCEx_GetPeriphCLKFreq+0xc6>
 800649e:	681b      	ldr	r3, [r3, #0]
 80064a0:	f3c3 03c1 	ubfx	r3, r3, #3, #2
 80064a4:	4871      	ldr	r0, [pc, #452]	@ (800666c <HAL_RCCEx_GetPeriphCLKFreq+0x288>)
 80064a6:	40d8      	lsrs	r0, r3
 80064a8:	e7ce      	b.n	8006448 <HAL_RCCEx_GetPeriphCLKFreq+0x64>
 80064aa:	4b6f      	ldr	r3, [pc, #444]	@ (8006668 <HAL_RCCEx_GetPeriphCLKFreq+0x284>)
 80064ac:	6819      	ldr	r1, [r3, #0]
 80064ae:	05c9      	lsls	r1, r1, #23
 80064b0:	d503      	bpl.n	80064ba <HAL_RCCEx_GetPeriphCLKFreq+0xd6>
 80064b2:	f1b2 5f80 	cmp.w	r2, #268435456	@ 0x10000000
 80064b6:	f000 8109 	beq.w	80066cc <HAL_RCCEx_GetPeriphCLKFreq+0x2e8>
 80064ba:	6818      	ldr	r0, [r3, #0]
 80064bc:	f410 3000 	ands.w	r0, r0, #131072	@ 0x20000
 80064c0:	d0c2      	beq.n	8006448 <HAL_RCCEx_GetPeriphCLKFreq+0x64>
 80064c2:	f1b2 5f00 	cmp.w	r2, #536870912	@ 0x20000000
 80064c6:	486a      	ldr	r0, [pc, #424]	@ (8006670 <HAL_RCCEx_GetPeriphCLKFreq+0x28c>)
 80064c8:	bf18      	it	ne
 80064ca:	2000      	movne	r0, #0
 80064cc:	e7bc      	b.n	8006448 <HAL_RCCEx_GetPeriphCLKFreq+0x64>
 80064ce:	f5a0 6300 	sub.w	r3, r0, #2048	@ 0x800
 80064d2:	430b      	orrs	r3, r1
 80064d4:	d125      	bne.n	8006522 <HAL_RCCEx_GetPeriphCLKFreq+0x13e>
 80064d6:	4b64      	ldr	r3, [pc, #400]	@ (8006668 <HAL_RCCEx_GetPeriphCLKFreq+0x284>)
 80064d8:	6d9a      	ldr	r2, [r3, #88]	@ 0x58
 80064da:	f002 62e0 	and.w	r2, r2, #117440512	@ 0x7000000
 80064de:	f1b2 7f00 	cmp.w	r2, #33554432	@ 0x2000000
 80064e2:	d091      	beq.n	8006408 <HAL_RCCEx_GetPeriphCLKFreq+0x24>
 80064e4:	d805      	bhi.n	80064f2 <HAL_RCCEx_GetPeriphCLKFreq+0x10e>
 80064e6:	2a00      	cmp	r2, #0
 80064e8:	f000 8091 	beq.w	800660e <HAL_RCCEx_GetPeriphCLKFreq+0x22a>
 80064ec:	f1b2 7f80 	cmp.w	r2, #16777216	@ 0x1000000
 80064f0:	e7a1      	b.n	8006436 <HAL_RCCEx_GetPeriphCLKFreq+0x52>
 80064f2:	f1b2 7f40 	cmp.w	r2, #50331648	@ 0x3000000
 80064f6:	f000 80e7 	beq.w	80066c8 <HAL_RCCEx_GetPeriphCLKFreq+0x2e4>
 80064fa:	f1b2 6f80 	cmp.w	r2, #67108864	@ 0x4000000
 80064fe:	d1ac      	bne.n	800645a <HAL_RCCEx_GetPeriphCLKFreq+0x76>
 8006500:	6cda      	ldr	r2, [r3, #76]	@ 0x4c
 8006502:	6819      	ldr	r1, [r3, #0]
 8006504:	f002 5240 	and.w	r2, r2, #805306368	@ 0x30000000
 8006508:	681b      	ldr	r3, [r3, #0]
 800650a:	0748      	lsls	r0, r1, #29
 800650c:	d501      	bpl.n	8006512 <HAL_RCCEx_GetPeriphCLKFreq+0x12e>
 800650e:	2a00      	cmp	r2, #0
 8006510:	d0c6      	beq.n	80064a0 <HAL_RCCEx_GetPeriphCLKFreq+0xbc>
 8006512:	05d9      	lsls	r1, r3, #23
 8006514:	d503      	bpl.n	800651e <HAL_RCCEx_GetPeriphCLKFreq+0x13a>
 8006516:	f1b2 5f80 	cmp.w	r2, #268435456	@ 0x10000000
 800651a:	f000 80d7 	beq.w	80066cc <HAL_RCCEx_GetPeriphCLKFreq+0x2e8>
 800651e:	4b52      	ldr	r3, [pc, #328]	@ (8006668 <HAL_RCCEx_GetPeriphCLKFreq+0x284>)
 8006520:	e7cb      	b.n	80064ba <HAL_RCCEx_GetPeriphCLKFreq+0xd6>
 8006522:	f5a0 5380 	sub.w	r3, r0, #4096	@ 0x1000
 8006526:	430b      	orrs	r3, r1
 8006528:	d114      	bne.n	8006554 <HAL_RCCEx_GetPeriphCLKFreq+0x170>
 800652a:	4b4f      	ldr	r3, [pc, #316]	@ (8006668 <HAL_RCCEx_GetPeriphCLKFreq+0x284>)
 800652c:	6d1a      	ldr	r2, [r3, #80]	@ 0x50
 800652e:	f402 42e0 	and.w	r2, r2, #28672	@ 0x7000
 8006532:	f5b2 5f00 	cmp.w	r2, #8192	@ 0x2000
 8006536:	f43f af67 	beq.w	8006408 <HAL_RCCEx_GetPeriphCLKFreq+0x24>
 800653a:	d804      	bhi.n	8006546 <HAL_RCCEx_GetPeriphCLKFreq+0x162>
 800653c:	2a00      	cmp	r2, #0
 800653e:	d066      	beq.n	800660e <HAL_RCCEx_GetPeriphCLKFreq+0x22a>
 8006540:	f5b2 5f80 	cmp.w	r2, #4096	@ 0x1000
 8006544:	e777      	b.n	8006436 <HAL_RCCEx_GetPeriphCLKFreq+0x52>
 8006546:	f5b2 5f40 	cmp.w	r2, #12288	@ 0x3000
 800654a:	f000 80bd 	beq.w	80066c8 <HAL_RCCEx_GetPeriphCLKFreq+0x2e4>
 800654e:	f5b2 4f80 	cmp.w	r2, #16384	@ 0x4000
 8006552:	e7d4      	b.n	80064fe <HAL_RCCEx_GetPeriphCLKFreq+0x11a>
 8006554:	f5a0 5300 	sub.w	r3, r0, #8192	@ 0x2000
 8006558:	430b      	orrs	r3, r1
 800655a:	d134      	bne.n	80065c6 <HAL_RCCEx_GetPeriphCLKFreq+0x1e2>
 800655c:	4a42      	ldr	r2, [pc, #264]	@ (8006668 <HAL_RCCEx_GetPeriphCLKFreq+0x284>)
 800655e:	6d13      	ldr	r3, [r2, #80]	@ 0x50
 8006560:	f403 23e0 	and.w	r3, r3, #458752	@ 0x70000
 8006564:	f5b3 3f40 	cmp.w	r3, #196608	@ 0x30000
 8006568:	f000 808a 	beq.w	8006680 <HAL_RCCEx_GetPeriphCLKFreq+0x29c>
 800656c:	d80d      	bhi.n	800658a <HAL_RCCEx_GetPeriphCLKFreq+0x1a6>
 800656e:	f5b3 3f80 	cmp.w	r3, #65536	@ 0x10000
 8006572:	d016      	beq.n	80065a2 <HAL_RCCEx_GetPeriphCLKFreq+0x1be>
 8006574:	f5b3 3f00 	cmp.w	r3, #131072	@ 0x20000
 8006578:	d01c      	beq.n	80065b4 <HAL_RCCEx_GetPeriphCLKFreq+0x1d0>
 800657a:	2b00      	cmp	r3, #0
 800657c:	f47f af6d 	bne.w	800645a <HAL_RCCEx_GetPeriphCLKFreq+0x76>
 8006580:	b005      	add	sp, #20
 8006582:	f85d eb04 	ldr.w	lr, [sp], #4
 8006586:	f7fe bf21 	b.w	80053cc <HAL_RCC_GetPCLK1Freq>
 800658a:	f5b3 2f80 	cmp.w	r3, #262144	@ 0x40000
 800658e:	d07e      	beq.n	800668e <HAL_RCCEx_GetPeriphCLKFreq+0x2aa>
 8006590:	f5b3 2fa0 	cmp.w	r3, #327680	@ 0x50000
 8006594:	f47f af61 	bne.w	800645a <HAL_RCCEx_GetPeriphCLKFreq+0x76>
 8006598:	6810      	ldr	r0, [r2, #0]
 800659a:	4b35      	ldr	r3, [pc, #212]	@ (8006670 <HAL_RCCEx_GetPeriphCLKFreq+0x28c>)
 800659c:	f410 3000 	ands.w	r0, r0, #131072	@ 0x20000
 80065a0:	e079      	b.n	8006696 <HAL_RCCEx_GetPeriphCLKFreq+0x2b2>
 80065a2:	6810      	ldr	r0, [r2, #0]
 80065a4:	f010 6000 	ands.w	r0, r0, #134217728	@ 0x8000000
 80065a8:	f43f af4e 	beq.w	8006448 <HAL_RCCEx_GetPeriphCLKFreq+0x64>
 80065ac:	a801      	add	r0, sp, #4
 80065ae:	f7ff fd1b 	bl	8005fe8 <HAL_RCCEx_GetPLL2ClockFreq>
 80065b2:	e034      	b.n	800661e <HAL_RCCEx_GetPeriphCLKFreq+0x23a>
 80065b4:	6810      	ldr	r0, [r2, #0]
 80065b6:	f010 5000 	ands.w	r0, r0, #536870912	@ 0x20000000
 80065ba:	f43f af45 	beq.w	8006448 <HAL_RCCEx_GetPeriphCLKFreq+0x64>
 80065be:	a801      	add	r0, sp, #4
 80065c0:	f7ff fdbc 	bl	800613c <HAL_RCCEx_GetPLL3ClockFreq>
 80065c4:	e02b      	b.n	800661e <HAL_RCCEx_GetPeriphCLKFreq+0x23a>
 80065c6:	f5a0 2300 	sub.w	r3, r0, #524288	@ 0x80000
 80065ca:	430b      	orrs	r3, r1
 80065cc:	d117      	bne.n	80065fe <HAL_RCCEx_GetPeriphCLKFreq+0x21a>
 80065ce:	4b26      	ldr	r3, [pc, #152]	@ (8006668 <HAL_RCCEx_GetPeriphCLKFreq+0x284>)
 80065d0:	6d9a      	ldr	r2, [r3, #88]	@ 0x58
 80065d2:	f402 3240 	and.w	r2, r2, #196608	@ 0x30000
 80065d6:	f5b2 3f80 	cmp.w	r2, #65536	@ 0x10000
 80065da:	d006      	beq.n	80065ea <HAL_RCCEx_GetPeriphCLKFreq+0x206>
 80065dc:	f5b2 3f00 	cmp.w	r2, #131072	@ 0x20000
 80065e0:	d08e      	beq.n	8006500 <HAL_RCCEx_GetPeriphCLKFreq+0x11c>
 80065e2:	2a00      	cmp	r2, #0
 80065e4:	f47f af39 	bne.w	800645a <HAL_RCCEx_GetPeriphCLKFreq+0x76>
 80065e8:	e726      	b.n	8006438 <HAL_RCCEx_GetPeriphCLKFreq+0x54>
 80065ea:	6818      	ldr	r0, [r3, #0]
 80065ec:	f010 5000 	ands.w	r0, r0, #536870912	@ 0x20000000
 80065f0:	f43f af2a 	beq.w	8006448 <HAL_RCCEx_GetPeriphCLKFreq+0x64>
 80065f4:	a801      	add	r0, sp, #4
 80065f6:	f7ff fda1 	bl	800613c <HAL_RCCEx_GetPLL3ClockFreq>
 80065fa:	9803      	ldr	r0, [sp, #12]
 80065fc:	e724      	b.n	8006448 <HAL_RCCEx_GetPeriphCLKFreq+0x64>
 80065fe:	f5a0 3380 	sub.w	r3, r0, #65536	@ 0x10000
 8006602:	430b      	orrs	r3, r1
 8006604:	d116      	bne.n	8006634 <HAL_RCCEx_GetPeriphCLKFreq+0x250>
 8006606:	4b18      	ldr	r3, [pc, #96]	@ (8006668 <HAL_RCCEx_GetPeriphCLKFreq+0x284>)
 8006608:	6cda      	ldr	r2, [r3, #76]	@ 0x4c
 800660a:	03d2      	lsls	r2, r2, #15
 800660c:	d409      	bmi.n	8006622 <HAL_RCCEx_GetPeriphCLKFreq+0x23e>
 800660e:	6818      	ldr	r0, [r3, #0]
 8006610:	f010 7000 	ands.w	r0, r0, #33554432	@ 0x2000000
 8006614:	f43f af18 	beq.w	8006448 <HAL_RCCEx_GetPeriphCLKFreq+0x64>
 8006618:	a801      	add	r0, sp, #4
 800661a:	f7ff fe39 	bl	8006290 <HAL_RCCEx_GetPLL1ClockFreq>
 800661e:	9802      	ldr	r0, [sp, #8]
 8006620:	e712      	b.n	8006448 <HAL_RCCEx_GetPeriphCLKFreq+0x64>
 8006622:	6818      	ldr	r0, [r3, #0]
 8006624:	f010 6000 	ands.w	r0, r0, #134217728	@ 0x8000000
 8006628:	f43f af0e 	beq.w	8006448 <HAL_RCCEx_GetPeriphCLKFreq+0x64>
 800662c:	a801      	add	r0, sp, #4
 800662e:	f7ff fcdb 	bl	8005fe8 <HAL_RCCEx_GetPLL2ClockFreq>
 8006632:	e7e2      	b.n	80065fa <HAL_RCCEx_GetPeriphCLKFreq+0x216>
 8006634:	f5a0 4380 	sub.w	r3, r0, #16384	@ 0x4000
 8006638:	430b      	orrs	r3, r1
 800663a:	d12f      	bne.n	800669c <HAL_RCCEx_GetPeriphCLKFreq+0x2b8>
 800663c:	4a0a      	ldr	r2, [pc, #40]	@ (8006668 <HAL_RCCEx_GetPeriphCLKFreq+0x284>)
 800663e:	6d93      	ldr	r3, [r2, #88]	@ 0x58
 8006640:	f003 43e0 	and.w	r3, r3, #1879048192	@ 0x70000000
 8006644:	f1b3 5f40 	cmp.w	r3, #805306368	@ 0x30000000
 8006648:	d01a      	beq.n	8006680 <HAL_RCCEx_GetPeriphCLKFreq+0x29c>
 800664a:	d813      	bhi.n	8006674 <HAL_RCCEx_GetPeriphCLKFreq+0x290>
 800664c:	f1b3 5f80 	cmp.w	r3, #268435456	@ 0x10000000
 8006650:	d0a7      	beq.n	80065a2 <HAL_RCCEx_GetPeriphCLKFreq+0x1be>
 8006652:	f1b3 5f00 	cmp.w	r3, #536870912	@ 0x20000000
 8006656:	d0ad      	beq.n	80065b4 <HAL_RCCEx_GetPeriphCLKFreq+0x1d0>
 8006658:	2b00      	cmp	r3, #0
 800665a:	f47f aefe 	bne.w	800645a <HAL_RCCEx_GetPeriphCLKFreq+0x76>
 800665e:	b005      	add	sp, #20
 8006660:	f85d eb04 	ldr.w	lr, [sp], #4
 8006664:	f7ff bcae 	b.w	8005fc4 <HAL_RCCEx_GetD3PCLK1Freq>
 8006668:	58024400 	.word	0x58024400
 800666c:	03d09000 	.word	0x03d09000
 8006670:	007a1200 	.word	0x007a1200
 8006674:	f1b3 4f80 	cmp.w	r3, #1073741824	@ 0x40000000
 8006678:	d009      	beq.n	800668e <HAL_RCCEx_GetPeriphCLKFreq+0x2aa>
 800667a:	f1b3 4fa0 	cmp.w	r3, #1342177280	@ 0x50000000
 800667e:	e789      	b.n	8006594 <HAL_RCCEx_GetPeriphCLKFreq+0x1b0>
 8006680:	6810      	ldr	r0, [r2, #0]
 8006682:	f010 0004 	ands.w	r0, r0, #4
 8006686:	f43f aedf 	beq.w	8006448 <HAL_RCCEx_GetPeriphCLKFreq+0x64>
 800668a:	6813      	ldr	r3, [r2, #0]
 800668c:	e708      	b.n	80064a0 <HAL_RCCEx_GetPeriphCLKFreq+0xbc>
 800668e:	6810      	ldr	r0, [r2, #0]
 8006690:	4b0f      	ldr	r3, [pc, #60]	@ (80066d0 <HAL_RCCEx_GetPeriphCLKFreq+0x2ec>)
 8006692:	f410 7080 	ands.w	r0, r0, #256	@ 0x100
 8006696:	bf18      	it	ne
 8006698:	4618      	movne	r0, r3
 800669a:	e6d5      	b.n	8006448 <HAL_RCCEx_GetPeriphCLKFreq+0x64>
 800669c:	f5a0 4000 	sub.w	r0, r0, #32768	@ 0x8000
 80066a0:	4308      	orrs	r0, r1
 80066a2:	f47f aeda 	bne.w	800645a <HAL_RCCEx_GetPeriphCLKFreq+0x76>
 80066a6:	4a0b      	ldr	r2, [pc, #44]	@ (80066d4 <HAL_RCCEx_GetPeriphCLKFreq+0x2f0>)
 80066a8:	6d13      	ldr	r3, [r2, #80]	@ 0x50
 80066aa:	f003 5340 	and.w	r3, r3, #805306368	@ 0x30000000
 80066ae:	f1b3 5f80 	cmp.w	r3, #268435456	@ 0x10000000
 80066b2:	d007      	beq.n	80066c4 <HAL_RCCEx_GetPeriphCLKFreq+0x2e0>
 80066b4:	f1b3 5f00 	cmp.w	r3, #536870912	@ 0x20000000
 80066b8:	f43f af73 	beq.w	80065a2 <HAL_RCCEx_GetPeriphCLKFreq+0x1be>
 80066bc:	2b00      	cmp	r3, #0
 80066be:	f47f aecc 	bne.w	800645a <HAL_RCCEx_GetPeriphCLKFreq+0x76>
 80066c2:	e769      	b.n	8006598 <HAL_RCCEx_GetPeriphCLKFreq+0x1b4>
 80066c4:	6810      	ldr	r0, [r2, #0]
 80066c6:	e7a3      	b.n	8006610 <HAL_RCCEx_GetPeriphCLKFreq+0x22c>
 80066c8:	4803      	ldr	r0, [pc, #12]	@ (80066d8 <HAL_RCCEx_GetPeriphCLKFreq+0x2f4>)
 80066ca:	e6bd      	b.n	8006448 <HAL_RCCEx_GetPeriphCLKFreq+0x64>
 80066cc:	4800      	ldr	r0, [pc, #0]	@ (80066d0 <HAL_RCCEx_GetPeriphCLKFreq+0x2ec>)
 80066ce:	e6bb      	b.n	8006448 <HAL_RCCEx_GetPeriphCLKFreq+0x64>
 80066d0:	003d0900 	.word	0x003d0900
 80066d4:	58024400 	.word	0x58024400
 80066d8:	00bb8000 	.word	0x00bb8000

080066dc <SPI_CloseTransfer>:
 80066dc:	6803      	ldr	r3, [r0, #0]
 80066de:	6959      	ldr	r1, [r3, #20]
 80066e0:	699a      	ldr	r2, [r3, #24]
 80066e2:	f042 0208 	orr.w	r2, r2, #8
 80066e6:	619a      	str	r2, [r3, #24]
 80066e8:	699a      	ldr	r2, [r3, #24]
 80066ea:	f042 0210 	orr.w	r2, r2, #16
 80066ee:	619a      	str	r2, [r3, #24]
 80066f0:	681a      	ldr	r2, [r3, #0]
 80066f2:	f022 0201 	bic.w	r2, r2, #1
 80066f6:	601a      	str	r2, [r3, #0]
 80066f8:	691a      	ldr	r2, [r3, #16]
 80066fa:	f422 725b 	bic.w	r2, r2, #876	@ 0x36c
 80066fe:	f022 0203 	bic.w	r2, r2, #3
 8006702:	611a      	str	r2, [r3, #16]
 8006704:	689a      	ldr	r2, [r3, #8]
 8006706:	f422 4240 	bic.w	r2, r2, #49152	@ 0xc000
 800670a:	609a      	str	r2, [r3, #8]
 800670c:	f890 2081 	ldrb.w	r2, [r0, #129]	@ 0x81
 8006710:	2a04      	cmp	r2, #4
 8006712:	d00b      	beq.n	800672c <SPI_CloseTransfer+0x50>
 8006714:	068a      	lsls	r2, r1, #26
 8006716:	d509      	bpl.n	800672c <SPI_CloseTransfer+0x50>
 8006718:	f8d0 2084 	ldr.w	r2, [r0, #132]	@ 0x84
 800671c:	f042 0280 	orr.w	r2, r2, #128	@ 0x80
 8006720:	f8c0 2084 	str.w	r2, [r0, #132]	@ 0x84
 8006724:	699a      	ldr	r2, [r3, #24]
 8006726:	f042 0220 	orr.w	r2, r2, #32
 800672a:	619a      	str	r2, [r3, #24]
 800672c:	f890 2081 	ldrb.w	r2, [r0, #129]	@ 0x81
 8006730:	2a03      	cmp	r2, #3
 8006732:	d00b      	beq.n	800674c <SPI_CloseTransfer+0x70>
 8006734:	064a      	lsls	r2, r1, #25
 8006736:	d509      	bpl.n	800674c <SPI_CloseTransfer+0x70>
 8006738:	f8d0 2084 	ldr.w	r2, [r0, #132]	@ 0x84
 800673c:	f042 0204 	orr.w	r2, r2, #4
 8006740:	f8c0 2084 	str.w	r2, [r0, #132]	@ 0x84
 8006744:	699a      	ldr	r2, [r3, #24]
 8006746:	f042 0240 	orr.w	r2, r2, #64	@ 0x40
 800674a:	619a      	str	r2, [r3, #24]
 800674c:	058a      	lsls	r2, r1, #22
 800674e:	d509      	bpl.n	8006764 <SPI_CloseTransfer+0x88>
 8006750:	f8d0 2084 	ldr.w	r2, [r0, #132]	@ 0x84
 8006754:	f042 0201 	orr.w	r2, r2, #1
 8006758:	f8c0 2084 	str.w	r2, [r0, #132]	@ 0x84
 800675c:	699a      	ldr	r2, [r3, #24]
 800675e:	f442 7200 	orr.w	r2, r2, #512	@ 0x200
 8006762:	619a      	str	r2, [r3, #24]
 8006764:	05ca      	lsls	r2, r1, #23
 8006766:	d509      	bpl.n	800677c <SPI_CloseTransfer+0xa0>
 8006768:	f8d0 2084 	ldr.w	r2, [r0, #132]	@ 0x84
 800676c:	f042 0208 	orr.w	r2, r2, #8
 8006770:	f8c0 2084 	str.w	r2, [r0, #132]	@ 0x84
 8006774:	699a      	ldr	r2, [r3, #24]
 8006776:	f442 7280 	orr.w	r2, r2, #256	@ 0x100
 800677a:	619a      	str	r2, [r3, #24]
 800677c:	2300      	movs	r3, #0
 800677e:	f8a0 3062 	strh.w	r3, [r0, #98]	@ 0x62
 8006782:	f8a0 306a 	strh.w	r3, [r0, #106]	@ 0x6a
 8006786:	4770      	bx	lr

08006788 <HAL_SPI_Init>:
 8006788:	b5f8      	push	{r3, r4, r5, r6, r7, lr}
 800678a:	4604      	mov	r4, r0
 800678c:	b908      	cbnz	r0, 8006792 <HAL_SPI_Init+0xa>
 800678e:	2001      	movs	r0, #1
 8006790:	bdf8      	pop	{r3, r4, r5, r6, r7, pc}
 8006792:	6802      	ldr	r2, [r0, #0]
 8006794:	2300      	movs	r3, #0
 8006796:	494d      	ldr	r1, [pc, #308]	@ (80068cc <HAL_SPI_Init+0x144>)
 8006798:	6283      	str	r3, [r0, #40]	@ 0x28
 800679a:	428a      	cmp	r2, r1
 800679c:	68c3      	ldr	r3, [r0, #12]
 800679e:	d009      	beq.n	80067b4 <HAL_SPI_Init+0x2c>
 80067a0:	f5a1 4178 	sub.w	r1, r1, #63488	@ 0xf800
 80067a4:	428a      	cmp	r2, r1
 80067a6:	d005      	beq.n	80067b4 <HAL_SPI_Init+0x2c>
 80067a8:	f501 6180 	add.w	r1, r1, #1024	@ 0x400
 80067ac:	428a      	cmp	r2, r1
 80067ae:	d001      	beq.n	80067b4 <HAL_SPI_Init+0x2c>
 80067b0:	2b0f      	cmp	r3, #15
 80067b2:	d8ec      	bhi.n	800678e <HAL_SPI_Init+0x6>
 80067b4:	6be1      	ldr	r1, [r4, #60]	@ 0x3c
 80067b6:	3308      	adds	r3, #8
 80067b8:	0949      	lsrs	r1, r1, #5
 80067ba:	08db      	lsrs	r3, r3, #3
 80067bc:	fb01 3303 	mla	r3, r1, r3, r3
 80067c0:	4942      	ldr	r1, [pc, #264]	@ (80068cc <HAL_SPI_Init+0x144>)
 80067c2:	428a      	cmp	r2, r1
 80067c4:	d073      	beq.n	80068ae <HAL_SPI_Init+0x126>
 80067c6:	f5a1 4178 	sub.w	r1, r1, #63488	@ 0xf800
 80067ca:	428a      	cmp	r2, r1
 80067cc:	d06f      	beq.n	80068ae <HAL_SPI_Init+0x126>
 80067ce:	f501 6180 	add.w	r1, r1, #1024	@ 0x400
 80067d2:	428a      	cmp	r2, r1
 80067d4:	d06b      	beq.n	80068ae <HAL_SPI_Init+0x126>
 80067d6:	2b08      	cmp	r3, #8
 80067d8:	d8d9      	bhi.n	800678e <HAL_SPI_Init+0x6>
 80067da:	f894 3081 	ldrb.w	r3, [r4, #129]	@ 0x81
 80067de:	f003 02ff 	and.w	r2, r3, #255	@ 0xff
 80067e2:	b923      	cbnz	r3, 80067ee <HAL_SPI_Init+0x66>
 80067e4:	4620      	mov	r0, r4
 80067e6:	f884 2080 	strb.w	r2, [r4, #128]	@ 0x80
 80067ea:	f7fa fe13 	bl	8001414 <HAL_SPI_MspInit>
 80067ee:	6822      	ldr	r2, [r4, #0]
 80067f0:	2302      	movs	r3, #2
 80067f2:	6861      	ldr	r1, [r4, #4]
 80067f4:	f884 3081 	strb.w	r3, [r4, #129]	@ 0x81
 80067f8:	6813      	ldr	r3, [r2, #0]
 80067fa:	6ba6      	ldr	r6, [r4, #56]	@ 0x38
 80067fc:	f023 0301 	bic.w	r3, r3, #1
 8006800:	6013      	str	r3, [r2, #0]
 8006802:	6893      	ldr	r3, [r2, #8]
 8006804:	f403 1cf8 	and.w	ip, r3, #2031616	@ 0x1f0000
 8006808:	69a3      	ldr	r3, [r4, #24]
 800680a:	f1b3 6f80 	cmp.w	r3, #67108864	@ 0x4000000
 800680e:	d104      	bne.n	800681a <HAL_SPI_Init+0x92>
 8006810:	f5b1 0f80 	cmp.w	r1, #4194304	@ 0x400000
 8006814:	d14d      	bne.n	80068b2 <HAL_SPI_Init+0x12a>
 8006816:	2e00      	cmp	r6, #0
 8006818:	d050      	beq.n	80068bc <HAL_SPI_Init+0x134>
 800681a:	f411 0080 	ands.w	r0, r1, #4194304	@ 0x400000
 800681e:	68e5      	ldr	r5, [r4, #12]
 8006820:	6817      	ldr	r7, [r2, #0]
 8006822:	d050      	beq.n	80068c6 <HAL_SPI_Init+0x13e>
 8006824:	2d06      	cmp	r5, #6
 8006826:	d94e      	bls.n	80068c6 <HAL_SPI_Init+0x13e>
 8006828:	f427 7e80 	bic.w	lr, r7, #256	@ 0x100
 800682c:	6d27      	ldr	r7, [r4, #80]	@ 0x50
 800682e:	ea4e 0707 	orr.w	r7, lr, r7
 8006832:	6017      	str	r7, [r2, #0]
 8006834:	430b      	orrs	r3, r1
 8006836:	69e7      	ldr	r7, [r4, #28]
 8006838:	4333      	orrs	r3, r6
 800683a:	433d      	orrs	r5, r7
 800683c:	6aa7      	ldr	r7, [r4, #40]	@ 0x28
 800683e:	433d      	orrs	r5, r7
 8006840:	6be7      	ldr	r7, [r4, #60]	@ 0x3c
 8006842:	433d      	orrs	r5, r7
 8006844:	ea45 050c 	orr.w	r5, r5, ip
 8006848:	6095      	str	r5, [r2, #8]
 800684a:	6b65      	ldr	r5, [r4, #52]	@ 0x34
 800684c:	432b      	orrs	r3, r5
 800684e:	6a65      	ldr	r5, [r4, #36]	@ 0x24
 8006850:	432b      	orrs	r3, r5
 8006852:	6925      	ldr	r5, [r4, #16]
 8006854:	432b      	orrs	r3, r5
 8006856:	6965      	ldr	r5, [r4, #20]
 8006858:	432b      	orrs	r3, r5
 800685a:	6a25      	ldr	r5, [r4, #32]
 800685c:	432b      	orrs	r3, r5
 800685e:	6ce5      	ldr	r5, [r4, #76]	@ 0x4c
 8006860:	432b      	orrs	r3, r5
 8006862:	68a5      	ldr	r5, [r4, #8]
 8006864:	432b      	orrs	r3, r5
 8006866:	6ca5      	ldr	r5, [r4, #72]	@ 0x48
 8006868:	432b      	orrs	r3, r5
 800686a:	6da5      	ldr	r5, [r4, #88]	@ 0x58
 800686c:	432b      	orrs	r3, r5
 800686e:	60d3      	str	r3, [r2, #12]
 8006870:	b959      	cbnz	r1, 800688a <HAL_SPI_Init+0x102>
 8006872:	6893      	ldr	r3, [r2, #8]
 8006874:	f423 53c0 	bic.w	r3, r3, #6144	@ 0x1800
 8006878:	f443 6300 	orr.w	r3, r3, #2048	@ 0x800
 800687c:	6093      	str	r3, [r2, #8]
 800687e:	6893      	ldr	r3, [r2, #8]
 8006880:	f423 63c0 	bic.w	r3, r3, #1536	@ 0x600
 8006884:	f443 6380 	orr.w	r3, r3, #1024	@ 0x400
 8006888:	6093      	str	r3, [r2, #8]
 800688a:	6d13      	ldr	r3, [r2, #80]	@ 0x50
 800688c:	f023 0301 	bic.w	r3, r3, #1
 8006890:	6513      	str	r3, [r2, #80]	@ 0x50
 8006892:	b128      	cbz	r0, 80068a0 <HAL_SPI_Init+0x118>
 8006894:	68d3      	ldr	r3, [r2, #12]
 8006896:	6d61      	ldr	r1, [r4, #84]	@ 0x54
 8006898:	f023 4300 	bic.w	r3, r3, #2147483648	@ 0x80000000
 800689c:	430b      	orrs	r3, r1
 800689e:	60d3      	str	r3, [r2, #12]
 80068a0:	2000      	movs	r0, #0
 80068a2:	2301      	movs	r3, #1
 80068a4:	f8c4 0084 	str.w	r0, [r4, #132]	@ 0x84
 80068a8:	f884 3081 	strb.w	r3, [r4, #129]	@ 0x81
 80068ac:	e770      	b.n	8006790 <HAL_SPI_Init+0x8>
 80068ae:	2b10      	cmp	r3, #16
 80068b0:	e792      	b.n	80067d8 <HAL_SPI_Init+0x50>
 80068b2:	2900      	cmp	r1, #0
 80068b4:	d1b1      	bne.n	800681a <HAL_SPI_Init+0x92>
 80068b6:	f1b6 5f80 	cmp.w	r6, #268435456	@ 0x10000000
 80068ba:	d1ae      	bne.n	800681a <HAL_SPI_Init+0x92>
 80068bc:	6810      	ldr	r0, [r2, #0]
 80068be:	f440 5080 	orr.w	r0, r0, #4096	@ 0x1000
 80068c2:	6010      	str	r0, [r2, #0]
 80068c4:	e7a9      	b.n	800681a <HAL_SPI_Init+0x92>
 80068c6:	f427 7780 	bic.w	r7, r7, #256	@ 0x100
 80068ca:	e7b2      	b.n	8006832 <HAL_SPI_Init+0xaa>
 80068cc:	40013000 	.word	0x40013000

080068d0 <HAL_SPI_TxCpltCallback>:
 80068d0:	4770      	bx	lr

080068d2 <HAL_SPI_RxCpltCallback>:
 80068d2:	4770      	bx	lr

080068d4 <HAL_SPI_TxRxCpltCallback>:
 80068d4:	4770      	bx	lr

080068d6 <HAL_SPI_ErrorCallback>:
 80068d6:	4770      	bx	lr

080068d8 <SPI_DMAAbortOnError>:
 80068d8:	b508      	push	{r3, lr}
 80068da:	6b80      	ldr	r0, [r0, #56]	@ 0x38
 80068dc:	2300      	movs	r3, #0
 80068de:	f8a0 306a 	strh.w	r3, [r0, #106]	@ 0x6a
 80068e2:	f8a0 3062 	strh.w	r3, [r0, #98]	@ 0x62
 80068e6:	2301      	movs	r3, #1
 80068e8:	f880 3081 	strb.w	r3, [r0, #129]	@ 0x81
 80068ec:	f7ff fff3 	bl	80068d6 <HAL_SPI_ErrorCallback>
 80068f0:	bd08      	pop	{r3, pc}

080068f2 <HAL_SPI_SuspendCallback>:
 80068f2:	4770      	bx	lr

080068f4 <HAL_SPI_IRQHandler>:
 80068f4:	e92d 47f0 	stmdb	sp!, {r4, r5, r6, r7, r8, r9, sl, lr}
 80068f8:	6806      	ldr	r6, [r0, #0]
 80068fa:	4604      	mov	r4, r0
 80068fc:	6933      	ldr	r3, [r6, #16]
 80068fe:	6972      	ldr	r2, [r6, #20]
 8006900:	f8d6 8008 	ldr.w	r8, [r6, #8]
 8006904:	0511      	lsls	r1, r2, #20
 8006906:	f890 7081 	ldrb.w	r7, [r0, #129]	@ 0x81
 800690a:	ea03 0502 	and.w	r5, r3, r2
 800690e:	b2ff      	uxtb	r7, r7
 8006910:	d509      	bpl.n	8006926 <HAL_SPI_IRQHandler+0x32>
 8006912:	071a      	lsls	r2, r3, #28
 8006914:	d507      	bpl.n	8006926 <HAL_SPI_IRQHandler+0x32>
 8006916:	69b3      	ldr	r3, [r6, #24]
 8006918:	f443 6300 	orr.w	r3, r3, #2048	@ 0x800
 800691c:	61b3      	str	r3, [r6, #24]
 800691e:	f7ff ffe8 	bl	80068f2 <HAL_SPI_SuspendCallback>
 8006922:	e8bd 87f0 	ldmia.w	sp!, {r4, r5, r6, r7, r8, r9, sl, pc}
 8006926:	f005 0364 	and.w	r3, r5, #100	@ 0x64
 800692a:	2b04      	cmp	r3, #4
 800692c:	d118      	bne.n	8006960 <HAL_SPI_IRQHandler+0x6c>
 800692e:	6f63      	ldr	r3, [r4, #116]	@ 0x74
 8006930:	4620      	mov	r0, r4
 8006932:	4798      	blx	r3
 8006934:	6f23      	ldr	r3, [r4, #112]	@ 0x70
 8006936:	4620      	mov	r0, r4
 8006938:	4798      	blx	r3
 800693a:	2301      	movs	r3, #1
 800693c:	f005 0945 	and.w	r9, r5, #69	@ 0x45
 8006940:	f1b9 0f01 	cmp.w	r9, #1
 8006944:	d103      	bne.n	800694e <HAL_SPI_IRQHandler+0x5a>
 8006946:	6f23      	ldr	r3, [r4, #112]	@ 0x70
 8006948:	4620      	mov	r0, r4
 800694a:	4798      	blx	r3
 800694c:	464b      	mov	r3, r9
 800694e:	f005 0226 	and.w	r2, r5, #38	@ 0x26
 8006952:	2a02      	cmp	r2, #2
 8006954:	d106      	bne.n	8006964 <HAL_SPI_IRQHandler+0x70>
 8006956:	6f63      	ldr	r3, [r4, #116]	@ 0x74
 8006958:	4620      	mov	r0, r4
 800695a:	e8bd 47f0 	ldmia.w	sp!, {r4, r5, r6, r7, r8, r9, sl, lr}
 800695e:	4718      	bx	r3
 8006960:	2300      	movs	r3, #0
 8006962:	e7eb      	b.n	800693c <HAL_SPI_IRQHandler+0x48>
 8006964:	2b00      	cmp	r3, #0
 8006966:	d1dc      	bne.n	8006922 <HAL_SPI_IRQHandler+0x2e>
 8006968:	072b      	lsls	r3, r5, #28
 800696a:	d551      	bpl.n	8006a10 <HAL_SPI_IRQHandler+0x11c>
 800696c:	6823      	ldr	r3, [r4, #0]
 800696e:	699a      	ldr	r2, [r3, #24]
 8006970:	f042 0208 	orr.w	r2, r2, #8
 8006974:	619a      	str	r2, [r3, #24]
 8006976:	699a      	ldr	r2, [r3, #24]
 8006978:	f042 0210 	orr.w	r2, r2, #16
 800697c:	619a      	str	r2, [r3, #24]
 800697e:	699a      	ldr	r2, [r3, #24]
 8006980:	f442 6200 	orr.w	r2, r2, #2048	@ 0x800
 8006984:	619a      	str	r2, [r3, #24]
 8006986:	691a      	ldr	r2, [r3, #16]
 8006988:	f022 0208 	bic.w	r2, r2, #8
 800698c:	611a      	str	r2, [r3, #16]
 800698e:	689b      	ldr	r3, [r3, #8]
 8006990:	f413 4f40 	tst.w	r3, #49152	@ 0xc000
 8006994:	d01a      	beq.n	80069cc <HAL_SPI_IRQHandler+0xd8>
 8006996:	4620      	mov	r0, r4
 8006998:	f7ff fea0 	bl	80066dc <SPI_CloseTransfer>
 800699c:	2301      	movs	r3, #1
 800699e:	f884 3081 	strb.w	r3, [r4, #129]	@ 0x81
 80069a2:	f8d4 3084 	ldr.w	r3, [r4, #132]	@ 0x84
 80069a6:	b323      	cbz	r3, 80069f2 <HAL_SPI_IRQHandler+0xfe>
 80069a8:	f7ff ff95 	bl	80068d6 <HAL_SPI_ErrorCallback>
 80069ac:	e7b9      	b.n	8006922 <HAL_SPI_IRQHandler+0x2e>
 80069ae:	68e2      	ldr	r2, [r4, #12]
 80069b0:	6e63      	ldr	r3, [r4, #100]	@ 0x64
 80069b2:	2a0f      	cmp	r2, #15
 80069b4:	d910      	bls.n	80069d8 <HAL_SPI_IRQHandler+0xe4>
 80069b6:	6822      	ldr	r2, [r4, #0]
 80069b8:	6b12      	ldr	r2, [r2, #48]	@ 0x30
 80069ba:	f843 2b04 	str.w	r2, [r3], #4
 80069be:	6663      	str	r3, [r4, #100]	@ 0x64
 80069c0:	f8b4 306a 	ldrh.w	r3, [r4, #106]	@ 0x6a
 80069c4:	3b01      	subs	r3, #1
 80069c6:	b29b      	uxth	r3, r3
 80069c8:	f8a4 306a 	strh.w	r3, [r4, #106]	@ 0x6a
 80069cc:	f8b4 306a 	ldrh.w	r3, [r4, #106]	@ 0x6a
 80069d0:	b29b      	uxth	r3, r3
 80069d2:	2b00      	cmp	r3, #0
 80069d4:	d1eb      	bne.n	80069ae <HAL_SPI_IRQHandler+0xba>
 80069d6:	e7de      	b.n	8006996 <HAL_SPI_IRQHandler+0xa2>
 80069d8:	2a07      	cmp	r2, #7
 80069da:	d903      	bls.n	80069e4 <HAL_SPI_IRQHandler+0xf0>
 80069dc:	8e32      	ldrh	r2, [r6, #48]	@ 0x30
 80069de:	f823 2b02 	strh.w	r2, [r3], #2
 80069e2:	e7ec      	b.n	80069be <HAL_SPI_IRQHandler+0xca>
 80069e4:	6822      	ldr	r2, [r4, #0]
 80069e6:	f892 2030 	ldrb.w	r2, [r2, #48]	@ 0x30
 80069ea:	701a      	strb	r2, [r3, #0]
 80069ec:	6e63      	ldr	r3, [r4, #100]	@ 0x64
 80069ee:	3301      	adds	r3, #1
 80069f0:	e7e5      	b.n	80069be <HAL_SPI_IRQHandler+0xca>
 80069f2:	2f05      	cmp	r7, #5
 80069f4:	d102      	bne.n	80069fc <HAL_SPI_IRQHandler+0x108>
 80069f6:	f7ff ff6d 	bl	80068d4 <HAL_SPI_TxRxCpltCallback>
 80069fa:	e792      	b.n	8006922 <HAL_SPI_IRQHandler+0x2e>
 80069fc:	2f04      	cmp	r7, #4
 80069fe:	d102      	bne.n	8006a06 <HAL_SPI_IRQHandler+0x112>
 8006a00:	f7ff ff67 	bl	80068d2 <HAL_SPI_RxCpltCallback>
 8006a04:	e78d      	b.n	8006922 <HAL_SPI_IRQHandler+0x2e>
 8006a06:	2f03      	cmp	r7, #3
 8006a08:	d18b      	bne.n	8006922 <HAL_SPI_IRQHandler+0x2e>
 8006a0a:	f7ff ff61 	bl	80068d0 <HAL_SPI_TxCpltCallback>
 8006a0e:	e788      	b.n	8006922 <HAL_SPI_IRQHandler+0x2e>
 8006a10:	f415 7f58 	tst.w	r5, #864	@ 0x360
 8006a14:	d085      	beq.n	8006922 <HAL_SPI_IRQHandler+0x2e>
 8006a16:	0668      	lsls	r0, r5, #25
 8006a18:	d50a      	bpl.n	8006a30 <HAL_SPI_IRQHandler+0x13c>
 8006a1a:	f8d4 3084 	ldr.w	r3, [r4, #132]	@ 0x84
 8006a1e:	6822      	ldr	r2, [r4, #0]
 8006a20:	f043 0304 	orr.w	r3, r3, #4
 8006a24:	f8c4 3084 	str.w	r3, [r4, #132]	@ 0x84
 8006a28:	6993      	ldr	r3, [r2, #24]
 8006a2a:	f043 0340 	orr.w	r3, r3, #64	@ 0x40
 8006a2e:	6193      	str	r3, [r2, #24]
 8006a30:	05a9      	lsls	r1, r5, #22
 8006a32:	d50a      	bpl.n	8006a4a <HAL_SPI_IRQHandler+0x156>
 8006a34:	f8d4 3084 	ldr.w	r3, [r4, #132]	@ 0x84
 8006a38:	6822      	ldr	r2, [r4, #0]
 8006a3a:	f043 0301 	orr.w	r3, r3, #1
 8006a3e:	f8c4 3084 	str.w	r3, [r4, #132]	@ 0x84
 8006a42:	6993      	ldr	r3, [r2, #24]
 8006a44:	f443 7300 	orr.w	r3, r3, #512	@ 0x200
 8006a48:	6193      	str	r3, [r2, #24]
 8006a4a:	05ea      	lsls	r2, r5, #23
 8006a4c:	d50a      	bpl.n	8006a64 <HAL_SPI_IRQHandler+0x170>
 8006a4e:	f8d4 3084 	ldr.w	r3, [r4, #132]	@ 0x84
 8006a52:	6822      	ldr	r2, [r4, #0]
 8006a54:	f043 0308 	orr.w	r3, r3, #8
 8006a58:	f8c4 3084 	str.w	r3, [r4, #132]	@ 0x84
 8006a5c:	6993      	ldr	r3, [r2, #24]
 8006a5e:	f443 7380 	orr.w	r3, r3, #256	@ 0x100
 8006a62:	6193      	str	r3, [r2, #24]
 8006a64:	06ab      	lsls	r3, r5, #26
 8006a66:	d50a      	bpl.n	8006a7e <HAL_SPI_IRQHandler+0x18a>
 8006a68:	f8d4 3084 	ldr.w	r3, [r4, #132]	@ 0x84
 8006a6c:	6822      	ldr	r2, [r4, #0]
 8006a6e:	f043 0380 	orr.w	r3, r3, #128	@ 0x80
 8006a72:	f8c4 3084 	str.w	r3, [r4, #132]	@ 0x84
 8006a76:	6993      	ldr	r3, [r2, #24]
 8006a78:	f043 0320 	orr.w	r3, r3, #32
 8006a7c:	6193      	str	r3, [r2, #24]
 8006a7e:	f8d4 3084 	ldr.w	r3, [r4, #132]	@ 0x84
 8006a82:	2b00      	cmp	r3, #0
 8006a84:	f43f af4d 	beq.w	8006922 <HAL_SPI_IRQHandler+0x2e>
 8006a88:	6823      	ldr	r3, [r4, #0]
 8006a8a:	f408 4840 	and.w	r8, r8, #49152	@ 0xc000
 8006a8e:	681a      	ldr	r2, [r3, #0]
 8006a90:	f5b8 4f40 	cmp.w	r8, #49152	@ 0xc000
 8006a94:	f022 0201 	bic.w	r2, r2, #1
 8006a98:	601a      	str	r2, [r3, #0]
 8006a9a:	691a      	ldr	r2, [r3, #16]
 8006a9c:	f422 725a 	bic.w	r2, r2, #872	@ 0x368
 8006aa0:	f022 0203 	bic.w	r2, r2, #3
 8006aa4:	611a      	str	r2, [r3, #16]
 8006aa6:	d122      	bne.n	8006aee <HAL_SPI_IRQHandler+0x1fa>
 8006aa8:	689a      	ldr	r2, [r3, #8]
 8006aaa:	6fe0      	ldr	r0, [r4, #124]	@ 0x7c
 8006aac:	f422 4240 	bic.w	r2, r2, #49152	@ 0xc000
 8006ab0:	609a      	str	r2, [r3, #8]
 8006ab2:	b150      	cbz	r0, 8006aca <HAL_SPI_IRQHandler+0x1d6>
 8006ab4:	4b10      	ldr	r3, [pc, #64]	@ (8006af8 <HAL_SPI_IRQHandler+0x204>)
 8006ab6:	6503      	str	r3, [r0, #80]	@ 0x50
 8006ab8:	f7fc fbb2 	bl	8003220 <HAL_DMA_Abort_IT>
 8006abc:	b128      	cbz	r0, 8006aca <HAL_SPI_IRQHandler+0x1d6>
 8006abe:	f8d4 3084 	ldr.w	r3, [r4, #132]	@ 0x84
 8006ac2:	f043 0340 	orr.w	r3, r3, #64	@ 0x40
 8006ac6:	f8c4 3084 	str.w	r3, [r4, #132]	@ 0x84
 8006aca:	6fa0      	ldr	r0, [r4, #120]	@ 0x78
 8006acc:	2800      	cmp	r0, #0
 8006ace:	f43f af28 	beq.w	8006922 <HAL_SPI_IRQHandler+0x2e>
 8006ad2:	4b09      	ldr	r3, [pc, #36]	@ (8006af8 <HAL_SPI_IRQHandler+0x204>)
 8006ad4:	6503      	str	r3, [r0, #80]	@ 0x50
 8006ad6:	f7fc fba3 	bl	8003220 <HAL_DMA_Abort_IT>
 8006ada:	2800      	cmp	r0, #0
 8006adc:	f43f af21 	beq.w	8006922 <HAL_SPI_IRQHandler+0x2e>
 8006ae0:	f8d4 3084 	ldr.w	r3, [r4, #132]	@ 0x84
 8006ae4:	f043 0340 	orr.w	r3, r3, #64	@ 0x40
 8006ae8:	f8c4 3084 	str.w	r3, [r4, #132]	@ 0x84
 8006aec:	e719      	b.n	8006922 <HAL_SPI_IRQHandler+0x2e>
 8006aee:	2301      	movs	r3, #1
 8006af0:	4620      	mov	r0, r4
 8006af2:	f884 3081 	strb.w	r3, [r4, #129]	@ 0x81
 8006af6:	e757      	b.n	80069a8 <HAL_SPI_IRQHandler+0xb4>
 8006af8:	080068d9 	.word	0x080068d9

08006afc <HAL_TIM_Base_Start>:
 8006afc:	f890 303d 	ldrb.w	r3, [r0, #61]	@ 0x3d
 8006b00:	2b01      	cmp	r3, #1
 8006b02:	d12f      	bne.n	8006b64 <HAL_TIM_Base_Start+0x68>
 8006b04:	2302      	movs	r3, #2
 8006b06:	4a18      	ldr	r2, [pc, #96]	@ (8006b68 <HAL_TIM_Base_Start+0x6c>)
 8006b08:	f880 303d 	strb.w	r3, [r0, #61]	@ 0x3d
 8006b0c:	6803      	ldr	r3, [r0, #0]
 8006b0e:	4293      	cmp	r3, r2
 8006b10:	d01a      	beq.n	8006b48 <HAL_TIM_Base_Start+0x4c>
 8006b12:	f1b3 4f80 	cmp.w	r3, #1073741824	@ 0x40000000
 8006b16:	d017      	beq.n	8006b48 <HAL_TIM_Base_Start+0x4c>
 8006b18:	f5a2 427c 	sub.w	r2, r2, #64512	@ 0xfc00
 8006b1c:	4293      	cmp	r3, r2
 8006b1e:	d013      	beq.n	8006b48 <HAL_TIM_Base_Start+0x4c>
 8006b20:	f502 6280 	add.w	r2, r2, #1024	@ 0x400
 8006b24:	4293      	cmp	r3, r2
 8006b26:	d00f      	beq.n	8006b48 <HAL_TIM_Base_Start+0x4c>
 8006b28:	f502 6280 	add.w	r2, r2, #1024	@ 0x400
 8006b2c:	4293      	cmp	r3, r2
 8006b2e:	d00b      	beq.n	8006b48 <HAL_TIM_Base_Start+0x4c>
 8006b30:	f502 4278 	add.w	r2, r2, #63488	@ 0xf800
 8006b34:	4293      	cmp	r3, r2
 8006b36:	d007      	beq.n	8006b48 <HAL_TIM_Base_Start+0x4c>
 8006b38:	f5a2 426c 	sub.w	r2, r2, #60416	@ 0xec00
 8006b3c:	4293      	cmp	r3, r2
 8006b3e:	d003      	beq.n	8006b48 <HAL_TIM_Base_Start+0x4c>
 8006b40:	f502 3294 	add.w	r2, r2, #75776	@ 0x12800
 8006b44:	4293      	cmp	r3, r2
 8006b46:	d107      	bne.n	8006b58 <HAL_TIM_Base_Start+0x5c>
 8006b48:	6899      	ldr	r1, [r3, #8]
 8006b4a:	4a08      	ldr	r2, [pc, #32]	@ (8006b6c <HAL_TIM_Base_Start+0x70>)
 8006b4c:	400a      	ands	r2, r1
 8006b4e:	2a06      	cmp	r2, #6
 8006b50:	d006      	beq.n	8006b60 <HAL_TIM_Base_Start+0x64>
 8006b52:	f5b2 3f80 	cmp.w	r2, #65536	@ 0x10000
 8006b56:	d003      	beq.n	8006b60 <HAL_TIM_Base_Start+0x64>
 8006b58:	681a      	ldr	r2, [r3, #0]
 8006b5a:	f042 0201 	orr.w	r2, r2, #1
 8006b5e:	601a      	str	r2, [r3, #0]
 8006b60:	2000      	movs	r0, #0
 8006b62:	4770      	bx	lr
 8006b64:	2001      	movs	r0, #1
 8006b66:	4770      	bx	lr
 8006b68:	40010000 	.word	0x40010000
 8006b6c:	00010007 	.word	0x00010007

08006b70 <HAL_TIM_Base_Start_IT>:
 8006b70:	f890 303d 	ldrb.w	r3, [r0, #61]	@ 0x3d
 8006b74:	2b01      	cmp	r3, #1
 8006b76:	d133      	bne.n	8006be0 <HAL_TIM_Base_Start_IT+0x70>
 8006b78:	2302      	movs	r3, #2
 8006b7a:	f880 303d 	strb.w	r3, [r0, #61]	@ 0x3d
 8006b7e:	6803      	ldr	r3, [r0, #0]
 8006b80:	68da      	ldr	r2, [r3, #12]
 8006b82:	f042 0201 	orr.w	r2, r2, #1
 8006b86:	60da      	str	r2, [r3, #12]
 8006b88:	4a16      	ldr	r2, [pc, #88]	@ (8006be4 <HAL_TIM_Base_Start_IT+0x74>)
 8006b8a:	4293      	cmp	r3, r2
 8006b8c:	d01a      	beq.n	8006bc4 <HAL_TIM_Base_Start_IT+0x54>
 8006b8e:	f1b3 4f80 	cmp.w	r3, #1073741824	@ 0x40000000
 8006b92:	d017      	beq.n	8006bc4 <HAL_TIM_Base_Start_IT+0x54>
 8006b94:	f5a2 427c 	sub.w	r2, r2, #64512	@ 0xfc00
 8006b98:	4293      	cmp	r3, r2
 8006b9a:	d013      	beq.n	8006bc4 <HAL_TIM_Base_Start_IT+0x54>
 8006b9c:	f502 6280 	add.w	r2, r2, #1024	@ 0x400
 8006ba0:	4293      	cmp	r3, r2
 8006ba2:	d00f      	beq.n	8006bc4 <HAL_TIM_Base_Start_IT+0x54>
 8006ba4:	f502 6280 	add.w	r2, r2, #1024	@ 0x400
 8006ba8:	4293      	cmp	r3, r2
 8006baa:	d00b      	beq.n	8006bc4 <HAL_TIM_Base_Start_IT+0x54>
 8006bac:	f502 4278 	add.w	r2, r2, #63488	@ 0xf800
 8006bb0:	4293      	cmp	r3, r2
 8006bb2:	d007      	beq.n	8006bc4 <HAL_TIM_Base_Start_IT+0x54>
 8006bb4:	f5a2 426c 	sub.w	r2, r2, #60416	@ 0xec00
 8006bb8:	4293      	cmp	r3, r2
 8006bba:	d003      	beq.n	8006bc4 <HAL_TIM_Base_Start_IT+0x54>
 8006bbc:	f502 3294 	add.w	r2, r2, #75776	@ 0x12800
 8006bc0:	4293      	cmp	r3, r2
 8006bc2:	d107      	bne.n	8006bd4 <HAL_TIM_Base_Start_IT+0x64>
 8006bc4:	6899      	ldr	r1, [r3, #8]
 8006bc6:	4a08      	ldr	r2, [pc, #32]	@ (8006be8 <HAL_TIM_Base_Start_IT+0x78>)
 8006bc8:	400a      	ands	r2, r1
 8006bca:	2a06      	cmp	r2, #6
 8006bcc:	d006      	beq.n	8006bdc <HAL_TIM_Base_Start_IT+0x6c>
 8006bce:	f5b2 3f80 	cmp.w	r2, #65536	@ 0x10000
 8006bd2:	d003      	beq.n	8006bdc <HAL_TIM_Base_Start_IT+0x6c>
 8006bd4:	681a      	ldr	r2, [r3, #0]
 8006bd6:	f042 0201 	orr.w	r2, r2, #1
 8006bda:	601a      	str	r2, [r3, #0]
 8006bdc:	2000      	movs	r0, #0
 8006bde:	4770      	bx	lr
 8006be0:	2001      	movs	r0, #1
 8006be2:	4770      	bx	lr
 8006be4:	40010000 	.word	0x40010000
 8006be8:	00010007 	.word	0x00010007

08006bec <HAL_TIM_OC_DelayElapsedCallback>:
 8006bec:	4770      	bx	lr

08006bee <HAL_TIM_IC_CaptureCallback>:
 8006bee:	4770      	bx	lr

08006bf0 <HAL_TIM_PWM_PulseFinishedCallback>:
 8006bf0:	4770      	bx	lr

08006bf2 <HAL_TIM_TriggerCallback>:
 8006bf2:	4770      	bx	lr

08006bf4 <HAL_TIM_IRQHandler>:
 8006bf4:	6803      	ldr	r3, [r0, #0]
 8006bf6:	b570      	push	{r4, r5, r6, lr}
 8006bf8:	68dd      	ldr	r5, [r3, #12]
 8006bfa:	4604      	mov	r4, r0
 8006bfc:	691e      	ldr	r6, [r3, #16]
 8006bfe:	07b2      	lsls	r2, r6, #30
 8006c00:	d50d      	bpl.n	8006c1e <HAL_TIM_IRQHandler+0x2a>
 8006c02:	07a9      	lsls	r1, r5, #30
 8006c04:	d50b      	bpl.n	8006c1e <HAL_TIM_IRQHandler+0x2a>
 8006c06:	f06f 0202 	mvn.w	r2, #2
 8006c0a:	611a      	str	r2, [r3, #16]
 8006c0c:	2201      	movs	r2, #1
 8006c0e:	7702      	strb	r2, [r0, #28]
 8006c10:	699b      	ldr	r3, [r3, #24]
 8006c12:	079a      	lsls	r2, r3, #30
 8006c14:	d075      	beq.n	8006d02 <HAL_TIM_IRQHandler+0x10e>
 8006c16:	f7ff ffea 	bl	8006bee <HAL_TIM_IC_CaptureCallback>
 8006c1a:	2300      	movs	r3, #0
 8006c1c:	7723      	strb	r3, [r4, #28]
 8006c1e:	0773      	lsls	r3, r6, #29
 8006c20:	d510      	bpl.n	8006c44 <HAL_TIM_IRQHandler+0x50>
 8006c22:	0768      	lsls	r0, r5, #29
 8006c24:	d50e      	bpl.n	8006c44 <HAL_TIM_IRQHandler+0x50>
 8006c26:	6823      	ldr	r3, [r4, #0]
 8006c28:	f06f 0204 	mvn.w	r2, #4
 8006c2c:	4620      	mov	r0, r4
 8006c2e:	611a      	str	r2, [r3, #16]
 8006c30:	2202      	movs	r2, #2
 8006c32:	7722      	strb	r2, [r4, #28]
 8006c34:	699b      	ldr	r3, [r3, #24]
 8006c36:	f413 7f40 	tst.w	r3, #768	@ 0x300
 8006c3a:	d068      	beq.n	8006d0e <HAL_TIM_IRQHandler+0x11a>
 8006c3c:	f7ff ffd7 	bl	8006bee <HAL_TIM_IC_CaptureCallback>
 8006c40:	2300      	movs	r3, #0
 8006c42:	7723      	strb	r3, [r4, #28]
 8006c44:	0731      	lsls	r1, r6, #28
 8006c46:	d50f      	bpl.n	8006c68 <HAL_TIM_IRQHandler+0x74>
 8006c48:	072a      	lsls	r2, r5, #28
 8006c4a:	d50d      	bpl.n	8006c68 <HAL_TIM_IRQHandler+0x74>
 8006c4c:	6823      	ldr	r3, [r4, #0]
 8006c4e:	f06f 0208 	mvn.w	r2, #8
 8006c52:	4620      	mov	r0, r4
 8006c54:	611a      	str	r2, [r3, #16]
 8006c56:	2204      	movs	r2, #4
 8006c58:	7722      	strb	r2, [r4, #28]
 8006c5a:	69db      	ldr	r3, [r3, #28]
 8006c5c:	079b      	lsls	r3, r3, #30
 8006c5e:	d05c      	beq.n	8006d1a <HAL_TIM_IRQHandler+0x126>
 8006c60:	f7ff ffc5 	bl	8006bee <HAL_TIM_IC_CaptureCallback>
 8006c64:	2300      	movs	r3, #0
 8006c66:	7723      	strb	r3, [r4, #28]
 8006c68:	06f1      	lsls	r1, r6, #27
 8006c6a:	d510      	bpl.n	8006c8e <HAL_TIM_IRQHandler+0x9a>
 8006c6c:	06ea      	lsls	r2, r5, #27
 8006c6e:	d50e      	bpl.n	8006c8e <HAL_TIM_IRQHandler+0x9a>
 8006c70:	6823      	ldr	r3, [r4, #0]
 8006c72:	f06f 0210 	mvn.w	r2, #16
 8006c76:	4620      	mov	r0, r4
 8006c78:	611a      	str	r2, [r3, #16]
 8006c7a:	2208      	movs	r2, #8
 8006c7c:	7722      	strb	r2, [r4, #28]
 8006c7e:	69db      	ldr	r3, [r3, #28]
 8006c80:	f413 7f40 	tst.w	r3, #768	@ 0x300
 8006c84:	d04f      	beq.n	8006d26 <HAL_TIM_IRQHandler+0x132>
 8006c86:	f7ff ffb2 	bl	8006bee <HAL_TIM_IC_CaptureCallback>
 8006c8a:	2300      	movs	r3, #0
 8006c8c:	7723      	strb	r3, [r4, #28]
 8006c8e:	07f3      	lsls	r3, r6, #31
 8006c90:	d508      	bpl.n	8006ca4 <HAL_TIM_IRQHandler+0xb0>
 8006c92:	07e8      	lsls	r0, r5, #31
 8006c94:	d506      	bpl.n	8006ca4 <HAL_TIM_IRQHandler+0xb0>
 8006c96:	6823      	ldr	r3, [r4, #0]
 8006c98:	f06f 0201 	mvn.w	r2, #1
 8006c9c:	4620      	mov	r0, r4
 8006c9e:	611a      	str	r2, [r3, #16]
 8006ca0:	f7fa fd86 	bl	80017b0 <HAL_TIM_PeriodElapsedCallback>
 8006ca4:	f416 5f02 	tst.w	r6, #8320	@ 0x2080
 8006ca8:	d008      	beq.n	8006cbc <HAL_TIM_IRQHandler+0xc8>
 8006caa:	0629      	lsls	r1, r5, #24
 8006cac:	d506      	bpl.n	8006cbc <HAL_TIM_IRQHandler+0xc8>
 8006cae:	6823      	ldr	r3, [r4, #0]
 8006cb0:	f46f 5202 	mvn.w	r2, #8320	@ 0x2080
 8006cb4:	4620      	mov	r0, r4
 8006cb6:	611a      	str	r2, [r3, #16]
 8006cb8:	f000 f9e7 	bl	800708a <HAL_TIMEx_BreakCallback>
 8006cbc:	05f2      	lsls	r2, r6, #23
 8006cbe:	d508      	bpl.n	8006cd2 <HAL_TIM_IRQHandler+0xde>
 8006cc0:	062b      	lsls	r3, r5, #24
 8006cc2:	d506      	bpl.n	8006cd2 <HAL_TIM_IRQHandler+0xde>
 8006cc4:	6823      	ldr	r3, [r4, #0]
 8006cc6:	f46f 7280 	mvn.w	r2, #256	@ 0x100
 8006cca:	4620      	mov	r0, r4
 8006ccc:	611a      	str	r2, [r3, #16]
 8006cce:	f000 f9dd 	bl	800708c <HAL_TIMEx_Break2Callback>
 8006cd2:	0670      	lsls	r0, r6, #25
 8006cd4:	d508      	bpl.n	8006ce8 <HAL_TIM_IRQHandler+0xf4>
 8006cd6:	0669      	lsls	r1, r5, #25
 8006cd8:	d506      	bpl.n	8006ce8 <HAL_TIM_IRQHandler+0xf4>
 8006cda:	6823      	ldr	r3, [r4, #0]
 8006cdc:	f06f 0240 	mvn.w	r2, #64	@ 0x40
 8006ce0:	4620      	mov	r0, r4
 8006ce2:	611a      	str	r2, [r3, #16]
 8006ce4:	f7ff ff85 	bl	8006bf2 <HAL_TIM_TriggerCallback>
 8006ce8:	06b2      	lsls	r2, r6, #26
 8006cea:	d522      	bpl.n	8006d32 <HAL_TIM_IRQHandler+0x13e>
 8006cec:	06ab      	lsls	r3, r5, #26
 8006cee:	d520      	bpl.n	8006d32 <HAL_TIM_IRQHandler+0x13e>
 8006cf0:	6823      	ldr	r3, [r4, #0]
 8006cf2:	f06f 0220 	mvn.w	r2, #32
 8006cf6:	4620      	mov	r0, r4
 8006cf8:	611a      	str	r2, [r3, #16]
 8006cfa:	e8bd 4070 	ldmia.w	sp!, {r4, r5, r6, lr}
 8006cfe:	f000 b9c3 	b.w	8007088 <HAL_TIMEx_CommutCallback>
 8006d02:	f7ff ff73 	bl	8006bec <HAL_TIM_OC_DelayElapsedCallback>
 8006d06:	4620      	mov	r0, r4
 8006d08:	f7ff ff72 	bl	8006bf0 <HAL_TIM_PWM_PulseFinishedCallback>
 8006d0c:	e785      	b.n	8006c1a <HAL_TIM_IRQHandler+0x26>
 8006d0e:	f7ff ff6d 	bl	8006bec <HAL_TIM_OC_DelayElapsedCallback>
 8006d12:	4620      	mov	r0, r4
 8006d14:	f7ff ff6c 	bl	8006bf0 <HAL_TIM_PWM_PulseFinishedCallback>
 8006d18:	e792      	b.n	8006c40 <HAL_TIM_IRQHandler+0x4c>
 8006d1a:	f7ff ff67 	bl	8006bec <HAL_TIM_OC_DelayElapsedCallback>
 8006d1e:	4620      	mov	r0, r4
 8006d20:	f7ff ff66 	bl	8006bf0 <HAL_TIM_PWM_PulseFinishedCallback>
 8006d24:	e79e      	b.n	8006c64 <HAL_TIM_IRQHandler+0x70>
 8006d26:	f7ff ff61 	bl	8006bec <HAL_TIM_OC_DelayElapsedCallback>
 8006d2a:	4620      	mov	r0, r4
 8006d2c:	f7ff ff60 	bl	8006bf0 <HAL_TIM_PWM_PulseFinishedCallback>
 8006d30:	e7ab      	b.n	8006c8a <HAL_TIM_IRQHandler+0x96>
 8006d32:	bd70      	pop	{r4, r5, r6, pc}

08006d34 <TIM_Base_SetConfig>:
 8006d34:	4a33      	ldr	r2, [pc, #204]	@ (8006e04 <TIM_Base_SetConfig+0xd0>)
 8006d36:	6803      	ldr	r3, [r0, #0]
 8006d38:	4290      	cmp	r0, r2
 8006d3a:	d012      	beq.n	8006d62 <TIM_Base_SetConfig+0x2e>
 8006d3c:	f1b0 4f80 	cmp.w	r0, #1073741824	@ 0x40000000
 8006d40:	d00f      	beq.n	8006d62 <TIM_Base_SetConfig+0x2e>
 8006d42:	f5a2 427c 	sub.w	r2, r2, #64512	@ 0xfc00
 8006d46:	4290      	cmp	r0, r2
 8006d48:	d00b      	beq.n	8006d62 <TIM_Base_SetConfig+0x2e>
 8006d4a:	f502 6280 	add.w	r2, r2, #1024	@ 0x400
 8006d4e:	4290      	cmp	r0, r2
 8006d50:	d007      	beq.n	8006d62 <TIM_Base_SetConfig+0x2e>
 8006d52:	f502 6280 	add.w	r2, r2, #1024	@ 0x400
 8006d56:	4290      	cmp	r0, r2
 8006d58:	d003      	beq.n	8006d62 <TIM_Base_SetConfig+0x2e>
 8006d5a:	f502 4278 	add.w	r2, r2, #63488	@ 0xf800
 8006d5e:	4290      	cmp	r0, r2
 8006d60:	d119      	bne.n	8006d96 <TIM_Base_SetConfig+0x62>
 8006d62:	684a      	ldr	r2, [r1, #4]
 8006d64:	f023 0370 	bic.w	r3, r3, #112	@ 0x70
 8006d68:	4313      	orrs	r3, r2
 8006d6a:	4a26      	ldr	r2, [pc, #152]	@ (8006e04 <TIM_Base_SetConfig+0xd0>)
 8006d6c:	4290      	cmp	r0, r2
 8006d6e:	d01d      	beq.n	8006dac <TIM_Base_SetConfig+0x78>
 8006d70:	f1b0 4f80 	cmp.w	r0, #1073741824	@ 0x40000000
 8006d74:	d01a      	beq.n	8006dac <TIM_Base_SetConfig+0x78>
 8006d76:	f5a2 427c 	sub.w	r2, r2, #64512	@ 0xfc00
 8006d7a:	4290      	cmp	r0, r2
 8006d7c:	d016      	beq.n	8006dac <TIM_Base_SetConfig+0x78>
 8006d7e:	f502 6280 	add.w	r2, r2, #1024	@ 0x400
 8006d82:	4290      	cmp	r0, r2
 8006d84:	d012      	beq.n	8006dac <TIM_Base_SetConfig+0x78>
 8006d86:	f502 6280 	add.w	r2, r2, #1024	@ 0x400
 8006d8a:	4290      	cmp	r0, r2
 8006d8c:	d00e      	beq.n	8006dac <TIM_Base_SetConfig+0x78>
 8006d8e:	f502 4278 	add.w	r2, r2, #63488	@ 0xf800
 8006d92:	4290      	cmp	r0, r2
 8006d94:	d00a      	beq.n	8006dac <TIM_Base_SetConfig+0x78>
 8006d96:	4a1c      	ldr	r2, [pc, #112]	@ (8006e08 <TIM_Base_SetConfig+0xd4>)
 8006d98:	4290      	cmp	r0, r2
 8006d9a:	d007      	beq.n	8006dac <TIM_Base_SetConfig+0x78>
 8006d9c:	f502 6280 	add.w	r2, r2, #1024	@ 0x400
 8006da0:	4290      	cmp	r0, r2
 8006da2:	d003      	beq.n	8006dac <TIM_Base_SetConfig+0x78>
 8006da4:	f502 6280 	add.w	r2, r2, #1024	@ 0x400
 8006da8:	4290      	cmp	r0, r2
 8006daa:	d103      	bne.n	8006db4 <TIM_Base_SetConfig+0x80>
 8006dac:	f423 7340 	bic.w	r3, r3, #768	@ 0x300
 8006db0:	68ca      	ldr	r2, [r1, #12]
 8006db2:	4313      	orrs	r3, r2
 8006db4:	694a      	ldr	r2, [r1, #20]
 8006db6:	f023 0380 	bic.w	r3, r3, #128	@ 0x80
 8006dba:	4313      	orrs	r3, r2
 8006dbc:	6003      	str	r3, [r0, #0]
 8006dbe:	688b      	ldr	r3, [r1, #8]
 8006dc0:	62c3      	str	r3, [r0, #44]	@ 0x2c
 8006dc2:	680b      	ldr	r3, [r1, #0]
 8006dc4:	6283      	str	r3, [r0, #40]	@ 0x28
 8006dc6:	4b0f      	ldr	r3, [pc, #60]	@ (8006e04 <TIM_Base_SetConfig+0xd0>)
 8006dc8:	4298      	cmp	r0, r3
 8006dca:	d00f      	beq.n	8006dec <TIM_Base_SetConfig+0xb8>
 8006dcc:	f503 6380 	add.w	r3, r3, #1024	@ 0x400
 8006dd0:	4298      	cmp	r0, r3
 8006dd2:	d00b      	beq.n	8006dec <TIM_Base_SetConfig+0xb8>
 8006dd4:	f503 5370 	add.w	r3, r3, #15360	@ 0x3c00
 8006dd8:	4298      	cmp	r0, r3
 8006dda:	d007      	beq.n	8006dec <TIM_Base_SetConfig+0xb8>
 8006ddc:	f503 6380 	add.w	r3, r3, #1024	@ 0x400
 8006de0:	4298      	cmp	r0, r3
 8006de2:	d003      	beq.n	8006dec <TIM_Base_SetConfig+0xb8>
 8006de4:	f503 6380 	add.w	r3, r3, #1024	@ 0x400
 8006de8:	4298      	cmp	r0, r3
 8006dea:	d101      	bne.n	8006df0 <TIM_Base_SetConfig+0xbc>
 8006dec:	690b      	ldr	r3, [r1, #16]
 8006dee:	6303      	str	r3, [r0, #48]	@ 0x30
 8006df0:	2301      	movs	r3, #1
 8006df2:	6143      	str	r3, [r0, #20]
 8006df4:	6903      	ldr	r3, [r0, #16]
 8006df6:	07db      	lsls	r3, r3, #31
 8006df8:	d503      	bpl.n	8006e02 <TIM_Base_SetConfig+0xce>
 8006dfa:	6903      	ldr	r3, [r0, #16]
 8006dfc:	f023 0301 	bic.w	r3, r3, #1
 8006e00:	6103      	str	r3, [r0, #16]
 8006e02:	4770      	bx	lr
 8006e04:	40010000 	.word	0x40010000
 8006e08:	40014000 	.word	0x40014000

08006e0c <HAL_TIM_Base_Init>:
 8006e0c:	b510      	push	{r4, lr}
 8006e0e:	4604      	mov	r4, r0
 8006e10:	b350      	cbz	r0, 8006e68 <HAL_TIM_Base_Init+0x5c>
 8006e12:	f890 303d 	ldrb.w	r3, [r0, #61]	@ 0x3d
 8006e16:	f003 02ff 	and.w	r2, r3, #255	@ 0xff
 8006e1a:	b91b      	cbnz	r3, 8006e24 <HAL_TIM_Base_Init+0x18>
 8006e1c:	f880 203c 	strb.w	r2, [r0, #60]	@ 0x3c
 8006e20:	f7fa fb4c 	bl	80014bc <HAL_TIM_Base_MspInit>
 8006e24:	2302      	movs	r3, #2
 8006e26:	6820      	ldr	r0, [r4, #0]
 8006e28:	1d21      	adds	r1, r4, #4
 8006e2a:	f884 303d 	strb.w	r3, [r4, #61]	@ 0x3d
 8006e2e:	f7ff ff81 	bl	8006d34 <TIM_Base_SetConfig>
 8006e32:	2301      	movs	r3, #1
 8006e34:	2000      	movs	r0, #0
 8006e36:	f884 3048 	strb.w	r3, [r4, #72]	@ 0x48
 8006e3a:	f884 303e 	strb.w	r3, [r4, #62]	@ 0x3e
 8006e3e:	f884 303f 	strb.w	r3, [r4, #63]	@ 0x3f
 8006e42:	f884 3040 	strb.w	r3, [r4, #64]	@ 0x40
 8006e46:	f884 3041 	strb.w	r3, [r4, #65]	@ 0x41
 8006e4a:	f884 3042 	strb.w	r3, [r4, #66]	@ 0x42
 8006e4e:	f884 3043 	strb.w	r3, [r4, #67]	@ 0x43
 8006e52:	f884 3044 	strb.w	r3, [r4, #68]	@ 0x44
 8006e56:	f884 3045 	strb.w	r3, [r4, #69]	@ 0x45
 8006e5a:	f884 3046 	strb.w	r3, [r4, #70]	@ 0x46
 8006e5e:	f884 3047 	strb.w	r3, [r4, #71]	@ 0x47
 8006e62:	f884 303d 	strb.w	r3, [r4, #61]	@ 0x3d
 8006e66:	bd10      	pop	{r4, pc}
 8006e68:	2001      	movs	r0, #1
 8006e6a:	e7fc      	b.n	8006e66 <HAL_TIM_Base_Init+0x5a>

08006e6c <TIM_ETR_SetConfig>:
 8006e6c:	430a      	orrs	r2, r1
 8006e6e:	b510      	push	{r4, lr}
 8006e70:	6884      	ldr	r4, [r0, #8]
 8006e72:	ea42 2203 	orr.w	r2, r2, r3, lsl #8
 8006e76:	f424 447f 	bic.w	r4, r4, #65280	@ 0xff00
 8006e7a:	4322      	orrs	r2, r4
 8006e7c:	6082      	str	r2, [r0, #8]
 8006e7e:	bd10      	pop	{r4, pc}

08006e80 <HAL_TIM_ConfigClockSource>:
 8006e80:	b538      	push	{r3, r4, r5, lr}
 8006e82:	f890 303c 	ldrb.w	r3, [r0, #60]	@ 0x3c
 8006e86:	4604      	mov	r4, r0
 8006e88:	2002      	movs	r0, #2
 8006e8a:	2b01      	cmp	r3, #1
 8006e8c:	f000 80a9 	beq.w	8006fe2 <HAL_TIM_ConfigClockSource+0x162>
 8006e90:	f884 003d 	strb.w	r0, [r4, #61]	@ 0x3d
 8006e94:	2201      	movs	r2, #1
 8006e96:	6820      	ldr	r0, [r4, #0]
 8006e98:	f884 203c 	strb.w	r2, [r4, #60]	@ 0x3c
 8006e9c:	4b52      	ldr	r3, [pc, #328]	@ (8006fe8 <HAL_TIM_ConfigClockSource+0x168>)
 8006e9e:	6885      	ldr	r5, [r0, #8]
 8006ea0:	402b      	ands	r3, r5
 8006ea2:	6083      	str	r3, [r0, #8]
 8006ea4:	680b      	ldr	r3, [r1, #0]
 8006ea6:	2b70      	cmp	r3, #112	@ 0x70
 8006ea8:	d056      	beq.n	8006f58 <HAL_TIM_ConfigClockSource+0xd8>
 8006eaa:	d83c      	bhi.n	8006f26 <HAL_TIM_ConfigClockSource+0xa6>
 8006eac:	2b50      	cmp	r3, #80	@ 0x50
 8006eae:	d066      	beq.n	8006f7e <HAL_TIM_ConfigClockSource+0xfe>
 8006eb0:	d81d      	bhi.n	8006eee <HAL_TIM_ConfigClockSource+0x6e>
 8006eb2:	2b40      	cmp	r3, #64	@ 0x40
 8006eb4:	d07c      	beq.n	8006fb0 <HAL_TIM_ConfigClockSource+0x130>
 8006eb6:	d806      	bhi.n	8006ec6 <HAL_TIM_ConfigClockSource+0x46>
 8006eb8:	2b20      	cmp	r3, #32
 8006eba:	d00e      	beq.n	8006eda <HAL_TIM_ConfigClockSource+0x5a>
 8006ebc:	d80b      	bhi.n	8006ed6 <HAL_TIM_ConfigClockSource+0x56>
 8006ebe:	f033 0210 	bics.w	r2, r3, #16
 8006ec2:	d00a      	beq.n	8006eda <HAL_TIM_ConfigClockSource+0x5a>
 8006ec4:	2201      	movs	r2, #1
 8006ec6:	2301      	movs	r3, #1
 8006ec8:	f884 303d 	strb.w	r3, [r4, #61]	@ 0x3d
 8006ecc:	2300      	movs	r3, #0
 8006ece:	f884 303c 	strb.w	r3, [r4, #60]	@ 0x3c
 8006ed2:	4610      	mov	r0, r2
 8006ed4:	bd38      	pop	{r3, r4, r5, pc}
 8006ed6:	2b30      	cmp	r3, #48	@ 0x30
 8006ed8:	d1f4      	bne.n	8006ec4 <HAL_TIM_ConfigClockSource+0x44>
 8006eda:	6882      	ldr	r2, [r0, #8]
 8006edc:	f422 1240 	bic.w	r2, r2, #3145728	@ 0x300000
 8006ee0:	f022 0270 	bic.w	r2, r2, #112	@ 0x70
 8006ee4:	431a      	orrs	r2, r3
 8006ee6:	f042 0207 	orr.w	r2, r2, #7
 8006eea:	6082      	str	r2, [r0, #8]
 8006eec:	e022      	b.n	8006f34 <HAL_TIM_ConfigClockSource+0xb4>
 8006eee:	2b60      	cmp	r3, #96	@ 0x60
 8006ef0:	d1e9      	bne.n	8006ec6 <HAL_TIM_ConfigClockSource+0x46>
 8006ef2:	6a03      	ldr	r3, [r0, #32]
 8006ef4:	6a02      	ldr	r2, [r0, #32]
 8006ef6:	684d      	ldr	r5, [r1, #4]
 8006ef8:	f023 03a0 	bic.w	r3, r3, #160	@ 0xa0
 8006efc:	f022 0210 	bic.w	r2, r2, #16
 8006f00:	68c9      	ldr	r1, [r1, #12]
 8006f02:	ea43 1305 	orr.w	r3, r3, r5, lsl #4
 8006f06:	6202      	str	r2, [r0, #32]
 8006f08:	6982      	ldr	r2, [r0, #24]
 8006f0a:	f422 4270 	bic.w	r2, r2, #61440	@ 0xf000
 8006f0e:	ea42 3201 	orr.w	r2, r2, r1, lsl #12
 8006f12:	6182      	str	r2, [r0, #24]
 8006f14:	6203      	str	r3, [r0, #32]
 8006f16:	6883      	ldr	r3, [r0, #8]
 8006f18:	f423 1340 	bic.w	r3, r3, #3145728	@ 0x300000
 8006f1c:	f023 0370 	bic.w	r3, r3, #112	@ 0x70
 8006f20:	f043 0367 	orr.w	r3, r3, #103	@ 0x67
 8006f24:	e020      	b.n	8006f68 <HAL_TIM_ConfigClockSource+0xe8>
 8006f26:	f5b3 5f00 	cmp.w	r3, #8192	@ 0x2000
 8006f2a:	d01f      	beq.n	8006f6c <HAL_TIM_ConfigClockSource+0xec>
 8006f2c:	d804      	bhi.n	8006f38 <HAL_TIM_ConfigClockSource+0xb8>
 8006f2e:	f5b3 5f80 	cmp.w	r3, #4096	@ 0x1000
 8006f32:	d1c8      	bne.n	8006ec6 <HAL_TIM_ConfigClockSource+0x46>
 8006f34:	2200      	movs	r2, #0
 8006f36:	e7c6      	b.n	8006ec6 <HAL_TIM_ConfigClockSource+0x46>
 8006f38:	492c      	ldr	r1, [pc, #176]	@ (8006fec <HAL_TIM_ConfigClockSource+0x16c>)
 8006f3a:	428b      	cmp	r3, r1
 8006f3c:	d0cd      	beq.n	8006eda <HAL_TIM_ConfigClockSource+0x5a>
 8006f3e:	d805      	bhi.n	8006f4c <HAL_TIM_ConfigClockSource+0xcc>
 8006f40:	f023 0110 	bic.w	r1, r3, #16
 8006f44:	f5b1 1f80 	cmp.w	r1, #1048576	@ 0x100000
 8006f48:	d0c7      	beq.n	8006eda <HAL_TIM_ConfigClockSource+0x5a>
 8006f4a:	e7bc      	b.n	8006ec6 <HAL_TIM_ConfigClockSource+0x46>
 8006f4c:	4928      	ldr	r1, [pc, #160]	@ (8006ff0 <HAL_TIM_ConfigClockSource+0x170>)
 8006f4e:	428b      	cmp	r3, r1
 8006f50:	d0c3      	beq.n	8006eda <HAL_TIM_ConfigClockSource+0x5a>
 8006f52:	3110      	adds	r1, #16
 8006f54:	428b      	cmp	r3, r1
 8006f56:	e7f7      	b.n	8006f48 <HAL_TIM_ConfigClockSource+0xc8>
 8006f58:	68cb      	ldr	r3, [r1, #12]
 8006f5a:	e9d1 2101 	ldrd	r2, r1, [r1, #4]
 8006f5e:	f7ff ff85 	bl	8006e6c <TIM_ETR_SetConfig>
 8006f62:	6883      	ldr	r3, [r0, #8]
 8006f64:	f043 0377 	orr.w	r3, r3, #119	@ 0x77
 8006f68:	6083      	str	r3, [r0, #8]
 8006f6a:	e7e3      	b.n	8006f34 <HAL_TIM_ConfigClockSource+0xb4>
 8006f6c:	68cb      	ldr	r3, [r1, #12]
 8006f6e:	e9d1 2101 	ldrd	r2, r1, [r1, #4]
 8006f72:	f7ff ff7b 	bl	8006e6c <TIM_ETR_SetConfig>
 8006f76:	6883      	ldr	r3, [r0, #8]
 8006f78:	f443 4380 	orr.w	r3, r3, #16384	@ 0x4000
 8006f7c:	e7f4      	b.n	8006f68 <HAL_TIM_ConfigClockSource+0xe8>
 8006f7e:	684a      	ldr	r2, [r1, #4]
 8006f80:	68cd      	ldr	r5, [r1, #12]
 8006f82:	6a01      	ldr	r1, [r0, #32]
 8006f84:	6a03      	ldr	r3, [r0, #32]
 8006f86:	f021 010a 	bic.w	r1, r1, #10
 8006f8a:	f023 0301 	bic.w	r3, r3, #1
 8006f8e:	430a      	orrs	r2, r1
 8006f90:	6203      	str	r3, [r0, #32]
 8006f92:	6983      	ldr	r3, [r0, #24]
 8006f94:	f023 03f0 	bic.w	r3, r3, #240	@ 0xf0
 8006f98:	ea43 1305 	orr.w	r3, r3, r5, lsl #4
 8006f9c:	6183      	str	r3, [r0, #24]
 8006f9e:	6202      	str	r2, [r0, #32]
 8006fa0:	6883      	ldr	r3, [r0, #8]
 8006fa2:	f423 1340 	bic.w	r3, r3, #3145728	@ 0x300000
 8006fa6:	f023 0370 	bic.w	r3, r3, #112	@ 0x70
 8006faa:	f043 0357 	orr.w	r3, r3, #87	@ 0x57
 8006fae:	e7db      	b.n	8006f68 <HAL_TIM_ConfigClockSource+0xe8>
 8006fb0:	684a      	ldr	r2, [r1, #4]
 8006fb2:	68cd      	ldr	r5, [r1, #12]
 8006fb4:	6a01      	ldr	r1, [r0, #32]
 8006fb6:	6a03      	ldr	r3, [r0, #32]
 8006fb8:	f021 010a 	bic.w	r1, r1, #10
 8006fbc:	f023 0301 	bic.w	r3, r3, #1
 8006fc0:	430a      	orrs	r2, r1
 8006fc2:	6203      	str	r3, [r0, #32]
 8006fc4:	6983      	ldr	r3, [r0, #24]
 8006fc6:	f023 03f0 	bic.w	r3, r3, #240	@ 0xf0
 8006fca:	ea43 1305 	orr.w	r3, r3, r5, lsl #4
 8006fce:	6183      	str	r3, [r0, #24]
 8006fd0:	6202      	str	r2, [r0, #32]
 8006fd2:	6883      	ldr	r3, [r0, #8]
 8006fd4:	f423 1340 	bic.w	r3, r3, #3145728	@ 0x300000
 8006fd8:	f023 0370 	bic.w	r3, r3, #112	@ 0x70
 8006fdc:	f043 0347 	orr.w	r3, r3, #71	@ 0x47
 8006fe0:	e7c2      	b.n	8006f68 <HAL_TIM_ConfigClockSource+0xe8>
 8006fe2:	4602      	mov	r2, r0
 8006fe4:	e775      	b.n	8006ed2 <HAL_TIM_ConfigClockSource+0x52>
 8006fe6:	bf00      	nop
 8006fe8:	ffce0088 	.word	0xffce0088
 8006fec:	00100020 	.word	0x00100020
 8006ff0:	00100030 	.word	0x00100030

08006ff4 <HAL_TIMEx_MasterConfigSynchronization>:
 8006ff4:	b570      	push	{r4, r5, r6, lr}
 8006ff6:	f890 303c 	ldrb.w	r3, [r0, #60]	@ 0x3c
 8006ffa:	4604      	mov	r4, r0
 8006ffc:	2002      	movs	r0, #2
 8006ffe:	2b01      	cmp	r3, #1
 8007000:	d03b      	beq.n	800707a <HAL_TIMEx_MasterConfigSynchronization+0x86>
 8007002:	6823      	ldr	r3, [r4, #0]
 8007004:	4d1d      	ldr	r5, [pc, #116]	@ (800707c <HAL_TIMEx_MasterConfigSynchronization+0x88>)
 8007006:	f884 003d 	strb.w	r0, [r4, #61]	@ 0x3d
 800700a:	42ab      	cmp	r3, r5
 800700c:	685a      	ldr	r2, [r3, #4]
 800700e:	6898      	ldr	r0, [r3, #8]
 8007010:	d002      	beq.n	8007018 <HAL_TIMEx_MasterConfigSynchronization+0x24>
 8007012:	4e1b      	ldr	r6, [pc, #108]	@ (8007080 <HAL_TIMEx_MasterConfigSynchronization+0x8c>)
 8007014:	42b3      	cmp	r3, r6
 8007016:	d103      	bne.n	8007020 <HAL_TIMEx_MasterConfigSynchronization+0x2c>
 8007018:	f422 0270 	bic.w	r2, r2, #15728640	@ 0xf00000
 800701c:	684e      	ldr	r6, [r1, #4]
 800701e:	4332      	orrs	r2, r6
 8007020:	680e      	ldr	r6, [r1, #0]
 8007022:	f022 0270 	bic.w	r2, r2, #112	@ 0x70
 8007026:	42ab      	cmp	r3, r5
 8007028:	ea42 0206 	orr.w	r2, r2, r6
 800702c:	605a      	str	r2, [r3, #4]
 800702e:	d019      	beq.n	8007064 <HAL_TIMEx_MasterConfigSynchronization+0x70>
 8007030:	f1b3 4f80 	cmp.w	r3, #1073741824	@ 0x40000000
 8007034:	d016      	beq.n	8007064 <HAL_TIMEx_MasterConfigSynchronization+0x70>
 8007036:	4a13      	ldr	r2, [pc, #76]	@ (8007084 <HAL_TIMEx_MasterConfigSynchronization+0x90>)
 8007038:	4293      	cmp	r3, r2
 800703a:	d013      	beq.n	8007064 <HAL_TIMEx_MasterConfigSynchronization+0x70>
 800703c:	f502 6280 	add.w	r2, r2, #1024	@ 0x400
 8007040:	4293      	cmp	r3, r2
 8007042:	d00f      	beq.n	8007064 <HAL_TIMEx_MasterConfigSynchronization+0x70>
 8007044:	f502 6280 	add.w	r2, r2, #1024	@ 0x400
 8007048:	4293      	cmp	r3, r2
 800704a:	d00b      	beq.n	8007064 <HAL_TIMEx_MasterConfigSynchronization+0x70>
 800704c:	f502 4278 	add.w	r2, r2, #63488	@ 0xf800
 8007050:	4293      	cmp	r3, r2
 8007052:	d007      	beq.n	8007064 <HAL_TIMEx_MasterConfigSynchronization+0x70>
 8007054:	f5a2 426c 	sub.w	r2, r2, #60416	@ 0xec00
 8007058:	4293      	cmp	r3, r2
 800705a:	d003      	beq.n	8007064 <HAL_TIMEx_MasterConfigSynchronization+0x70>
 800705c:	f502 3294 	add.w	r2, r2, #75776	@ 0x12800
 8007060:	4293      	cmp	r3, r2
 8007062:	d104      	bne.n	800706e <HAL_TIMEx_MasterConfigSynchronization+0x7a>
 8007064:	6889      	ldr	r1, [r1, #8]
 8007066:	f020 0280 	bic.w	r2, r0, #128	@ 0x80
 800706a:	430a      	orrs	r2, r1
 800706c:	609a      	str	r2, [r3, #8]
 800706e:	2301      	movs	r3, #1
 8007070:	2000      	movs	r0, #0
 8007072:	f884 303d 	strb.w	r3, [r4, #61]	@ 0x3d
 8007076:	f884 003c 	strb.w	r0, [r4, #60]	@ 0x3c
 800707a:	bd70      	pop	{r4, r5, r6, pc}
 800707c:	40010000 	.word	0x40010000
 8007080:	40010400 	.word	0x40010400
 8007084:	40000400 	.word	0x40000400

08007088 <HAL_TIMEx_CommutCallback>:
 8007088:	4770      	bx	lr

0800708a <HAL_TIMEx_BreakCallback>:
 800708a:	4770      	bx	lr

0800708c <HAL_TIMEx_Break2Callback>:
 800708c:	4770      	bx	lr
	...

08007090 <UART_EndRxTransfer>:
 8007090:	b510      	push	{r4, lr}
 8007092:	6802      	ldr	r2, [r0, #0]
 8007094:	e852 3f00 	ldrex	r3, [r2]
 8007098:	f423 7390 	bic.w	r3, r3, #288	@ 0x120
 800709c:	e842 3100 	strex	r1, r3, [r2]
 80070a0:	6802      	ldr	r2, [r0, #0]
 80070a2:	2900      	cmp	r1, #0
 80070a4:	d1f5      	bne.n	8007092 <UART_EndRxTransfer+0x2>
 80070a6:	4c0f      	ldr	r4, [pc, #60]	@ (80070e4 <UART_EndRxTransfer+0x54>)
 80070a8:	f102 0308 	add.w	r3, r2, #8
 80070ac:	e853 3f00 	ldrex	r3, [r3]
 80070b0:	4023      	ands	r3, r4
 80070b2:	f102 0c08 	add.w	ip, r2, #8
 80070b6:	e84c 3100 	strex	r1, r3, [ip]
 80070ba:	2900      	cmp	r1, #0
 80070bc:	d1f4      	bne.n	80070a8 <UART_EndRxTransfer+0x18>
 80070be:	6ec3      	ldr	r3, [r0, #108]	@ 0x6c
 80070c0:	2b01      	cmp	r3, #1
 80070c2:	d107      	bne.n	80070d4 <UART_EndRxTransfer+0x44>
 80070c4:	e852 3f00 	ldrex	r3, [r2]
 80070c8:	f023 0310 	bic.w	r3, r3, #16
 80070cc:	e842 3100 	strex	r1, r3, [r2]
 80070d0:	2900      	cmp	r1, #0
 80070d2:	d1f7      	bne.n	80070c4 <UART_EndRxTransfer+0x34>
 80070d4:	2320      	movs	r3, #32
 80070d6:	f8c0 308c 	str.w	r3, [r0, #140]	@ 0x8c
 80070da:	2300      	movs	r3, #0
 80070dc:	66c3      	str	r3, [r0, #108]	@ 0x6c
 80070de:	6743      	str	r3, [r0, #116]	@ 0x74
 80070e0:	bd10      	pop	{r4, pc}
 80070e2:	bf00      	nop
 80070e4:	effffffe 	.word	0xeffffffe

080070e8 <HAL_UART_TxCpltCallback>:
 80070e8:	4770      	bx	lr

080070ea <HAL_UART_ErrorCallback>:
 80070ea:	4770      	bx	lr

080070ec <UART_DMAAbortOnError>:
 80070ec:	b508      	push	{r3, lr}
 80070ee:	6b80      	ldr	r0, [r0, #56]	@ 0x38
 80070f0:	2300      	movs	r3, #0
 80070f2:	f8a0 305e 	strh.w	r3, [r0, #94]	@ 0x5e
 80070f6:	f8a0 3056 	strh.w	r3, [r0, #86]	@ 0x56
 80070fa:	f7ff fff6 	bl	80070ea <HAL_UART_ErrorCallback>
 80070fe:	bd08      	pop	{r3, pc}

08007100 <HAL_UART_IRQHandler>:
 8007100:	6803      	ldr	r3, [r0, #0]
 8007102:	e92d 41f0 	stmdb	sp!, {r4, r5, r6, r7, r8, lr}
 8007106:	69d9      	ldr	r1, [r3, #28]
 8007108:	f640 060f 	movw	r6, #2063	@ 0x80f
 800710c:	681a      	ldr	r2, [r3, #0]
 800710e:	4604      	mov	r4, r0
 8007110:	4231      	tst	r1, r6
 8007112:	689d      	ldr	r5, [r3, #8]
 8007114:	d110      	bne.n	8007138 <HAL_UART_IRQHandler+0x38>
 8007116:	068e      	lsls	r6, r1, #26
 8007118:	f140 8097 	bpl.w	800724a <HAL_UART_IRQHandler+0x14a>
 800711c:	f002 0620 	and.w	r6, r2, #32
 8007120:	f005 5780 	and.w	r7, r5, #268435456	@ 0x10000000
 8007124:	433e      	orrs	r6, r7
 8007126:	f000 8090 	beq.w	800724a <HAL_UART_IRQHandler+0x14a>
 800712a:	6f43      	ldr	r3, [r0, #116]	@ 0x74
 800712c:	2b00      	cmp	r3, #0
 800712e:	f000 8085 	beq.w	800723c <HAL_UART_IRQHandler+0x13c>
 8007132:	e8bd 41f0 	ldmia.w	sp!, {r4, r5, r6, r7, r8, lr}
 8007136:	4718      	bx	r3
 8007138:	4eaa      	ldr	r6, [pc, #680]	@ (80073e4 <HAL_UART_IRQHandler+0x2e4>)
 800713a:	48ab      	ldr	r0, [pc, #684]	@ (80073e8 <HAL_UART_IRQHandler+0x2e8>)
 800713c:	402e      	ands	r6, r5
 800713e:	4010      	ands	r0, r2
 8007140:	4330      	orrs	r0, r6
 8007142:	f000 8082 	beq.w	800724a <HAL_UART_IRQHandler+0x14a>
 8007146:	07cf      	lsls	r7, r1, #31
 8007148:	d509      	bpl.n	800715e <HAL_UART_IRQHandler+0x5e>
 800714a:	05d0      	lsls	r0, r2, #23
 800714c:	d507      	bpl.n	800715e <HAL_UART_IRQHandler+0x5e>
 800714e:	2001      	movs	r0, #1
 8007150:	6218      	str	r0, [r3, #32]
 8007152:	f8d4 0090 	ldr.w	r0, [r4, #144]	@ 0x90
 8007156:	f040 0001 	orr.w	r0, r0, #1
 800715a:	f8c4 0090 	str.w	r0, [r4, #144]	@ 0x90
 800715e:	078f      	lsls	r7, r1, #30
 8007160:	d509      	bpl.n	8007176 <HAL_UART_IRQHandler+0x76>
 8007162:	07e8      	lsls	r0, r5, #31
 8007164:	d507      	bpl.n	8007176 <HAL_UART_IRQHandler+0x76>
 8007166:	2002      	movs	r0, #2
 8007168:	6218      	str	r0, [r3, #32]
 800716a:	f8d4 0090 	ldr.w	r0, [r4, #144]	@ 0x90
 800716e:	f040 0004 	orr.w	r0, r0, #4
 8007172:	f8c4 0090 	str.w	r0, [r4, #144]	@ 0x90
 8007176:	074f      	lsls	r7, r1, #29
 8007178:	d509      	bpl.n	800718e <HAL_UART_IRQHandler+0x8e>
 800717a:	07e8      	lsls	r0, r5, #31
 800717c:	d507      	bpl.n	800718e <HAL_UART_IRQHandler+0x8e>
 800717e:	2004      	movs	r0, #4
 8007180:	6218      	str	r0, [r3, #32]
 8007182:	f8d4 0090 	ldr.w	r0, [r4, #144]	@ 0x90
 8007186:	f040 0002 	orr.w	r0, r0, #2
 800718a:	f8c4 0090 	str.w	r0, [r4, #144]	@ 0x90
 800718e:	070f      	lsls	r7, r1, #28
 8007190:	d50b      	bpl.n	80071aa <HAL_UART_IRQHandler+0xaa>
 8007192:	f002 0020 	and.w	r0, r2, #32
 8007196:	4330      	orrs	r0, r6
 8007198:	d007      	beq.n	80071aa <HAL_UART_IRQHandler+0xaa>
 800719a:	2008      	movs	r0, #8
 800719c:	6218      	str	r0, [r3, #32]
 800719e:	f8d4 0090 	ldr.w	r0, [r4, #144]	@ 0x90
 80071a2:	f040 0008 	orr.w	r0, r0, #8
 80071a6:	f8c4 0090 	str.w	r0, [r4, #144]	@ 0x90
 80071aa:	050e      	lsls	r6, r1, #20
 80071ac:	d50a      	bpl.n	80071c4 <HAL_UART_IRQHandler+0xc4>
 80071ae:	0150      	lsls	r0, r2, #5
 80071b0:	d508      	bpl.n	80071c4 <HAL_UART_IRQHandler+0xc4>
 80071b2:	f44f 6000 	mov.w	r0, #2048	@ 0x800
 80071b6:	6218      	str	r0, [r3, #32]
 80071b8:	f8d4 3090 	ldr.w	r3, [r4, #144]	@ 0x90
 80071bc:	f043 0320 	orr.w	r3, r3, #32
 80071c0:	f8c4 3090 	str.w	r3, [r4, #144]	@ 0x90
 80071c4:	f8d4 3090 	ldr.w	r3, [r4, #144]	@ 0x90
 80071c8:	2b00      	cmp	r3, #0
 80071ca:	d037      	beq.n	800723c <HAL_UART_IRQHandler+0x13c>
 80071cc:	068b      	lsls	r3, r1, #26
 80071ce:	d509      	bpl.n	80071e4 <HAL_UART_IRQHandler+0xe4>
 80071d0:	f002 0220 	and.w	r2, r2, #32
 80071d4:	f005 5580 	and.w	r5, r5, #268435456	@ 0x10000000
 80071d8:	432a      	orrs	r2, r5
 80071da:	d003      	beq.n	80071e4 <HAL_UART_IRQHandler+0xe4>
 80071dc:	6f63      	ldr	r3, [r4, #116]	@ 0x74
 80071de:	b10b      	cbz	r3, 80071e4 <HAL_UART_IRQHandler+0xe4>
 80071e0:	4620      	mov	r0, r4
 80071e2:	4798      	blx	r3
 80071e4:	6826      	ldr	r6, [r4, #0]
 80071e6:	4620      	mov	r0, r4
 80071e8:	f8d4 2090 	ldr.w	r2, [r4, #144]	@ 0x90
 80071ec:	68b3      	ldr	r3, [r6, #8]
 80071ee:	f002 0228 	and.w	r2, r2, #40	@ 0x28
 80071f2:	f003 0340 	and.w	r3, r3, #64	@ 0x40
 80071f6:	ea53 0502 	orrs.w	r5, r3, r2
 80071fa:	d021      	beq.n	8007240 <HAL_UART_IRQHandler+0x140>
 80071fc:	f7ff ff48 	bl	8007090 <UART_EndRxTransfer>
 8007200:	68b3      	ldr	r3, [r6, #8]
 8007202:	065f      	lsls	r7, r3, #25
 8007204:	d517      	bpl.n	8007236 <HAL_UART_IRQHandler+0x136>
 8007206:	6822      	ldr	r2, [r4, #0]
 8007208:	f102 0308 	add.w	r3, r2, #8
 800720c:	e853 3f00 	ldrex	r3, [r3]
 8007210:	f023 0340 	bic.w	r3, r3, #64	@ 0x40
 8007214:	3208      	adds	r2, #8
 8007216:	e842 3100 	strex	r1, r3, [r2]
 800721a:	2900      	cmp	r1, #0
 800721c:	d1f3      	bne.n	8007206 <HAL_UART_IRQHandler+0x106>
 800721e:	f8d4 0080 	ldr.w	r0, [r4, #128]	@ 0x80
 8007222:	b140      	cbz	r0, 8007236 <HAL_UART_IRQHandler+0x136>
 8007224:	4b71      	ldr	r3, [pc, #452]	@ (80073ec <HAL_UART_IRQHandler+0x2ec>)
 8007226:	6503      	str	r3, [r0, #80]	@ 0x50
 8007228:	f7fb fffa 	bl	8003220 <HAL_DMA_Abort_IT>
 800722c:	b130      	cbz	r0, 800723c <HAL_UART_IRQHandler+0x13c>
 800722e:	f8d4 0080 	ldr.w	r0, [r4, #128]	@ 0x80
 8007232:	6d03      	ldr	r3, [r0, #80]	@ 0x50
 8007234:	e77d      	b.n	8007132 <HAL_UART_IRQHandler+0x32>
 8007236:	4620      	mov	r0, r4
 8007238:	f7ff ff57 	bl	80070ea <HAL_UART_ErrorCallback>
 800723c:	e8bd 81f0 	ldmia.w	sp!, {r4, r5, r6, r7, r8, pc}
 8007240:	f7ff ff53 	bl	80070ea <HAL_UART_ErrorCallback>
 8007244:	f8c4 5090 	str.w	r5, [r4, #144]	@ 0x90
 8007248:	e7f8      	b.n	800723c <HAL_UART_IRQHandler+0x13c>
 800724a:	6ee0      	ldr	r0, [r4, #108]	@ 0x6c
 800724c:	2801      	cmp	r0, #1
 800724e:	f040 80ae 	bne.w	80073ae <HAL_UART_IRQHandler+0x2ae>
 8007252:	06ce      	lsls	r6, r1, #27
 8007254:	f140 80ab 	bpl.w	80073ae <HAL_UART_IRQHandler+0x2ae>
 8007258:	06d0      	lsls	r0, r2, #27
 800725a:	f140 80a8 	bpl.w	80073ae <HAL_UART_IRQHandler+0x2ae>
 800725e:	2210      	movs	r2, #16
 8007260:	621a      	str	r2, [r3, #32]
 8007262:	689a      	ldr	r2, [r3, #8]
 8007264:	0652      	lsls	r2, r2, #25
 8007266:	d56e      	bpl.n	8007346 <HAL_UART_IRQHandler+0x246>
 8007268:	f8d4 1080 	ldr.w	r1, [r4, #128]	@ 0x80
 800726c:	4860      	ldr	r0, [pc, #384]	@ (80073f0 <HAL_UART_IRQHandler+0x2f0>)
 800726e:	680a      	ldr	r2, [r1, #0]
 8007270:	4282      	cmp	r2, r0
 8007272:	d01e      	beq.n	80072b2 <HAL_UART_IRQHandler+0x1b2>
 8007274:	3018      	adds	r0, #24
 8007276:	4282      	cmp	r2, r0
 8007278:	d01b      	beq.n	80072b2 <HAL_UART_IRQHandler+0x1b2>
 800727a:	3018      	adds	r0, #24
 800727c:	4282      	cmp	r2, r0
 800727e:	d018      	beq.n	80072b2 <HAL_UART_IRQHandler+0x1b2>
 8007280:	3018      	adds	r0, #24
 8007282:	4282      	cmp	r2, r0
 8007284:	d015      	beq.n	80072b2 <HAL_UART_IRQHandler+0x1b2>
 8007286:	3018      	adds	r0, #24
 8007288:	4282      	cmp	r2, r0
 800728a:	d012      	beq.n	80072b2 <HAL_UART_IRQHandler+0x1b2>
 800728c:	3018      	adds	r0, #24
 800728e:	4282      	cmp	r2, r0
 8007290:	d00f      	beq.n	80072b2 <HAL_UART_IRQHandler+0x1b2>
 8007292:	3018      	adds	r0, #24
 8007294:	4282      	cmp	r2, r0
 8007296:	d00c      	beq.n	80072b2 <HAL_UART_IRQHandler+0x1b2>
 8007298:	3018      	adds	r0, #24
 800729a:	4282      	cmp	r2, r0
 800729c:	d009      	beq.n	80072b2 <HAL_UART_IRQHandler+0x1b2>
 800729e:	f500 7056 	add.w	r0, r0, #856	@ 0x358
 80072a2:	4282      	cmp	r2, r0
 80072a4:	d005      	beq.n	80072b2 <HAL_UART_IRQHandler+0x1b2>
 80072a6:	3018      	adds	r0, #24
 80072a8:	4282      	cmp	r2, r0
 80072aa:	d002      	beq.n	80072b2 <HAL_UART_IRQHandler+0x1b2>
 80072ac:	3018      	adds	r0, #24
 80072ae:	4282      	cmp	r2, r0
 80072b0:	d0ff      	beq.n	80072b2 <HAL_UART_IRQHandler+0x1b2>
 80072b2:	6852      	ldr	r2, [r2, #4]
 80072b4:	b292      	uxth	r2, r2
 80072b6:	2a00      	cmp	r2, #0
 80072b8:	d0c0      	beq.n	800723c <HAL_UART_IRQHandler+0x13c>
 80072ba:	f8b4 005c 	ldrh.w	r0, [r4, #92]	@ 0x5c
 80072be:	4290      	cmp	r0, r2
 80072c0:	d9bc      	bls.n	800723c <HAL_UART_IRQHandler+0x13c>
 80072c2:	f8a4 205e 	strh.w	r2, [r4, #94]	@ 0x5e
 80072c6:	69ca      	ldr	r2, [r1, #28]
 80072c8:	f5b2 7f80 	cmp.w	r2, #256	@ 0x100
 80072cc:	d02f      	beq.n	800732e <HAL_UART_IRQHandler+0x22e>
 80072ce:	e853 2f00 	ldrex	r2, [r3]
 80072d2:	f422 7280 	bic.w	r2, r2, #256	@ 0x100
 80072d6:	e843 2100 	strex	r1, r2, [r3]
 80072da:	2900      	cmp	r1, #0
 80072dc:	d1f7      	bne.n	80072ce <HAL_UART_IRQHandler+0x1ce>
 80072de:	f103 0208 	add.w	r2, r3, #8
 80072e2:	e852 2f00 	ldrex	r2, [r2]
 80072e6:	f022 0201 	bic.w	r2, r2, #1
 80072ea:	f103 0008 	add.w	r0, r3, #8
 80072ee:	e840 2100 	strex	r1, r2, [r0]
 80072f2:	2900      	cmp	r1, #0
 80072f4:	d1f3      	bne.n	80072de <HAL_UART_IRQHandler+0x1de>
 80072f6:	f103 0208 	add.w	r2, r3, #8
 80072fa:	e852 2f00 	ldrex	r2, [r2]
 80072fe:	f022 0240 	bic.w	r2, r2, #64	@ 0x40
 8007302:	f103 0008 	add.w	r0, r3, #8
 8007306:	e840 2100 	strex	r1, r2, [r0]
 800730a:	2900      	cmp	r1, #0
 800730c:	d1f3      	bne.n	80072f6 <HAL_UART_IRQHandler+0x1f6>
 800730e:	2220      	movs	r2, #32
 8007310:	f8c4 208c 	str.w	r2, [r4, #140]	@ 0x8c
 8007314:	66e1      	str	r1, [r4, #108]	@ 0x6c
 8007316:	e853 2f00 	ldrex	r2, [r3]
 800731a:	f022 0210 	bic.w	r2, r2, #16
 800731e:	e843 2100 	strex	r1, r2, [r3]
 8007322:	2900      	cmp	r1, #0
 8007324:	d1f7      	bne.n	8007316 <HAL_UART_IRQHandler+0x216>
 8007326:	f8d4 0080 	ldr.w	r0, [r4, #128]	@ 0x80
 800732a:	f7fb fdd3 	bl	8002ed4 <HAL_DMA_Abort>
 800732e:	2302      	movs	r3, #2
 8007330:	f8b4 105c 	ldrh.w	r1, [r4, #92]	@ 0x5c
 8007334:	6723      	str	r3, [r4, #112]	@ 0x70
 8007336:	f8b4 305e 	ldrh.w	r3, [r4, #94]	@ 0x5e
 800733a:	1ac9      	subs	r1, r1, r3
 800733c:	b289      	uxth	r1, r1
 800733e:	4620      	mov	r0, r4
 8007340:	f7f9 fd6a 	bl	8000e18 <HAL_UARTEx_RxEventCallback>
 8007344:	e77a      	b.n	800723c <HAL_UART_IRQHandler+0x13c>
 8007346:	f8b4 205e 	ldrh.w	r2, [r4, #94]	@ 0x5e
 800734a:	f8b4 005e 	ldrh.w	r0, [r4, #94]	@ 0x5e
 800734e:	f8b4 105c 	ldrh.w	r1, [r4, #92]	@ 0x5c
 8007352:	b292      	uxth	r2, r2
 8007354:	b280      	uxth	r0, r0
 8007356:	2800      	cmp	r0, #0
 8007358:	f43f af70 	beq.w	800723c <HAL_UART_IRQHandler+0x13c>
 800735c:	1a89      	subs	r1, r1, r2
 800735e:	b289      	uxth	r1, r1
 8007360:	2900      	cmp	r1, #0
 8007362:	f43f af6b 	beq.w	800723c <HAL_UART_IRQHandler+0x13c>
 8007366:	e853 2f00 	ldrex	r2, [r3]
 800736a:	f422 7290 	bic.w	r2, r2, #288	@ 0x120
 800736e:	e843 2000 	strex	r0, r2, [r3]
 8007372:	2800      	cmp	r0, #0
 8007374:	d1f7      	bne.n	8007366 <HAL_UART_IRQHandler+0x266>
 8007376:	4d1f      	ldr	r5, [pc, #124]	@ (80073f4 <HAL_UART_IRQHandler+0x2f4>)
 8007378:	f103 0208 	add.w	r2, r3, #8
 800737c:	e852 2f00 	ldrex	r2, [r2]
 8007380:	402a      	ands	r2, r5
 8007382:	f103 0608 	add.w	r6, r3, #8
 8007386:	e846 2000 	strex	r0, r2, [r6]
 800738a:	2800      	cmp	r0, #0
 800738c:	d1f4      	bne.n	8007378 <HAL_UART_IRQHandler+0x278>
 800738e:	2220      	movs	r2, #32
 8007390:	6760      	str	r0, [r4, #116]	@ 0x74
 8007392:	f8c4 208c 	str.w	r2, [r4, #140]	@ 0x8c
 8007396:	66e0      	str	r0, [r4, #108]	@ 0x6c
 8007398:	e853 2f00 	ldrex	r2, [r3]
 800739c:	f022 0210 	bic.w	r2, r2, #16
 80073a0:	e843 2000 	strex	r0, r2, [r3]
 80073a4:	2800      	cmp	r0, #0
 80073a6:	d1f7      	bne.n	8007398 <HAL_UART_IRQHandler+0x298>
 80073a8:	2302      	movs	r3, #2
 80073aa:	6723      	str	r3, [r4, #112]	@ 0x70
 80073ac:	e7c7      	b.n	800733e <HAL_UART_IRQHandler+0x23e>
 80073ae:	02cf      	lsls	r7, r1, #11
 80073b0:	d509      	bpl.n	80073c6 <HAL_UART_IRQHandler+0x2c6>
 80073b2:	026e      	lsls	r6, r5, #9
 80073b4:	d507      	bpl.n	80073c6 <HAL_UART_IRQHandler+0x2c6>
 80073b6:	f44f 1280 	mov.w	r2, #1048576	@ 0x100000
 80073ba:	4620      	mov	r0, r4
 80073bc:	621a      	str	r2, [r3, #32]
 80073be:	e8bd 41f0 	ldmia.w	sp!, {r4, r5, r6, r7, r8, lr}
 80073c2:	f000 bb77 	b.w	8007ab4 <HAL_UARTEx_WakeupCallback>
 80073c6:	0608      	lsls	r0, r1, #24
 80073c8:	d516      	bpl.n	80073f8 <HAL_UART_IRQHandler+0x2f8>
 80073ca:	f002 0080 	and.w	r0, r2, #128	@ 0x80
 80073ce:	f405 0500 	and.w	r5, r5, #8388608	@ 0x800000
 80073d2:	4328      	orrs	r0, r5
 80073d4:	d010      	beq.n	80073f8 <HAL_UART_IRQHandler+0x2f8>
 80073d6:	6fa3      	ldr	r3, [r4, #120]	@ 0x78
 80073d8:	2b00      	cmp	r3, #0
 80073da:	f43f af2f 	beq.w	800723c <HAL_UART_IRQHandler+0x13c>
 80073de:	4620      	mov	r0, r4
 80073e0:	e6a7      	b.n	8007132 <HAL_UART_IRQHandler+0x32>
 80073e2:	bf00      	nop
 80073e4:	10000001 	.word	0x10000001
 80073e8:	04000120 	.word	0x04000120
 80073ec:	080070ed 	.word	0x080070ed
 80073f0:	40020010 	.word	0x40020010
 80073f4:	effffffe 	.word	0xeffffffe
 80073f8:	064f      	lsls	r7, r1, #25
 80073fa:	d511      	bpl.n	8007420 <HAL_UART_IRQHandler+0x320>
 80073fc:	0656      	lsls	r6, r2, #25
 80073fe:	d50f      	bpl.n	8007420 <HAL_UART_IRQHandler+0x320>
 8007400:	e853 2f00 	ldrex	r2, [r3]
 8007404:	f022 0240 	bic.w	r2, r2, #64	@ 0x40
 8007408:	e843 2100 	strex	r1, r2, [r3]
 800740c:	2900      	cmp	r1, #0
 800740e:	d1f7      	bne.n	8007400 <HAL_UART_IRQHandler+0x300>
 8007410:	2320      	movs	r3, #32
 8007412:	4620      	mov	r0, r4
 8007414:	67a1      	str	r1, [r4, #120]	@ 0x78
 8007416:	f8c4 3088 	str.w	r3, [r4, #136]	@ 0x88
 800741a:	f7ff fe65 	bl	80070e8 <HAL_UART_TxCpltCallback>
 800741e:	e70d      	b.n	800723c <HAL_UART_IRQHandler+0x13c>
 8007420:	020d      	lsls	r5, r1, #8
 8007422:	d506      	bpl.n	8007432 <HAL_UART_IRQHandler+0x332>
 8007424:	0050      	lsls	r0, r2, #1
 8007426:	d504      	bpl.n	8007432 <HAL_UART_IRQHandler+0x332>
 8007428:	4620      	mov	r0, r4
 800742a:	e8bd 41f0 	ldmia.w	sp!, {r4, r5, r6, r7, r8, lr}
 800742e:	f000 bb43 	b.w	8007ab8 <HAL_UARTEx_TxFifoEmptyCallback>
 8007432:	01cb      	lsls	r3, r1, #7
 8007434:	f57f af02 	bpl.w	800723c <HAL_UART_IRQHandler+0x13c>
 8007438:	2a00      	cmp	r2, #0
 800743a:	f6bf aeff 	bge.w	800723c <HAL_UART_IRQHandler+0x13c>
 800743e:	4620      	mov	r0, r4
 8007440:	e8bd 41f0 	ldmia.w	sp!, {r4, r5, r6, r7, r8, lr}
 8007444:	f000 bb37 	b.w	8007ab6 <HAL_UARTEx_RxFifoFullCallback>

08007448 <UART_SetConfig>:
 8007448:	b530      	push	{r4, r5, lr}
 800744a:	4604      	mov	r4, r0
 800744c:	6803      	ldr	r3, [r0, #0]
 800744e:	69c0      	ldr	r0, [r0, #28]
 8007450:	b087      	sub	sp, #28
 8007452:	6921      	ldr	r1, [r4, #16]
 8007454:	68a2      	ldr	r2, [r4, #8]
 8007456:	681d      	ldr	r5, [r3, #0]
 8007458:	430a      	orrs	r2, r1
 800745a:	6961      	ldr	r1, [r4, #20]
 800745c:	430a      	orrs	r2, r1
 800745e:	499c      	ldr	r1, [pc, #624]	@ (80076d0 <UART_SetConfig+0x288>)
 8007460:	4302      	orrs	r2, r0
 8007462:	4029      	ands	r1, r5
 8007464:	430a      	orrs	r2, r1
 8007466:	68e1      	ldr	r1, [r4, #12]
 8007468:	601a      	str	r2, [r3, #0]
 800746a:	685a      	ldr	r2, [r3, #4]
 800746c:	f422 5240 	bic.w	r2, r2, #12288	@ 0x3000
 8007470:	430a      	orrs	r2, r1
 8007472:	69a1      	ldr	r1, [r4, #24]
 8007474:	605a      	str	r2, [r3, #4]
 8007476:	4a97      	ldr	r2, [pc, #604]	@ (80076d4 <UART_SetConfig+0x28c>)
 8007478:	4293      	cmp	r3, r2
 800747a:	bf1c      	itt	ne
 800747c:	6a22      	ldrne	r2, [r4, #32]
 800747e:	4311      	orrne	r1, r2
 8007480:	689a      	ldr	r2, [r3, #8]
 8007482:	f022 426e 	bic.w	r2, r2, #3992977408	@ 0xee000000
 8007486:	f422 6230 	bic.w	r2, r2, #2816	@ 0xb00
 800748a:	430a      	orrs	r2, r1
 800748c:	6a61      	ldr	r1, [r4, #36]	@ 0x24
 800748e:	609a      	str	r2, [r3, #8]
 8007490:	6ada      	ldr	r2, [r3, #44]	@ 0x2c
 8007492:	f022 020f 	bic.w	r2, r2, #15
 8007496:	430a      	orrs	r2, r1
 8007498:	62da      	str	r2, [r3, #44]	@ 0x2c
 800749a:	4a8f      	ldr	r2, [pc, #572]	@ (80076d8 <UART_SetConfig+0x290>)
 800749c:	4293      	cmp	r3, r2
 800749e:	d128      	bne.n	80074f2 <UART_SetConfig+0xaa>
 80074a0:	4b8e      	ldr	r3, [pc, #568]	@ (80076dc <UART_SetConfig+0x294>)
 80074a2:	6d5b      	ldr	r3, [r3, #84]	@ 0x54
 80074a4:	f003 0338 	and.w	r3, r3, #56	@ 0x38
 80074a8:	2b18      	cmp	r3, #24
 80074aa:	f000 812f 	beq.w	800770c <UART_SetConfig+0x2c4>
 80074ae:	d814      	bhi.n	80074da <UART_SetConfig+0x92>
 80074b0:	2b08      	cmp	r3, #8
 80074b2:	f000 8154 	beq.w	800775e <UART_SetConfig+0x316>
 80074b6:	2b10      	cmp	r3, #16
 80074b8:	f000 8102 	beq.w	80076c0 <UART_SetConfig+0x278>
 80074bc:	2b00      	cmp	r3, #0
 80074be:	f000 80f9 	beq.w	80076b4 <UART_SetConfig+0x26c>
 80074c2:	2380      	movs	r3, #128	@ 0x80
 80074c4:	f5b0 4f00 	cmp.w	r0, #32768	@ 0x8000
 80074c8:	f040 80b4 	bne.w	8007634 <UART_SetConfig+0x1ec>
 80074cc:	2b08      	cmp	r3, #8
 80074ce:	d846      	bhi.n	800755e <UART_SetConfig+0x116>
 80074d0:	4668      	mov	r0, sp
 80074d2:	f7fe fd89 	bl	8005fe8 <HAL_RCCEx_GetPLL2ClockFreq>
 80074d6:	9801      	ldr	r0, [sp, #4]
 80074d8:	e0e9      	b.n	80076ae <UART_SetConfig+0x266>
 80074da:	2b20      	cmp	r3, #32
 80074dc:	f000 80dd 	beq.w	800769a <UART_SetConfig+0x252>
 80074e0:	2b28      	cmp	r3, #40	@ 0x28
 80074e2:	d1ee      	bne.n	80074c2 <UART_SetConfig+0x7a>
 80074e4:	f5b0 4f00 	cmp.w	r0, #32768	@ 0x8000
 80074e8:	f000 811d 	beq.w	8007726 <UART_SetConfig+0x2de>
 80074ec:	f44f 4000 	mov.w	r0, #32768	@ 0x8000
 80074f0:	e0be      	b.n	8007670 <UART_SetConfig+0x228>
 80074f2:	4a7b      	ldr	r2, [pc, #492]	@ (80076e0 <UART_SetConfig+0x298>)
 80074f4:	4293      	cmp	r3, r2
 80074f6:	d115      	bne.n	8007524 <UART_SetConfig+0xdc>
 80074f8:	4b78      	ldr	r3, [pc, #480]	@ (80076dc <UART_SetConfig+0x294>)
 80074fa:	6d5b      	ldr	r3, [r3, #84]	@ 0x54
 80074fc:	f003 0307 	and.w	r3, r3, #7
 8007500:	2b05      	cmp	r3, #5
 8007502:	d82c      	bhi.n	800755e <UART_SetConfig+0x116>
 8007504:	a201      	add	r2, pc, #4	@ (adr r2, 800750c <UART_SetConfig+0xc4>)
 8007506:	f852 f023 	ldr.w	pc, [r2, r3, lsl #2]
 800750a:	bf00      	nop
 800750c:	080076a5 	.word	0x080076a5
 8007510:	08007631 	.word	0x08007631
 8007514:	080076c1 	.word	0x080076c1
 8007518:	0800770d 	.word	0x0800770d
 800751c:	0800769b 	.word	0x0800769b
 8007520:	080074e5 	.word	0x080074e5
 8007524:	4a6f      	ldr	r2, [pc, #444]	@ (80076e4 <UART_SetConfig+0x29c>)
 8007526:	4293      	cmp	r3, r2
 8007528:	d0e6      	beq.n	80074f8 <UART_SetConfig+0xb0>
 800752a:	4a6f      	ldr	r2, [pc, #444]	@ (80076e8 <UART_SetConfig+0x2a0>)
 800752c:	4293      	cmp	r3, r2
 800752e:	d0e3      	beq.n	80074f8 <UART_SetConfig+0xb0>
 8007530:	4a6e      	ldr	r2, [pc, #440]	@ (80076ec <UART_SetConfig+0x2a4>)
 8007532:	4293      	cmp	r3, r2
 8007534:	d0e0      	beq.n	80074f8 <UART_SetConfig+0xb0>
 8007536:	4a6e      	ldr	r2, [pc, #440]	@ (80076f0 <UART_SetConfig+0x2a8>)
 8007538:	4293      	cmp	r3, r2
 800753a:	d118      	bne.n	800756e <UART_SetConfig+0x126>
 800753c:	4b67      	ldr	r3, [pc, #412]	@ (80076dc <UART_SetConfig+0x294>)
 800753e:	6d5b      	ldr	r3, [r3, #84]	@ 0x54
 8007540:	f003 0338 	and.w	r3, r3, #56	@ 0x38
 8007544:	2b18      	cmp	r3, #24
 8007546:	f000 80e1 	beq.w	800770c <UART_SetConfig+0x2c4>
 800754a:	d80a      	bhi.n	8007562 <UART_SetConfig+0x11a>
 800754c:	2b08      	cmp	r3, #8
 800754e:	f000 8106 	beq.w	800775e <UART_SetConfig+0x316>
 8007552:	2b10      	cmp	r3, #16
 8007554:	f000 80b4 	beq.w	80076c0 <UART_SetConfig+0x278>
 8007558:	2b00      	cmp	r3, #0
 800755a:	f000 80ab 	beq.w	80076b4 <UART_SetConfig+0x26c>
 800755e:	2001      	movs	r0, #1
 8007560:	e049      	b.n	80075f6 <UART_SetConfig+0x1ae>
 8007562:	2b20      	cmp	r3, #32
 8007564:	f000 8099 	beq.w	800769a <UART_SetConfig+0x252>
 8007568:	2b28      	cmp	r3, #40	@ 0x28
 800756a:	d0bb      	beq.n	80074e4 <UART_SetConfig+0x9c>
 800756c:	e7f7      	b.n	800755e <UART_SetConfig+0x116>
 800756e:	4a61      	ldr	r2, [pc, #388]	@ (80076f4 <UART_SetConfig+0x2ac>)
 8007570:	4293      	cmp	r3, r2
 8007572:	d0c1      	beq.n	80074f8 <UART_SetConfig+0xb0>
 8007574:	4a60      	ldr	r2, [pc, #384]	@ (80076f8 <UART_SetConfig+0x2b0>)
 8007576:	4293      	cmp	r3, r2
 8007578:	d0be      	beq.n	80074f8 <UART_SetConfig+0xb0>
 800757a:	4a56      	ldr	r2, [pc, #344]	@ (80076d4 <UART_SetConfig+0x28c>)
 800757c:	4293      	cmp	r3, r2
 800757e:	d1ee      	bne.n	800755e <UART_SetConfig+0x116>
 8007580:	f502 320e 	add.w	r2, r2, #145408	@ 0x23800
 8007584:	6d93      	ldr	r3, [r2, #88]	@ 0x58
 8007586:	f003 0307 	and.w	r3, r3, #7
 800758a:	2b05      	cmp	r3, #5
 800758c:	d8e7      	bhi.n	800755e <UART_SetConfig+0x116>
 800758e:	e8df f003 	tbb	[pc, r3]
 8007592:	2b49      	.short	0x2b49
 8007594:	4c033f3a 	.word	0x4c033f3a
 8007598:	4858      	ldr	r0, [pc, #352]	@ (80076fc <UART_SetConfig+0x2b4>)
 800759a:	4b59      	ldr	r3, [pc, #356]	@ (8007700 <UART_SetConfig+0x2b8>)
 800759c:	6a62      	ldr	r2, [r4, #36]	@ 0x24
 800759e:	6865      	ldr	r5, [r4, #4]
 80075a0:	f833 2012 	ldrh.w	r2, [r3, r2, lsl #1]
 80075a4:	eb05 0145 	add.w	r1, r5, r5, lsl #1
 80075a8:	fbb0 f3f2 	udiv	r3, r0, r2
 80075ac:	4299      	cmp	r1, r3
 80075ae:	d8d6      	bhi.n	800755e <UART_SetConfig+0x116>
 80075b0:	ebb3 3f05 	cmp.w	r3, r5, lsl #12
 80075b4:	d8d3      	bhi.n	800755e <UART_SetConfig+0x116>
 80075b6:	2300      	movs	r3, #0
 80075b8:	4619      	mov	r1, r3
 80075ba:	f7f8 fe8d 	bl	80002d8 <__aeabi_uldivmod>
 80075be:	462a      	mov	r2, r5
 80075c0:	0209      	lsls	r1, r1, #8
 80075c2:	086b      	lsrs	r3, r5, #1
 80075c4:	ea41 6110 	orr.w	r1, r1, r0, lsr #24
 80075c8:	0200      	lsls	r0, r0, #8
 80075ca:	18c0      	adds	r0, r0, r3
 80075cc:	f04f 0300 	mov.w	r3, #0
 80075d0:	f141 0100 	adc.w	r1, r1, #0
 80075d4:	f7f8 fe80 	bl	80002d8 <__aeabi_uldivmod>
 80075d8:	4b4a      	ldr	r3, [pc, #296]	@ (8007704 <UART_SetConfig+0x2bc>)
 80075da:	f5a0 7240 	sub.w	r2, r0, #768	@ 0x300
 80075de:	429a      	cmp	r2, r3
 80075e0:	d8bd      	bhi.n	800755e <UART_SetConfig+0x116>
 80075e2:	6823      	ldr	r3, [r4, #0]
 80075e4:	60d8      	str	r0, [r3, #12]
 80075e6:	e005      	b.n	80075f4 <UART_SetConfig+0x1ac>
 80075e8:	4668      	mov	r0, sp
 80075ea:	f7fe fcfd 	bl	8005fe8 <HAL_RCCEx_GetPLL2ClockFreq>
 80075ee:	9801      	ldr	r0, [sp, #4]
 80075f0:	2800      	cmp	r0, #0
 80075f2:	d1d2      	bne.n	800759a <UART_SetConfig+0x152>
 80075f4:	2000      	movs	r0, #0
 80075f6:	f04f 1301 	mov.w	r3, #65537	@ 0x10001
 80075fa:	66a3      	str	r3, [r4, #104]	@ 0x68
 80075fc:	2300      	movs	r3, #0
 80075fe:	e9c4 331d 	strd	r3, r3, [r4, #116]	@ 0x74
 8007602:	b007      	add	sp, #28
 8007604:	bd30      	pop	{r4, r5, pc}
 8007606:	a803      	add	r0, sp, #12
 8007608:	f7fe fd98 	bl	800613c <HAL_RCCEx_GetPLL3ClockFreq>
 800760c:	9804      	ldr	r0, [sp, #16]
 800760e:	e7ef      	b.n	80075f0 <UART_SetConfig+0x1a8>
 8007610:	6813      	ldr	r3, [r2, #0]
 8007612:	483d      	ldr	r0, [pc, #244]	@ (8007708 <UART_SetConfig+0x2c0>)
 8007614:	f013 0f20 	tst.w	r3, #32
 8007618:	d0bf      	beq.n	800759a <UART_SetConfig+0x152>
 800761a:	6813      	ldr	r3, [r2, #0]
 800761c:	f3c3 03c1 	ubfx	r3, r3, #3, #2
 8007620:	40d8      	lsrs	r0, r3
 8007622:	e7ba      	b.n	800759a <UART_SetConfig+0x152>
 8007624:	f7fe fcce 	bl	8005fc4 <HAL_RCCEx_GetD3PCLK1Freq>
 8007628:	e7e2      	b.n	80075f0 <UART_SetConfig+0x1a8>
 800762a:	f44f 4000 	mov.w	r0, #32768	@ 0x8000
 800762e:	e7b4      	b.n	800759a <UART_SetConfig+0x152>
 8007630:	2304      	movs	r3, #4
 8007632:	e747      	b.n	80074c4 <UART_SetConfig+0x7c>
 8007634:	2b08      	cmp	r3, #8
 8007636:	d892      	bhi.n	800755e <UART_SetConfig+0x116>
 8007638:	4668      	mov	r0, sp
 800763a:	f7fe fcd5 	bl	8005fe8 <HAL_RCCEx_GetPLL2ClockFreq>
 800763e:	9801      	ldr	r0, [sp, #4]
 8007640:	e001      	b.n	8007646 <UART_SetConfig+0x1fe>
 8007642:	f7fd fec3 	bl	80053cc <HAL_RCC_GetPCLK1Freq>
 8007646:	2800      	cmp	r0, #0
 8007648:	d0d4      	beq.n	80075f4 <UART_SetConfig+0x1ac>
 800764a:	e011      	b.n	8007670 <UART_SetConfig+0x228>
 800764c:	f7fd fed0 	bl	80053f0 <HAL_RCC_GetPCLK2Freq>
 8007650:	e7f9      	b.n	8007646 <UART_SetConfig+0x1fe>
 8007652:	a803      	add	r0, sp, #12
 8007654:	f7fe fd72 	bl	800613c <HAL_RCCEx_GetPLL3ClockFreq>
 8007658:	9804      	ldr	r0, [sp, #16]
 800765a:	e7f4      	b.n	8007646 <UART_SetConfig+0x1fe>
 800765c:	4b1f      	ldr	r3, [pc, #124]	@ (80076dc <UART_SetConfig+0x294>)
 800765e:	482a      	ldr	r0, [pc, #168]	@ (8007708 <UART_SetConfig+0x2c0>)
 8007660:	681a      	ldr	r2, [r3, #0]
 8007662:	f012 0f20 	tst.w	r2, #32
 8007666:	d003      	beq.n	8007670 <UART_SetConfig+0x228>
 8007668:	681b      	ldr	r3, [r3, #0]
 800766a:	f3c3 03c1 	ubfx	r3, r3, #3, #2
 800766e:	40d8      	lsrs	r0, r3
 8007670:	6a61      	ldr	r1, [r4, #36]	@ 0x24
 8007672:	4b23      	ldr	r3, [pc, #140]	@ (8007700 <UART_SetConfig+0x2b8>)
 8007674:	6862      	ldr	r2, [r4, #4]
 8007676:	f833 3011 	ldrh.w	r3, [r3, r1, lsl #1]
 800767a:	fbb0 f3f3 	udiv	r3, r0, r3
 800767e:	eb03 0352 	add.w	r3, r3, r2, lsr #1
 8007682:	fbb3 f3f2 	udiv	r3, r3, r2
 8007686:	f64f 72ef 	movw	r2, #65519	@ 0xffef
 800768a:	f1a3 0110 	sub.w	r1, r3, #16
 800768e:	4291      	cmp	r1, r2
 8007690:	f63f af65 	bhi.w	800755e <UART_SetConfig+0x116>
 8007694:	6822      	ldr	r2, [r4, #0]
 8007696:	60d3      	str	r3, [r2, #12]
 8007698:	e7ac      	b.n	80075f4 <UART_SetConfig+0x1ac>
 800769a:	f5b0 4f00 	cmp.w	r0, #32768	@ 0x8000
 800769e:	4817      	ldr	r0, [pc, #92]	@ (80076fc <UART_SetConfig+0x2b4>)
 80076a0:	d1e6      	bne.n	8007670 <UART_SetConfig+0x228>
 80076a2:	e040      	b.n	8007726 <UART_SetConfig+0x2de>
 80076a4:	f5b0 4f00 	cmp.w	r0, #32768	@ 0x8000
 80076a8:	d1cb      	bne.n	8007642 <UART_SetConfig+0x1fa>
 80076aa:	f7fd fe8f 	bl	80053cc <HAL_RCC_GetPCLK1Freq>
 80076ae:	2800      	cmp	r0, #0
 80076b0:	d0a0      	beq.n	80075f4 <UART_SetConfig+0x1ac>
 80076b2:	e038      	b.n	8007726 <UART_SetConfig+0x2de>
 80076b4:	f5b0 4f00 	cmp.w	r0, #32768	@ 0x8000
 80076b8:	d1c8      	bne.n	800764c <UART_SetConfig+0x204>
 80076ba:	f7fd fe99 	bl	80053f0 <HAL_RCC_GetPCLK2Freq>
 80076be:	e7f6      	b.n	80076ae <UART_SetConfig+0x266>
 80076c0:	f5b0 4f00 	cmp.w	r0, #32768	@ 0x8000
 80076c4:	d1c5      	bne.n	8007652 <UART_SetConfig+0x20a>
 80076c6:	a803      	add	r0, sp, #12
 80076c8:	f7fe fd38 	bl	800613c <HAL_RCCEx_GetPLL3ClockFreq>
 80076cc:	9804      	ldr	r0, [sp, #16]
 80076ce:	e7ee      	b.n	80076ae <UART_SetConfig+0x266>
 80076d0:	cfff69f3 	.word	0xcfff69f3
 80076d4:	58000c00 	.word	0x58000c00
 80076d8:	40011000 	.word	0x40011000
 80076dc:	58024400 	.word	0x58024400
 80076e0:	40004400 	.word	0x40004400
 80076e4:	40004800 	.word	0x40004800
 80076e8:	40004c00 	.word	0x40004c00
 80076ec:	40005000 	.word	0x40005000
 80076f0:	40011400 	.word	0x40011400
 80076f4:	40007800 	.word	0x40007800
 80076f8:	40007c00 	.word	0x40007c00
 80076fc:	003d0900 	.word	0x003d0900
 8007700:	08007df8 	.word	0x08007df8
 8007704:	000ffcff 	.word	0x000ffcff
 8007708:	03d09000 	.word	0x03d09000
 800770c:	f5b0 4f00 	cmp.w	r0, #32768	@ 0x8000
 8007710:	d1a4      	bne.n	800765c <UART_SetConfig+0x214>
 8007712:	4b15      	ldr	r3, [pc, #84]	@ (8007768 <UART_SetConfig+0x320>)
 8007714:	4815      	ldr	r0, [pc, #84]	@ (800776c <UART_SetConfig+0x324>)
 8007716:	681a      	ldr	r2, [r3, #0]
 8007718:	f012 0f20 	tst.w	r2, #32
 800771c:	d003      	beq.n	8007726 <UART_SetConfig+0x2de>
 800771e:	681b      	ldr	r3, [r3, #0]
 8007720:	f3c3 03c1 	ubfx	r3, r3, #3, #2
 8007724:	40d8      	lsrs	r0, r3
 8007726:	4b12      	ldr	r3, [pc, #72]	@ (8007770 <UART_SetConfig+0x328>)
 8007728:	6a62      	ldr	r2, [r4, #36]	@ 0x24
 800772a:	6861      	ldr	r1, [r4, #4]
 800772c:	f833 2012 	ldrh.w	r2, [r3, r2, lsl #1]
 8007730:	084b      	lsrs	r3, r1, #1
 8007732:	fbb0 f2f2 	udiv	r2, r0, r2
 8007736:	eb03 0342 	add.w	r3, r3, r2, lsl #1
 800773a:	f64f 72ef 	movw	r2, #65519	@ 0xffef
 800773e:	fbb3 f3f1 	udiv	r3, r3, r1
 8007742:	f1a3 0110 	sub.w	r1, r3, #16
 8007746:	4291      	cmp	r1, r2
 8007748:	f63f af09 	bhi.w	800755e <UART_SetConfig+0x116>
 800774c:	f023 020f 	bic.w	r2, r3, #15
 8007750:	f3c3 0342 	ubfx	r3, r3, #1, #3
 8007754:	6821      	ldr	r1, [r4, #0]
 8007756:	b292      	uxth	r2, r2
 8007758:	4313      	orrs	r3, r2
 800775a:	60cb      	str	r3, [r1, #12]
 800775c:	e74a      	b.n	80075f4 <UART_SetConfig+0x1ac>
 800775e:	f5b0 4f00 	cmp.w	r0, #32768	@ 0x8000
 8007762:	f47f af69 	bne.w	8007638 <UART_SetConfig+0x1f0>
 8007766:	e6b3      	b.n	80074d0 <UART_SetConfig+0x88>
 8007768:	58024400 	.word	0x58024400
 800776c:	03d09000 	.word	0x03d09000
 8007770:	08007df8 	.word	0x08007df8

08007774 <UART_AdvFeatureConfig>:
 8007774:	6a83      	ldr	r3, [r0, #40]	@ 0x28
 8007776:	071a      	lsls	r2, r3, #28
 8007778:	b510      	push	{r4, lr}
 800777a:	d506      	bpl.n	800778a <UART_AdvFeatureConfig+0x16>
 800777c:	6801      	ldr	r1, [r0, #0]
 800777e:	6b84      	ldr	r4, [r0, #56]	@ 0x38
 8007780:	684a      	ldr	r2, [r1, #4]
 8007782:	f422 4200 	bic.w	r2, r2, #32768	@ 0x8000
 8007786:	4322      	orrs	r2, r4
 8007788:	604a      	str	r2, [r1, #4]
 800778a:	07dc      	lsls	r4, r3, #31
 800778c:	d506      	bpl.n	800779c <UART_AdvFeatureConfig+0x28>
 800778e:	6801      	ldr	r1, [r0, #0]
 8007790:	6ac4      	ldr	r4, [r0, #44]	@ 0x2c
 8007792:	684a      	ldr	r2, [r1, #4]
 8007794:	f422 3200 	bic.w	r2, r2, #131072	@ 0x20000
 8007798:	4322      	orrs	r2, r4
 800779a:	604a      	str	r2, [r1, #4]
 800779c:	0799      	lsls	r1, r3, #30
 800779e:	d506      	bpl.n	80077ae <UART_AdvFeatureConfig+0x3a>
 80077a0:	6801      	ldr	r1, [r0, #0]
 80077a2:	6b04      	ldr	r4, [r0, #48]	@ 0x30
 80077a4:	684a      	ldr	r2, [r1, #4]
 80077a6:	f422 3280 	bic.w	r2, r2, #65536	@ 0x10000
 80077aa:	4322      	orrs	r2, r4
 80077ac:	604a      	str	r2, [r1, #4]
 80077ae:	075a      	lsls	r2, r3, #29
 80077b0:	d506      	bpl.n	80077c0 <UART_AdvFeatureConfig+0x4c>
 80077b2:	6801      	ldr	r1, [r0, #0]
 80077b4:	6b44      	ldr	r4, [r0, #52]	@ 0x34
 80077b6:	684a      	ldr	r2, [r1, #4]
 80077b8:	f422 2280 	bic.w	r2, r2, #262144	@ 0x40000
 80077bc:	4322      	orrs	r2, r4
 80077be:	604a      	str	r2, [r1, #4]
 80077c0:	06dc      	lsls	r4, r3, #27
 80077c2:	d506      	bpl.n	80077d2 <UART_AdvFeatureConfig+0x5e>
 80077c4:	6801      	ldr	r1, [r0, #0]
 80077c6:	6bc4      	ldr	r4, [r0, #60]	@ 0x3c
 80077c8:	688a      	ldr	r2, [r1, #8]
 80077ca:	f422 5280 	bic.w	r2, r2, #4096	@ 0x1000
 80077ce:	4322      	orrs	r2, r4
 80077d0:	608a      	str	r2, [r1, #8]
 80077d2:	0699      	lsls	r1, r3, #26
 80077d4:	d506      	bpl.n	80077e4 <UART_AdvFeatureConfig+0x70>
 80077d6:	6801      	ldr	r1, [r0, #0]
 80077d8:	6c04      	ldr	r4, [r0, #64]	@ 0x40
 80077da:	688a      	ldr	r2, [r1, #8]
 80077dc:	f422 5200 	bic.w	r2, r2, #8192	@ 0x2000
 80077e0:	4322      	orrs	r2, r4
 80077e2:	608a      	str	r2, [r1, #8]
 80077e4:	065a      	lsls	r2, r3, #25
 80077e6:	d510      	bpl.n	800780a <UART_AdvFeatureConfig+0x96>
 80077e8:	6801      	ldr	r1, [r0, #0]
 80077ea:	6c44      	ldr	r4, [r0, #68]	@ 0x44
 80077ec:	684a      	ldr	r2, [r1, #4]
 80077ee:	f5b4 1f80 	cmp.w	r4, #1048576	@ 0x100000
 80077f2:	f422 1280 	bic.w	r2, r2, #1048576	@ 0x100000
 80077f6:	ea42 0204 	orr.w	r2, r2, r4
 80077fa:	604a      	str	r2, [r1, #4]
 80077fc:	d105      	bne.n	800780a <UART_AdvFeatureConfig+0x96>
 80077fe:	684a      	ldr	r2, [r1, #4]
 8007800:	6c84      	ldr	r4, [r0, #72]	@ 0x48
 8007802:	f422 02c0 	bic.w	r2, r2, #6291456	@ 0x600000
 8007806:	4322      	orrs	r2, r4
 8007808:	604a      	str	r2, [r1, #4]
 800780a:	061b      	lsls	r3, r3, #24
 800780c:	d506      	bpl.n	800781c <UART_AdvFeatureConfig+0xa8>
 800780e:	6802      	ldr	r2, [r0, #0]
 8007810:	6cc1      	ldr	r1, [r0, #76]	@ 0x4c
 8007812:	6853      	ldr	r3, [r2, #4]
 8007814:	f423 2300 	bic.w	r3, r3, #524288	@ 0x80000
 8007818:	430b      	orrs	r3, r1
 800781a:	6053      	str	r3, [r2, #4]
 800781c:	bd10      	pop	{r4, pc}

0800781e <UART_WaitOnFlagUntilTimeout>:
 800781e:	e92d 43f8 	stmdb	sp!, {r3, r4, r5, r6, r7, r8, r9, lr}
 8007822:	f8dd 9020 	ldr.w	r9, [sp, #32]
 8007826:	4604      	mov	r4, r0
 8007828:	460d      	mov	r5, r1
 800782a:	4617      	mov	r7, r2
 800782c:	4698      	mov	r8, r3
 800782e:	6822      	ldr	r2, [r4, #0]
 8007830:	69d3      	ldr	r3, [r2, #28]
 8007832:	ea35 0303 	bics.w	r3, r5, r3
 8007836:	bf0c      	ite	eq
 8007838:	2301      	moveq	r3, #1
 800783a:	2300      	movne	r3, #0
 800783c:	42bb      	cmp	r3, r7
 800783e:	d001      	beq.n	8007844 <UART_WaitOnFlagUntilTimeout+0x26>
 8007840:	2000      	movs	r0, #0
 8007842:	e022      	b.n	800788a <UART_WaitOnFlagUntilTimeout+0x6c>
 8007844:	f1b9 3fff 	cmp.w	r9, #4294967295
 8007848:	d0f2      	beq.n	8007830 <UART_WaitOnFlagUntilTimeout+0x12>
 800784a:	f7fa f8e9 	bl	8001a20 <HAL_GetTick>
 800784e:	eba0 0008 	sub.w	r0, r0, r8
 8007852:	4548      	cmp	r0, r9
 8007854:	d829      	bhi.n	80078aa <UART_WaitOnFlagUntilTimeout+0x8c>
 8007856:	f1b9 0f00 	cmp.w	r9, #0
 800785a:	d026      	beq.n	80078aa <UART_WaitOnFlagUntilTimeout+0x8c>
 800785c:	6821      	ldr	r1, [r4, #0]
 800785e:	680b      	ldr	r3, [r1, #0]
 8007860:	075a      	lsls	r2, r3, #29
 8007862:	d5e4      	bpl.n	800782e <UART_WaitOnFlagUntilTimeout+0x10>
 8007864:	2d80      	cmp	r5, #128	@ 0x80
 8007866:	d0e2      	beq.n	800782e <UART_WaitOnFlagUntilTimeout+0x10>
 8007868:	2d40      	cmp	r5, #64	@ 0x40
 800786a:	d0e0      	beq.n	800782e <UART_WaitOnFlagUntilTimeout+0x10>
 800786c:	69ce      	ldr	r6, [r1, #28]
 800786e:	f016 0608 	ands.w	r6, r6, #8
 8007872:	d00c      	beq.n	800788e <UART_WaitOnFlagUntilTimeout+0x70>
 8007874:	2508      	movs	r5, #8
 8007876:	4620      	mov	r0, r4
 8007878:	620d      	str	r5, [r1, #32]
 800787a:	f7ff fc09 	bl	8007090 <UART_EndRxTransfer>
 800787e:	2300      	movs	r3, #0
 8007880:	2001      	movs	r0, #1
 8007882:	f8c4 5090 	str.w	r5, [r4, #144]	@ 0x90
 8007886:	f884 3084 	strb.w	r3, [r4, #132]	@ 0x84
 800788a:	e8bd 83f8 	ldmia.w	sp!, {r3, r4, r5, r6, r7, r8, r9, pc}
 800788e:	69cb      	ldr	r3, [r1, #28]
 8007890:	051b      	lsls	r3, r3, #20
 8007892:	d5cc      	bpl.n	800782e <UART_WaitOnFlagUntilTimeout+0x10>
 8007894:	f44f 6300 	mov.w	r3, #2048	@ 0x800
 8007898:	4620      	mov	r0, r4
 800789a:	620b      	str	r3, [r1, #32]
 800789c:	f7ff fbf8 	bl	8007090 <UART_EndRxTransfer>
 80078a0:	2320      	movs	r3, #32
 80078a2:	f884 6084 	strb.w	r6, [r4, #132]	@ 0x84
 80078a6:	f8c4 3090 	str.w	r3, [r4, #144]	@ 0x90
 80078aa:	2003      	movs	r0, #3
 80078ac:	e7ed      	b.n	800788a <UART_WaitOnFlagUntilTimeout+0x6c>

080078ae <HAL_UART_Transmit>:
 80078ae:	e92d 43f7 	stmdb	sp!, {r0, r1, r2, r4, r5, r6, r7, r8, r9, lr}
 80078b2:	4698      	mov	r8, r3
 80078b4:	f8d0 3088 	ldr.w	r3, [r0, #136]	@ 0x88
 80078b8:	4604      	mov	r4, r0
 80078ba:	460e      	mov	r6, r1
 80078bc:	2b20      	cmp	r3, #32
 80078be:	4617      	mov	r7, r2
 80078c0:	d146      	bne.n	8007950 <HAL_UART_Transmit+0xa2>
 80078c2:	2900      	cmp	r1, #0
 80078c4:	d046      	beq.n	8007954 <HAL_UART_Transmit+0xa6>
 80078c6:	2a00      	cmp	r2, #0
 80078c8:	d044      	beq.n	8007954 <HAL_UART_Transmit+0xa6>
 80078ca:	2321      	movs	r3, #33	@ 0x21
 80078cc:	2500      	movs	r5, #0
 80078ce:	f8c0 5090 	str.w	r5, [r0, #144]	@ 0x90
 80078d2:	f8c0 3088 	str.w	r3, [r0, #136]	@ 0x88
 80078d6:	f7fa f8a3 	bl	8001a20 <HAL_GetTick>
 80078da:	68a3      	ldr	r3, [r4, #8]
 80078dc:	4681      	mov	r9, r0
 80078de:	f8a4 7054 	strh.w	r7, [r4, #84]	@ 0x54
 80078e2:	f5b3 5f80 	cmp.w	r3, #4096	@ 0x1000
 80078e6:	f8a4 7056 	strh.w	r7, [r4, #86]	@ 0x56
 80078ea:	d103      	bne.n	80078f4 <HAL_UART_Transmit+0x46>
 80078ec:	6923      	ldr	r3, [r4, #16]
 80078ee:	b90b      	cbnz	r3, 80078f4 <HAL_UART_Transmit+0x46>
 80078f0:	4635      	mov	r5, r6
 80078f2:	461e      	mov	r6, r3
 80078f4:	f8b4 2056 	ldrh.w	r2, [r4, #86]	@ 0x56
 80078f8:	464b      	mov	r3, r9
 80078fa:	f8cd 8000 	str.w	r8, [sp]
 80078fe:	b292      	uxth	r2, r2
 8007900:	b942      	cbnz	r2, 8007914 <HAL_UART_Transmit+0x66>
 8007902:	2140      	movs	r1, #64	@ 0x40
 8007904:	4620      	mov	r0, r4
 8007906:	f7ff ff8a 	bl	800781e <UART_WaitOnFlagUntilTimeout>
 800790a:	2320      	movs	r3, #32
 800790c:	b948      	cbnz	r0, 8007922 <HAL_UART_Transmit+0x74>
 800790e:	f8c4 3088 	str.w	r3, [r4, #136]	@ 0x88
 8007912:	e009      	b.n	8007928 <HAL_UART_Transmit+0x7a>
 8007914:	2200      	movs	r2, #0
 8007916:	2180      	movs	r1, #128	@ 0x80
 8007918:	4620      	mov	r0, r4
 800791a:	f7ff ff80 	bl	800781e <UART_WaitOnFlagUntilTimeout>
 800791e:	b130      	cbz	r0, 800792e <HAL_UART_Transmit+0x80>
 8007920:	2320      	movs	r3, #32
 8007922:	2003      	movs	r0, #3
 8007924:	f8c4 3088 	str.w	r3, [r4, #136]	@ 0x88
 8007928:	b003      	add	sp, #12
 800792a:	e8bd 83f0 	ldmia.w	sp!, {r4, r5, r6, r7, r8, r9, pc}
 800792e:	6822      	ldr	r2, [r4, #0]
 8007930:	b95e      	cbnz	r6, 800794a <HAL_UART_Transmit+0x9c>
 8007932:	f835 3b02 	ldrh.w	r3, [r5], #2
 8007936:	f3c3 0308 	ubfx	r3, r3, #0, #9
 800793a:	6293      	str	r3, [r2, #40]	@ 0x28
 800793c:	f8b4 2056 	ldrh.w	r2, [r4, #86]	@ 0x56
 8007940:	3a01      	subs	r2, #1
 8007942:	b292      	uxth	r2, r2
 8007944:	f8a4 2056 	strh.w	r2, [r4, #86]	@ 0x56
 8007948:	e7d4      	b.n	80078f4 <HAL_UART_Transmit+0x46>
 800794a:	f816 3b01 	ldrb.w	r3, [r6], #1
 800794e:	e7f4      	b.n	800793a <HAL_UART_Transmit+0x8c>
 8007950:	2002      	movs	r0, #2
 8007952:	e7e9      	b.n	8007928 <HAL_UART_Transmit+0x7a>
 8007954:	2001      	movs	r0, #1
 8007956:	e7e7      	b.n	8007928 <HAL_UART_Transmit+0x7a>

08007958 <UART_CheckIdleState>:
 8007958:	b573      	push	{r0, r1, r4, r5, r6, lr}
 800795a:	2600      	movs	r6, #0
 800795c:	4604      	mov	r4, r0
 800795e:	f8c0 6090 	str.w	r6, [r0, #144]	@ 0x90
 8007962:	f7fa f85d 	bl	8001a20 <HAL_GetTick>
 8007966:	6823      	ldr	r3, [r4, #0]
 8007968:	4605      	mov	r5, r0
 800796a:	681b      	ldr	r3, [r3, #0]
 800796c:	071a      	lsls	r2, r3, #28
 800796e:	d51c      	bpl.n	80079aa <UART_CheckIdleState+0x52>
 8007970:	f06f 437e 	mvn.w	r3, #4261412864	@ 0xfe000000
 8007974:	4632      	mov	r2, r6
 8007976:	f44f 1100 	mov.w	r1, #2097152	@ 0x200000
 800797a:	9300      	str	r3, [sp, #0]
 800797c:	4603      	mov	r3, r0
 800797e:	4620      	mov	r0, r4
 8007980:	f7ff ff4d 	bl	800781e <UART_WaitOnFlagUntilTimeout>
 8007984:	b188      	cbz	r0, 80079aa <UART_CheckIdleState+0x52>
 8007986:	6822      	ldr	r2, [r4, #0]
 8007988:	e852 3f00 	ldrex	r3, [r2]
 800798c:	f023 0380 	bic.w	r3, r3, #128	@ 0x80
 8007990:	e842 3100 	strex	r1, r3, [r2]
 8007994:	2900      	cmp	r1, #0
 8007996:	d1f6      	bne.n	8007986 <UART_CheckIdleState+0x2e>
 8007998:	2320      	movs	r3, #32
 800799a:	f8c4 3088 	str.w	r3, [r4, #136]	@ 0x88
 800799e:	2003      	movs	r0, #3
 80079a0:	2300      	movs	r3, #0
 80079a2:	f884 3084 	strb.w	r3, [r4, #132]	@ 0x84
 80079a6:	b002      	add	sp, #8
 80079a8:	bd70      	pop	{r4, r5, r6, pc}
 80079aa:	6823      	ldr	r3, [r4, #0]
 80079ac:	681b      	ldr	r3, [r3, #0]
 80079ae:	075b      	lsls	r3, r3, #29
 80079b0:	d524      	bpl.n	80079fc <UART_CheckIdleState+0xa4>
 80079b2:	f06f 437e 	mvn.w	r3, #4261412864	@ 0xfe000000
 80079b6:	2200      	movs	r2, #0
 80079b8:	f44f 0180 	mov.w	r1, #4194304	@ 0x400000
 80079bc:	4620      	mov	r0, r4
 80079be:	9300      	str	r3, [sp, #0]
 80079c0:	462b      	mov	r3, r5
 80079c2:	f7ff ff2c 	bl	800781e <UART_WaitOnFlagUntilTimeout>
 80079c6:	b1c8      	cbz	r0, 80079fc <UART_CheckIdleState+0xa4>
 80079c8:	6822      	ldr	r2, [r4, #0]
 80079ca:	e852 3f00 	ldrex	r3, [r2]
 80079ce:	f423 7390 	bic.w	r3, r3, #288	@ 0x120
 80079d2:	e842 3100 	strex	r1, r3, [r2]
 80079d6:	6822      	ldr	r2, [r4, #0]
 80079d8:	2900      	cmp	r1, #0
 80079da:	d1f5      	bne.n	80079c8 <UART_CheckIdleState+0x70>
 80079dc:	f102 0308 	add.w	r3, r2, #8
 80079e0:	e853 3f00 	ldrex	r3, [r3]
 80079e4:	f023 0301 	bic.w	r3, r3, #1
 80079e8:	f102 0008 	add.w	r0, r2, #8
 80079ec:	e840 3100 	strex	r1, r3, [r0]
 80079f0:	2900      	cmp	r1, #0
 80079f2:	d1f3      	bne.n	80079dc <UART_CheckIdleState+0x84>
 80079f4:	2320      	movs	r3, #32
 80079f6:	f8c4 308c 	str.w	r3, [r4, #140]	@ 0x8c
 80079fa:	e7d0      	b.n	800799e <UART_CheckIdleState+0x46>
 80079fc:	2320      	movs	r3, #32
 80079fe:	2000      	movs	r0, #0
 8007a00:	f8c4 3088 	str.w	r3, [r4, #136]	@ 0x88
 8007a04:	f8c4 308c 	str.w	r3, [r4, #140]	@ 0x8c
 8007a08:	66e0      	str	r0, [r4, #108]	@ 0x6c
 8007a0a:	6720      	str	r0, [r4, #112]	@ 0x70
 8007a0c:	e7c8      	b.n	80079a0 <UART_CheckIdleState+0x48>

08007a0e <HAL_UART_Init>:
 8007a0e:	b510      	push	{r4, lr}
 8007a10:	4604      	mov	r4, r0
 8007a12:	b350      	cbz	r0, 8007a6a <HAL_UART_Init+0x5c>
 8007a14:	f8d0 3088 	ldr.w	r3, [r0, #136]	@ 0x88
 8007a18:	b91b      	cbnz	r3, 8007a22 <HAL_UART_Init+0x14>
 8007a1a:	f880 3084 	strb.w	r3, [r0, #132]	@ 0x84
 8007a1e:	f7f9 fd9b 	bl	8001558 <HAL_UART_MspInit>
 8007a22:	2324      	movs	r3, #36	@ 0x24
 8007a24:	6822      	ldr	r2, [r4, #0]
 8007a26:	f8c4 3088 	str.w	r3, [r4, #136]	@ 0x88
 8007a2a:	6813      	ldr	r3, [r2, #0]
 8007a2c:	f023 0301 	bic.w	r3, r3, #1
 8007a30:	6013      	str	r3, [r2, #0]
 8007a32:	6aa3      	ldr	r3, [r4, #40]	@ 0x28
 8007a34:	b113      	cbz	r3, 8007a3c <HAL_UART_Init+0x2e>
 8007a36:	4620      	mov	r0, r4
 8007a38:	f7ff fe9c 	bl	8007774 <UART_AdvFeatureConfig>
 8007a3c:	4620      	mov	r0, r4
 8007a3e:	f7ff fd03 	bl	8007448 <UART_SetConfig>
 8007a42:	2801      	cmp	r0, #1
 8007a44:	d011      	beq.n	8007a6a <HAL_UART_Init+0x5c>
 8007a46:	6823      	ldr	r3, [r4, #0]
 8007a48:	4620      	mov	r0, r4
 8007a4a:	685a      	ldr	r2, [r3, #4]
 8007a4c:	f422 4290 	bic.w	r2, r2, #18432	@ 0x4800
 8007a50:	605a      	str	r2, [r3, #4]
 8007a52:	689a      	ldr	r2, [r3, #8]
 8007a54:	f022 022a 	bic.w	r2, r2, #42	@ 0x2a
 8007a58:	609a      	str	r2, [r3, #8]
 8007a5a:	681a      	ldr	r2, [r3, #0]
 8007a5c:	f042 0201 	orr.w	r2, r2, #1
 8007a60:	e8bd 4010 	ldmia.w	sp!, {r4, lr}
 8007a64:	601a      	str	r2, [r3, #0]
 8007a66:	f7ff bf77 	b.w	8007958 <UART_CheckIdleState>
 8007a6a:	2001      	movs	r0, #1
 8007a6c:	bd10      	pop	{r4, pc}
	...

08007a70 <UARTEx_SetNbDataToProcess>:
 8007a70:	6e43      	ldr	r3, [r0, #100]	@ 0x64
 8007a72:	b530      	push	{r4, r5, lr}
 8007a74:	b92b      	cbnz	r3, 8007a82 <UARTEx_SetNbDataToProcess+0x12>
 8007a76:	2301      	movs	r3, #1
 8007a78:	f8a0 306a 	strh.w	r3, [r0, #106]	@ 0x6a
 8007a7c:	f8a0 3068 	strh.w	r3, [r0, #104]	@ 0x68
 8007a80:	bd30      	pop	{r4, r5, pc}
 8007a82:	6803      	ldr	r3, [r0, #0]
 8007a84:	4d09      	ldr	r5, [pc, #36]	@ (8007aac <UARTEx_SetNbDataToProcess+0x3c>)
 8007a86:	689a      	ldr	r2, [r3, #8]
 8007a88:	6899      	ldr	r1, [r3, #8]
 8007a8a:	4c09      	ldr	r4, [pc, #36]	@ (8007ab0 <UARTEx_SetNbDataToProcess+0x40>)
 8007a8c:	f3c2 6242 	ubfx	r2, r2, #25, #3
 8007a90:	0f49      	lsrs	r1, r1, #29
 8007a92:	5c6b      	ldrb	r3, [r5, r1]
 8007a94:	5c61      	ldrb	r1, [r4, r1]
 8007a96:	011b      	lsls	r3, r3, #4
 8007a98:	fbb3 f3f1 	udiv	r3, r3, r1
 8007a9c:	f8a0 306a 	strh.w	r3, [r0, #106]	@ 0x6a
 8007aa0:	5cab      	ldrb	r3, [r5, r2]
 8007aa2:	5ca2      	ldrb	r2, [r4, r2]
 8007aa4:	011b      	lsls	r3, r3, #4
 8007aa6:	fbb3 f3f2 	udiv	r3, r3, r2
 8007aaa:	e7e7      	b.n	8007a7c <UARTEx_SetNbDataToProcess+0xc>
 8007aac:	08007e18 	.word	0x08007e18
 8007ab0:	08007e10 	.word	0x08007e10

08007ab4 <HAL_UARTEx_WakeupCallback>:
 8007ab4:	4770      	bx	lr

08007ab6 <HAL_UARTEx_RxFifoFullCallback>:
 8007ab6:	4770      	bx	lr

08007ab8 <HAL_UARTEx_TxFifoEmptyCallback>:
 8007ab8:	4770      	bx	lr

08007aba <HAL_UARTEx_DisableFifoMode>:
 8007aba:	f890 3084 	ldrb.w	r3, [r0, #132]	@ 0x84
 8007abe:	2b01      	cmp	r3, #1
 8007ac0:	d014      	beq.n	8007aec <HAL_UARTEx_DisableFifoMode+0x32>
 8007ac2:	6802      	ldr	r2, [r0, #0]
 8007ac4:	2324      	movs	r3, #36	@ 0x24
 8007ac6:	f8c0 3088 	str.w	r3, [r0, #136]	@ 0x88
 8007aca:	6811      	ldr	r1, [r2, #0]
 8007acc:	6813      	ldr	r3, [r2, #0]
 8007ace:	f021 5100 	bic.w	r1, r1, #536870912	@ 0x20000000
 8007ad2:	f023 0301 	bic.w	r3, r3, #1
 8007ad6:	6013      	str	r3, [r2, #0]
 8007ad8:	2300      	movs	r3, #0
 8007ada:	6643      	str	r3, [r0, #100]	@ 0x64
 8007adc:	6011      	str	r1, [r2, #0]
 8007ade:	2220      	movs	r2, #32
 8007ae0:	f880 3084 	strb.w	r3, [r0, #132]	@ 0x84
 8007ae4:	f8c0 2088 	str.w	r2, [r0, #136]	@ 0x88
 8007ae8:	4618      	mov	r0, r3
 8007aea:	4770      	bx	lr
 8007aec:	2002      	movs	r0, #2
 8007aee:	4770      	bx	lr

08007af0 <HAL_UARTEx_SetTxFifoThreshold>:
 8007af0:	b570      	push	{r4, r5, r6, lr}
 8007af2:	f890 3084 	ldrb.w	r3, [r0, #132]	@ 0x84
 8007af6:	4604      	mov	r4, r0
 8007af8:	2b01      	cmp	r3, #1
 8007afa:	d017      	beq.n	8007b2c <HAL_UARTEx_SetTxFifoThreshold+0x3c>
 8007afc:	6805      	ldr	r5, [r0, #0]
 8007afe:	2324      	movs	r3, #36	@ 0x24
 8007b00:	f8c0 3088 	str.w	r3, [r0, #136]	@ 0x88
 8007b04:	682e      	ldr	r6, [r5, #0]
 8007b06:	682b      	ldr	r3, [r5, #0]
 8007b08:	f023 0301 	bic.w	r3, r3, #1
 8007b0c:	602b      	str	r3, [r5, #0]
 8007b0e:	68ab      	ldr	r3, [r5, #8]
 8007b10:	f023 4360 	bic.w	r3, r3, #3758096384	@ 0xe0000000
 8007b14:	4319      	orrs	r1, r3
 8007b16:	60a9      	str	r1, [r5, #8]
 8007b18:	f7ff ffaa 	bl	8007a70 <UARTEx_SetNbDataToProcess>
 8007b1c:	2320      	movs	r3, #32
 8007b1e:	602e      	str	r6, [r5, #0]
 8007b20:	f8c0 3088 	str.w	r3, [r0, #136]	@ 0x88
 8007b24:	2000      	movs	r0, #0
 8007b26:	f884 0084 	strb.w	r0, [r4, #132]	@ 0x84
 8007b2a:	bd70      	pop	{r4, r5, r6, pc}
 8007b2c:	2002      	movs	r0, #2
 8007b2e:	e7fc      	b.n	8007b2a <HAL_UARTEx_SetTxFifoThreshold+0x3a>

08007b30 <HAL_UARTEx_SetRxFifoThreshold>:
 8007b30:	b570      	push	{r4, r5, r6, lr}
 8007b32:	f890 3084 	ldrb.w	r3, [r0, #132]	@ 0x84
 8007b36:	4604      	mov	r4, r0
 8007b38:	2b01      	cmp	r3, #1
 8007b3a:	d017      	beq.n	8007b6c <HAL_UARTEx_SetRxFifoThreshold+0x3c>
 8007b3c:	6805      	ldr	r5, [r0, #0]
 8007b3e:	2324      	movs	r3, #36	@ 0x24
 8007b40:	f8c0 3088 	str.w	r3, [r0, #136]	@ 0x88
 8007b44:	682e      	ldr	r6, [r5, #0]
 8007b46:	682b      	ldr	r3, [r5, #0]
 8007b48:	f023 0301 	bic.w	r3, r3, #1
 8007b4c:	602b      	str	r3, [r5, #0]
 8007b4e:	68ab      	ldr	r3, [r5, #8]
 8007b50:	f023 6360 	bic.w	r3, r3, #234881024	@ 0xe000000
 8007b54:	4319      	orrs	r1, r3
 8007b56:	60a9      	str	r1, [r5, #8]
 8007b58:	f7ff ff8a 	bl	8007a70 <UARTEx_SetNbDataToProcess>
 8007b5c:	2320      	movs	r3, #32
 8007b5e:	602e      	str	r6, [r5, #0]
 8007b60:	f8c0 3088 	str.w	r3, [r0, #136]	@ 0x88
 8007b64:	2000      	movs	r0, #0
 8007b66:	f884 0084 	strb.w	r0, [r4, #132]	@ 0x84
 8007b6a:	bd70      	pop	{r4, r5, r6, pc}
 8007b6c:	2002      	movs	r0, #2
 8007b6e:	e7fc      	b.n	8007b6a <HAL_UARTEx_SetRxFifoThreshold+0x3a>

08007b70 <memset>:
 8007b70:	4402      	add	r2, r0
 8007b72:	4603      	mov	r3, r0
 8007b74:	4293      	cmp	r3, r2
 8007b76:	d100      	bne.n	8007b7a <memset+0xa>
 8007b78:	4770      	bx	lr
 8007b7a:	f803 1b01 	strb.w	r1, [r3], #1
 8007b7e:	e7f9      	b.n	8007b74 <memset+0x4>

08007b80 <__libc_init_array>:
 8007b80:	b570      	push	{r4, r5, r6, lr}
 8007b82:	4d0d      	ldr	r5, [pc, #52]	@ (8007bb8 <__libc_init_array+0x38>)
 8007b84:	4c0d      	ldr	r4, [pc, #52]	@ (8007bbc <__libc_init_array+0x3c>)
 8007b86:	1b64      	subs	r4, r4, r5
 8007b88:	10a4      	asrs	r4, r4, #2
 8007b8a:	2600      	movs	r6, #0
 8007b8c:	42a6      	cmp	r6, r4
 8007b8e:	d109      	bne.n	8007ba4 <__libc_init_array+0x24>
 8007b90:	4d0b      	ldr	r5, [pc, #44]	@ (8007bc0 <__libc_init_array+0x40>)
 8007b92:	4c0c      	ldr	r4, [pc, #48]	@ (8007bc4 <__libc_init_array+0x44>)
 8007b94:	f000 f818 	bl	8007bc8 <_init>
 8007b98:	1b64      	subs	r4, r4, r5
 8007b9a:	10a4      	asrs	r4, r4, #2
 8007b9c:	2600      	movs	r6, #0
 8007b9e:	42a6      	cmp	r6, r4
 8007ba0:	d105      	bne.n	8007bae <__libc_init_array+0x2e>
 8007ba2:	bd70      	pop	{r4, r5, r6, pc}
 8007ba4:	f855 3b04 	ldr.w	r3, [r5], #4
 8007ba8:	4798      	blx	r3
 8007baa:	3601      	adds	r6, #1
 8007bac:	e7ee      	b.n	8007b8c <__libc_init_array+0xc>
 8007bae:	f855 3b04 	ldr.w	r3, [r5], #4
 8007bb2:	4798      	blx	r3
 8007bb4:	3601      	adds	r6, #1
 8007bb6:	e7f2      	b.n	8007b9e <__libc_init_array+0x1e>
 8007bb8:	08007e28 	.word	0x08007e28
 8007bbc:	08007e28 	.word	0x08007e28
 8007bc0:	08007e28 	.word	0x08007e28
 8007bc4:	08007e2c 	.word	0x08007e2c

08007bc8 <_init>:
 8007bc8:	b5f8      	push	{r3, r4, r5, r6, r7, lr}
 8007bca:	bf00      	nop
 8007bcc:	bcf8      	pop	{r3, r4, r5, r6, r7}
 8007bce:	bc08      	pop	{r3}
 8007bd0:	469e      	mov	lr, r3
 8007bd2:	4770      	bx	lr

08007bd4 <_fini>:
 8007bd4:	b5f8      	push	{r3, r4, r5, r6, r7, lr}
 8007bd6:	bf00      	nop
 8007bd8:	bcf8      	pop	{r3, r4, r5, r6, r7}
 8007bda:	bc08      	pop	{r3}
 8007bdc:	469e      	mov	lr, r3
 8007bde:	4770      	bx	lr
